
Project2Robot.elf:     file format elf32-littlearm

Sections:
Idx Name          Size      VMA       LMA       File off  Algn
  0 .text         00007274  00080000  00080000  00008000  2**3
                  CONTENTS, ALLOC, LOAD, READONLY, CODE
  1 .relocate     000001ec  20070000  00087274  00010000  2**2
                  CONTENTS, ALLOC, LOAD, CODE
  2 .bss          000083dc  200701f0  00087468  000101f0  2**3
                  ALLOC
  3 .stack        00002004  200785cc  0008f844  000101f0  2**0
                  ALLOC
  4 .ARM.attributes 00000029  00000000  00000000  000101ec  2**0
                  CONTENTS, READONLY
  5 .comment      0000005b  00000000  00000000  00010215  2**0
                  CONTENTS, READONLY
  6 .debug_info   0001e217  00000000  00000000  00010270  2**0
                  CONTENTS, READONLY, DEBUGGING
  7 .debug_abbrev 00004ff8  00000000  00000000  0002e487  2**0
                  CONTENTS, READONLY, DEBUGGING
  8 .debug_loc    0000a852  00000000  00000000  0003347f  2**0
                  CONTENTS, READONLY, DEBUGGING
  9 .debug_aranges 000012d8  00000000  00000000  0003dcd1  2**0
                  CONTENTS, READONLY, DEBUGGING
 10 .debug_ranges 00001178  00000000  00000000  0003efa9  2**0
                  CONTENTS, READONLY, DEBUGGING
 11 .debug_macro  0000e60e  00000000  00000000  00040121  2**0
                  CONTENTS, READONLY, DEBUGGING
 12 .debug_line   0001f7dc  00000000  00000000  0004e72f  2**0
                  CONTENTS, READONLY, DEBUGGING
 13 .debug_str    00069f5f  00000000  00000000  0006df0b  2**0
                  CONTENTS, READONLY, DEBUGGING
 14 .debug_frame  00003460  00000000  00000000  000d7e6c  2**2
                  CONTENTS, READONLY, DEBUGGING

Disassembly of section .text:

00080000 <_sfixed>:
   80000:	2007a5d0 	.word	0x2007a5d0
   80004:	00081dd1 	.word	0x00081dd1
   80008:	00081dcd 	.word	0x00081dcd
   8000c:	00081dcd 	.word	0x00081dcd
   80010:	00081dcd 	.word	0x00081dcd
   80014:	00081dcd 	.word	0x00081dcd
   80018:	00081dcd 	.word	0x00081dcd
	...
   8002c:	000820bd 	.word	0x000820bd
   80030:	00081dcd 	.word	0x00081dcd
   80034:	00000000 	.word	0x00000000
   80038:	00082139 	.word	0x00082139
   8003c:	00082175 	.word	0x00082175
   80040:	00081dcd 	.word	0x00081dcd
   80044:	00081dcd 	.word	0x00081dcd
   80048:	00081dcd 	.word	0x00081dcd
   8004c:	00081dcd 	.word	0x00081dcd
   80050:	00081dcd 	.word	0x00081dcd
   80054:	00081dcd 	.word	0x00081dcd
   80058:	00081dcd 	.word	0x00081dcd
   8005c:	00081dcd 	.word	0x00081dcd
   80060:	00081dcd 	.word	0x00081dcd
   80064:	00081dcd 	.word	0x00081dcd
   80068:	00000000 	.word	0x00000000
   8006c:	000819b9 	.word	0x000819b9
   80070:	000819cd 	.word	0x000819cd
   80074:	000819e1 	.word	0x000819e1
   80078:	000819f5 	.word	0x000819f5
	...
   80084:	00083589 	.word	0x00083589
   80088:	00081dcd 	.word	0x00081dcd
   8008c:	00081dcd 	.word	0x00081dcd
   80090:	00081dcd 	.word	0x00081dcd
   80094:	00081dcd 	.word	0x00081dcd
   80098:	00081dcd 	.word	0x00081dcd
   8009c:	00081dcd 	.word	0x00081dcd
   800a0:	00081dcd 	.word	0x00081dcd
   800a4:	00000000 	.word	0x00000000
   800a8:	00081dcd 	.word	0x00081dcd
   800ac:	00081dcd 	.word	0x00081dcd
   800b0:	00081dcd 	.word	0x00081dcd
   800b4:	00081dcd 	.word	0x00081dcd
   800b8:	00081dcd 	.word	0x00081dcd
   800bc:	00081dcd 	.word	0x00081dcd
   800c0:	00081dcd 	.word	0x00081dcd
   800c4:	00081dcd 	.word	0x00081dcd
   800c8:	00081dcd 	.word	0x00081dcd
   800cc:	00081dcd 	.word	0x00081dcd
   800d0:	00081dcd 	.word	0x00081dcd
   800d4:	00081dcd 	.word	0x00081dcd
   800d8:	00081dcd 	.word	0x00081dcd
   800dc:	00081dcd 	.word	0x00081dcd
   800e0:	00081dcd 	.word	0x00081dcd
   800e4:	00081dcd 	.word	0x00081dcd
   800e8:	00081dcd 	.word	0x00081dcd
   800ec:	00081dcd 	.word	0x00081dcd
   800f0:	00081dcd 	.word	0x00081dcd

000800f4 <__do_global_dtors_aux>:
   800f4:	b510      	push	{r4, lr}
   800f6:	4c05      	ldr	r4, [pc, #20]	; (8010c <__do_global_dtors_aux+0x18>)
   800f8:	7823      	ldrb	r3, [r4, #0]
   800fa:	b933      	cbnz	r3, 8010a <__do_global_dtors_aux+0x16>
   800fc:	4b04      	ldr	r3, [pc, #16]	; (80110 <__do_global_dtors_aux+0x1c>)
   800fe:	b113      	cbz	r3, 80106 <__do_global_dtors_aux+0x12>
   80100:	4804      	ldr	r0, [pc, #16]	; (80114 <__do_global_dtors_aux+0x20>)
   80102:	f3af 8000 	nop.w
   80106:	2301      	movs	r3, #1
   80108:	7023      	strb	r3, [r4, #0]
   8010a:	bd10      	pop	{r4, pc}
   8010c:	200701f0 	.word	0x200701f0
   80110:	00000000 	.word	0x00000000
   80114:	00087274 	.word	0x00087274

00080118 <frame_dummy>:
   80118:	b508      	push	{r3, lr}
   8011a:	4b06      	ldr	r3, [pc, #24]	; (80134 <frame_dummy+0x1c>)
   8011c:	b11b      	cbz	r3, 80126 <frame_dummy+0xe>
   8011e:	4806      	ldr	r0, [pc, #24]	; (80138 <frame_dummy+0x20>)
   80120:	4906      	ldr	r1, [pc, #24]	; (8013c <frame_dummy+0x24>)
   80122:	f3af 8000 	nop.w
   80126:	4806      	ldr	r0, [pc, #24]	; (80140 <frame_dummy+0x28>)
   80128:	6803      	ldr	r3, [r0, #0]
   8012a:	b113      	cbz	r3, 80132 <frame_dummy+0x1a>
   8012c:	4b05      	ldr	r3, [pc, #20]	; (80144 <frame_dummy+0x2c>)
   8012e:	b103      	cbz	r3, 80132 <frame_dummy+0x1a>
   80130:	4798      	blx	r3
   80132:	bd08      	pop	{r3, pc}
   80134:	00000000 	.word	0x00000000
   80138:	00087274 	.word	0x00087274
   8013c:	200701f4 	.word	0x200701f4
   80140:	00087274 	.word	0x00087274
   80144:	00000000 	.word	0x00000000

00080148 <pin_edge_handler1>:
   80148:	b510      	push	{r4, lr}
   8014a:	4c08      	ldr	r4, [pc, #32]	; (8016c <pin_edge_handler1+0x24>)
   8014c:	4620      	mov	r0, r4
   8014e:	2100      	movs	r1, #0
   80150:	4b07      	ldr	r3, [pc, #28]	; (80170 <pin_edge_handler1+0x28>)
   80152:	4798      	blx	r3
   80154:	4b07      	ldr	r3, [pc, #28]	; (80174 <pin_edge_handler1+0x2c>)
   80156:	6018      	str	r0, [r3, #0]
   80158:	4620      	mov	r0, r4
   8015a:	2100      	movs	r1, #0
   8015c:	4b06      	ldr	r3, [pc, #24]	; (80178 <pin_edge_handler1+0x30>)
   8015e:	4798      	blx	r3
   80160:	4b06      	ldr	r3, [pc, #24]	; (8017c <pin_edge_handler1+0x34>)
   80162:	681a      	ldr	r2, [r3, #0]
   80164:	3201      	adds	r2, #1
   80166:	601a      	str	r2, [r3, #0]
   80168:	bd10      	pop	{r4, pc}
   8016a:	bf00      	nop
   8016c:	40080000 	.word	0x40080000
   80170:	000809a1 	.word	0x000809a1
   80174:	20078598 	.word	0x20078598
   80178:	00080991 	.word	0x00080991
   8017c:	200785a0 	.word	0x200785a0

00080180 <configure_tc_LeftWheel>:
   80180:	b510      	push	{r4, lr}
   80182:	2000      	movs	r0, #0
   80184:	4b07      	ldr	r3, [pc, #28]	; (801a4 <configure_tc_LeftWheel+0x24>)
   80186:	4798      	blx	r3
   80188:	201b      	movs	r0, #27
   8018a:	4b07      	ldr	r3, [pc, #28]	; (801a8 <configure_tc_LeftWheel+0x28>)
   8018c:	4798      	blx	r3
   8018e:	4c07      	ldr	r4, [pc, #28]	; (801ac <configure_tc_LeftWheel+0x2c>)
   80190:	4620      	mov	r0, r4
   80192:	2100      	movs	r1, #0
   80194:	2202      	movs	r2, #2
   80196:	4b06      	ldr	r3, [pc, #24]	; (801b0 <configure_tc_LeftWheel+0x30>)
   80198:	4798      	blx	r3
   8019a:	4620      	mov	r0, r4
   8019c:	2100      	movs	r1, #0
   8019e:	4b05      	ldr	r3, [pc, #20]	; (801b4 <configure_tc_LeftWheel+0x34>)
   801a0:	4798      	blx	r3
   801a2:	bd10      	pop	{r4, pc}
   801a4:	00081b49 	.word	0x00081b49
   801a8:	00081af1 	.word	0x00081af1
   801ac:	40080000 	.word	0x40080000
   801b0:	0008096d 	.word	0x0008096d
   801b4:	00080989 	.word	0x00080989

000801b8 <configure_interrupt_pio_LeftWheel>:
   801b8:	b530      	push	{r4, r5, lr}
   801ba:	b083      	sub	sp, #12
   801bc:	200c      	movs	r0, #12
   801be:	4b0e      	ldr	r3, [pc, #56]	; (801f8 <configure_interrupt_pio_LeftWheel+0x40>)
   801c0:	4798      	blx	r3
   801c2:	4c0e      	ldr	r4, [pc, #56]	; (801fc <configure_interrupt_pio_LeftWheel+0x44>)
   801c4:	4620      	mov	r0, r4
   801c6:	f04f 6100 	mov.w	r1, #134217728	; 0x8000000
   801ca:	2201      	movs	r2, #1
   801cc:	4b0c      	ldr	r3, [pc, #48]	; (80200 <configure_interrupt_pio_LeftWheel+0x48>)
   801ce:	4798      	blx	r3
   801d0:	4b0c      	ldr	r3, [pc, #48]	; (80204 <configure_interrupt_pio_LeftWheel+0x4c>)
   801d2:	9300      	str	r3, [sp, #0]
   801d4:	4620      	mov	r0, r4
   801d6:	210c      	movs	r1, #12
   801d8:	f04f 6200 	mov.w	r2, #134217728	; 0x8000000
   801dc:	2340      	movs	r3, #64	; 0x40
   801de:	4d0a      	ldr	r5, [pc, #40]	; (80208 <configure_interrupt_pio_LeftWheel+0x50>)
   801e0:	47a8      	blx	r5
   801e2:	4620      	mov	r0, r4
   801e4:	f04f 6100 	mov.w	r1, #134217728	; 0x8000000
   801e8:	4b08      	ldr	r3, [pc, #32]	; (8020c <configure_interrupt_pio_LeftWheel+0x54>)
   801ea:	4798      	blx	r3
   801ec:	f44f 5280 	mov.w	r2, #4096	; 0x1000
   801f0:	4b07      	ldr	r3, [pc, #28]	; (80210 <configure_interrupt_pio_LeftWheel+0x58>)
   801f2:	601a      	str	r2, [r3, #0]
   801f4:	b003      	add	sp, #12
   801f6:	bd30      	pop	{r4, r5, pc}
   801f8:	00081af1 	.word	0x00081af1
   801fc:	400e1000 	.word	0x400e1000
   80200:	0008168d 	.word	0x0008168d
   80204:	00080149 	.word	0x00080149
   80208:	0008197d 	.word	0x0008197d
   8020c:	000817a1 	.word	0x000817a1
   80210:	e000e100 	.word	0xe000e100

00080214 <pin_edge_handler>:
   80214:	b510      	push	{r4, lr}
   80216:	4c08      	ldr	r4, [pc, #32]	; (80238 <pin_edge_handler+0x24>)
   80218:	4620      	mov	r0, r4
   8021a:	2100      	movs	r1, #0
   8021c:	4b07      	ldr	r3, [pc, #28]	; (8023c <pin_edge_handler+0x28>)
   8021e:	4798      	blx	r3
   80220:	4b07      	ldr	r3, [pc, #28]	; (80240 <pin_edge_handler+0x2c>)
   80222:	6018      	str	r0, [r3, #0]
   80224:	4620      	mov	r0, r4
   80226:	2100      	movs	r1, #0
   80228:	4b06      	ldr	r3, [pc, #24]	; (80244 <pin_edge_handler+0x30>)
   8022a:	4798      	blx	r3
   8022c:	4b06      	ldr	r3, [pc, #24]	; (80248 <pin_edge_handler+0x34>)
   8022e:	681a      	ldr	r2, [r3, #0]
   80230:	3201      	adds	r2, #1
   80232:	601a      	str	r2, [r3, #0]
   80234:	bd10      	pop	{r4, pc}
   80236:	bf00      	nop
   80238:	40088000 	.word	0x40088000
   8023c:	000809a1 	.word	0x000809a1
   80240:	200785ac 	.word	0x200785ac
   80244:	00080991 	.word	0x00080991
   80248:	200785a4 	.word	0x200785a4

0008024c <configure_tc_RightWheel>:
   8024c:	b510      	push	{r4, lr}
   8024e:	2000      	movs	r0, #0
   80250:	4b07      	ldr	r3, [pc, #28]	; (80270 <configure_tc_RightWheel+0x24>)
   80252:	4798      	blx	r3
   80254:	2021      	movs	r0, #33	; 0x21
   80256:	4b07      	ldr	r3, [pc, #28]	; (80274 <configure_tc_RightWheel+0x28>)
   80258:	4798      	blx	r3
   8025a:	4c07      	ldr	r4, [pc, #28]	; (80278 <configure_tc_RightWheel+0x2c>)
   8025c:	4620      	mov	r0, r4
   8025e:	2100      	movs	r1, #0
   80260:	2202      	movs	r2, #2
   80262:	4b06      	ldr	r3, [pc, #24]	; (8027c <configure_tc_RightWheel+0x30>)
   80264:	4798      	blx	r3
   80266:	4620      	mov	r0, r4
   80268:	2100      	movs	r1, #0
   8026a:	4b05      	ldr	r3, [pc, #20]	; (80280 <configure_tc_RightWheel+0x34>)
   8026c:	4798      	blx	r3
   8026e:	bd10      	pop	{r4, pc}
   80270:	00081b49 	.word	0x00081b49
   80274:	00081af1 	.word	0x00081af1
   80278:	40088000 	.word	0x40088000
   8027c:	0008096d 	.word	0x0008096d
   80280:	00080989 	.word	0x00080989

00080284 <configure_interrupt_pio_RightWheel>:
   80284:	b530      	push	{r4, r5, lr}
   80286:	b083      	sub	sp, #12
   80288:	200e      	movs	r0, #14
   8028a:	4b0e      	ldr	r3, [pc, #56]	; (802c4 <configure_interrupt_pio_RightWheel+0x40>)
   8028c:	4798      	blx	r3
   8028e:	4c0e      	ldr	r4, [pc, #56]	; (802c8 <configure_interrupt_pio_RightWheel+0x44>)
   80290:	4620      	mov	r0, r4
   80292:	f44f 7180 	mov.w	r1, #256	; 0x100
   80296:	2201      	movs	r2, #1
   80298:	4b0c      	ldr	r3, [pc, #48]	; (802cc <configure_interrupt_pio_RightWheel+0x48>)
   8029a:	4798      	blx	r3
   8029c:	4b0c      	ldr	r3, [pc, #48]	; (802d0 <configure_interrupt_pio_RightWheel+0x4c>)
   8029e:	9300      	str	r3, [sp, #0]
   802a0:	4620      	mov	r0, r4
   802a2:	210e      	movs	r1, #14
   802a4:	f44f 7280 	mov.w	r2, #256	; 0x100
   802a8:	2340      	movs	r3, #64	; 0x40
   802aa:	4d0a      	ldr	r5, [pc, #40]	; (802d4 <configure_interrupt_pio_RightWheel+0x50>)
   802ac:	47a8      	blx	r5
   802ae:	4620      	mov	r0, r4
   802b0:	f44f 7180 	mov.w	r1, #256	; 0x100
   802b4:	4b08      	ldr	r3, [pc, #32]	; (802d8 <configure_interrupt_pio_RightWheel+0x54>)
   802b6:	4798      	blx	r3
   802b8:	f44f 4280 	mov.w	r2, #16384	; 0x4000
   802bc:	4b07      	ldr	r3, [pc, #28]	; (802dc <configure_interrupt_pio_RightWheel+0x58>)
   802be:	601a      	str	r2, [r3, #0]
   802c0:	b003      	add	sp, #12
   802c2:	bd30      	pop	{r4, r5, pc}
   802c4:	00081af1 	.word	0x00081af1
   802c8:	400e1400 	.word	0x400e1400
   802cc:	0008168d 	.word	0x0008168d
   802d0:	00080215 	.word	0x00080215
   802d4:	0008197d 	.word	0x0008197d
   802d8:	000817a1 	.word	0x000817a1
   802dc:	e000e100 	.word	0xe000e100

000802e0 <InitPIN40>:

/************************************************************************
* Initiation of digital pin 40 on the Arduino Due board. 
/************************************************************************/
void InitPIN40(void)
{
   802e0:	b538      	push	{r3, r4, r5, lr}
	PWMPin40.channel = PWM_CHANNEL_3;
   802e2:	490d      	ldr	r1, [pc, #52]	; (80318 <InitPIN40+0x38>)
   802e4:	2403      	movs	r4, #3
   802e6:	600c      	str	r4, [r1, #0]
	PWMPin40.ul_prescaler = PWM_CMR_CPRE_CLKA;
   802e8:	220b      	movs	r2, #11
   802ea:	604a      	str	r2, [r1, #4]
	PWMPin40.ul_duty = 0;
   802ec:	2200      	movs	r2, #0
   802ee:	60ca      	str	r2, [r1, #12]
	PWMPin40.ul_period = 19999;
   802f0:	f644 621f 	movw	r2, #19999	; 0x4e1f
   802f4:	610a      	str	r2, [r1, #16]
	pwm_channel_init(PWM, &PWMPin40);
   802f6:	4d09      	ldr	r5, [pc, #36]	; (8031c <InitPIN40+0x3c>)
   802f8:	4628      	mov	r0, r5
   802fa:	4b09      	ldr	r3, [pc, #36]	; (80320 <InitPIN40+0x40>)
   802fc:	4798      	blx	r3
	pio_set_peripheral(PIOC, PIO_PERIPH_B, PIO_PC8B_PWML3);
   802fe:	4809      	ldr	r0, [pc, #36]	; (80324 <InitPIN40+0x44>)
   80300:	f04f 5180 	mov.w	r1, #268435456	; 0x10000000
   80304:	f44f 7280 	mov.w	r2, #256	; 0x100
   80308:	4b07      	ldr	r3, [pc, #28]	; (80328 <InitPIN40+0x48>)
   8030a:	4798      	blx	r3
	pwm_channel_enable(PWM, PWM_CHANNEL_3);
   8030c:	4628      	mov	r0, r5
   8030e:	4621      	mov	r1, r4
   80310:	4b06      	ldr	r3, [pc, #24]	; (8032c <InitPIN40+0x4c>)
   80312:	4798      	blx	r3
   80314:	bd38      	pop	{r3, r4, r5, pc}
   80316:	bf00      	nop
   80318:	2007856c 	.word	0x2007856c
   8031c:	40094000 	.word	0x40094000
   80320:	00081c05 	.word	0x00081c05
   80324:	400e1200 	.word	0x400e1200
   80328:	0008164d 	.word	0x0008164d
   8032c:	00081d2d 	.word	0x00081d2d

00080330 <InitPIN38>:

/************************************************************************
* Initiation of digital pin 38 on the Arduino Due board.
/************************************************************************/
void InitPIN38(void)
{
   80330:	b538      	push	{r3, r4, r5, lr}
	PWMPin38.channel = PWM_CHANNEL_2;
   80332:	490c      	ldr	r1, [pc, #48]	; (80364 <InitPIN38+0x34>)
   80334:	2402      	movs	r4, #2
   80336:	600c      	str	r4, [r1, #0]
	PWMPin38.ul_prescaler = PWM_CMR_CPRE_CLKA;
   80338:	220b      	movs	r2, #11
   8033a:	604a      	str	r2, [r1, #4]
	PWMPin38.ul_duty = 0;
   8033c:	2200      	movs	r2, #0
   8033e:	60ca      	str	r2, [r1, #12]
	PWMPin38.ul_period = 19999;
   80340:	f644 621f 	movw	r2, #19999	; 0x4e1f
   80344:	610a      	str	r2, [r1, #16]
	pwm_channel_init(PWM, &PWMPin38);
   80346:	4d08      	ldr	r5, [pc, #32]	; (80368 <InitPIN38+0x38>)
   80348:	4628      	mov	r0, r5
   8034a:	4b08      	ldr	r3, [pc, #32]	; (8036c <InitPIN38+0x3c>)
   8034c:	4798      	blx	r3
	pio_set_peripheral(PIOC, PIO_PERIPH_B, PIO_PC6B_PWML2);
   8034e:	4808      	ldr	r0, [pc, #32]	; (80370 <InitPIN38+0x40>)
   80350:	f04f 5180 	mov.w	r1, #268435456	; 0x10000000
   80354:	2240      	movs	r2, #64	; 0x40
   80356:	4b07      	ldr	r3, [pc, #28]	; (80374 <InitPIN38+0x44>)
   80358:	4798      	blx	r3
	pwm_channel_enable(PWM, PWM_CHANNEL_2);
   8035a:	4628      	mov	r0, r5
   8035c:	4621      	mov	r1, r4
   8035e:	4b06      	ldr	r3, [pc, #24]	; (80378 <InitPIN38+0x48>)
   80360:	4798      	blx	r3
   80362:	bd38      	pop	{r3, r4, r5, pc}
   80364:	20078544 	.word	0x20078544
   80368:	40094000 	.word	0x40094000
   8036c:	00081c05 	.word	0x00081c05
   80370:	400e1200 	.word	0x400e1200
   80374:	0008164d 	.word	0x0008164d
   80378:	00081d2d 	.word	0x00081d2d

0008037c <PWMInit>:

/************************************************************************
* Configuration of the Pulse Width Modulation (PWM). 
/************************************************************************/
void PWMInit(void)
{
   8037c:	b530      	push	{r4, r5, lr}
   8037e:	b085      	sub	sp, #20
	pmc_enable_periph_clk(ID_PWM);
   80380:	2024      	movs	r0, #36	; 0x24
   80382:	4b0d      	ldr	r3, [pc, #52]	; (803b8 <PWMInit+0x3c>)
   80384:	4798      	blx	r3
	pwm_channel_disable(PWM, PWM_CHANNEL_3);
   80386:	4c0d      	ldr	r4, [pc, #52]	; (803bc <PWMInit+0x40>)
   80388:	4620      	mov	r0, r4
   8038a:	2103      	movs	r1, #3
   8038c:	4d0c      	ldr	r5, [pc, #48]	; (803c0 <PWMInit+0x44>)
   8038e:	47a8      	blx	r5
	pwm_channel_disable(PWM, PWM_CHANNEL_2);
   80390:	4620      	mov	r0, r4
   80392:	2102      	movs	r1, #2
   80394:	47a8      	blx	r5
	
	pwm_clock_t clock_setting = {
   80396:	4b0b      	ldr	r3, [pc, #44]	; (803c4 <PWMInit+0x48>)
   80398:	9301      	str	r3, [sp, #4]
   8039a:	2300      	movs	r3, #0
   8039c:	9302      	str	r3, [sp, #8]
   8039e:	4b0a      	ldr	r3, [pc, #40]	; (803c8 <PWMInit+0x4c>)
   803a0:	9303      	str	r3, [sp, #12]
		.ul_clka = 50 * 19999,
		.ul_clkb = 0,
		.ul_mck = sysclk_get_cpu_hz()
	};
	pwm_init(PWM, &clock_setting);
   803a2:	4620      	mov	r0, r4
   803a4:	a901      	add	r1, sp, #4
   803a6:	4b09      	ldr	r3, [pc, #36]	; (803cc <PWMInit+0x50>)
   803a8:	4798      	blx	r3
	
	InitPIN40();
   803aa:	4b09      	ldr	r3, [pc, #36]	; (803d0 <PWMInit+0x54>)
   803ac:	4798      	blx	r3
	InitPIN38();
   803ae:	4b09      	ldr	r3, [pc, #36]	; (803d4 <PWMInit+0x58>)
   803b0:	4798      	blx	r3
}
   803b2:	b005      	add	sp, #20
   803b4:	bd30      	pop	{r4, r5, pc}
   803b6:	bf00      	nop
   803b8:	00081af1 	.word	0x00081af1
   803bc:	40094000 	.word	0x40094000
   803c0:	00081d39 	.word	0x00081d39
   803c4:	000f420e 	.word	0x000f420e
   803c8:	0501bd00 	.word	0x0501bd00
   803cc:	00081bc5 	.word	0x00081bc5
   803d0:	000802e1 	.word	0x000802e1
   803d4:	00080331 	.word	0x00080331

000803d8 <LeftWheelPWM>:

/************************************************************************
* Function for setting a PWM value to the left engine. 
/************************************************************************/
void LeftWheelPWM(uint32_t dutyCycle)
{
   803d8:	b508      	push	{r3, lr}
   803da:	4602      	mov	r2, r0
	pwm_channel_update_duty(PWM, &PWMPin40, dutyCycle);
   803dc:	4802      	ldr	r0, [pc, #8]	; (803e8 <LeftWheelPWM+0x10>)
   803de:	4903      	ldr	r1, [pc, #12]	; (803ec <LeftWheelPWM+0x14>)
   803e0:	4b03      	ldr	r3, [pc, #12]	; (803f0 <LeftWheelPWM+0x18>)
   803e2:	4798      	blx	r3
   803e4:	bd08      	pop	{r3, pc}
   803e6:	bf00      	nop
   803e8:	40094000 	.word	0x40094000
   803ec:	2007856c 	.word	0x2007856c
   803f0:	00081d09 	.word	0x00081d09

000803f4 <RightWheelPWM>:

/************************************************************************
* Function for setting a PWM value to the right engine.
/************************************************************************/
void RightWheelPWM(uint32_t dutyCycle)
{
   803f4:	b508      	push	{r3, lr}
   803f6:	4602      	mov	r2, r0
	pwm_channel_update_duty(PWM, &PWMPin38, dutyCycle);
   803f8:	4802      	ldr	r0, [pc, #8]	; (80404 <RightWheelPWM+0x10>)
   803fa:	4903      	ldr	r1, [pc, #12]	; (80408 <RightWheelPWM+0x14>)
   803fc:	4b03      	ldr	r3, [pc, #12]	; (8040c <RightWheelPWM+0x18>)
   803fe:	4798      	blx	r3
   80400:	bd08      	pop	{r3, pc}
   80402:	bf00      	nop
   80404:	40094000 	.word	0x40094000
   80408:	20078544 	.word	0x20078544
   8040c:	00081d09 	.word	0x00081d09

00080410 <setupUART>:
#include "SerialUART.h"

/************************************************************************/
/* Configuration of the UART. */
/************************************************************************/
void setupUART(void){
   80410:	b530      	push	{r4, r5, lr}
   80412:	b085      	sub	sp, #20
	pio_configure(PINS_UART_PIO, PINS_UART_TYPE, PINS_UART_MASK, PIO_DEFAULT);
   80414:	4c12      	ldr	r4, [pc, #72]	; (80460 <setupUART+0x50>)
   80416:	4620      	mov	r0, r4
   80418:	f04f 6100 	mov.w	r1, #134217728	; 0x8000000
   8041c:	f44f 7240 	mov.w	r2, #768	; 0x300
   80420:	2300      	movs	r3, #0
   80422:	4d10      	ldr	r5, [pc, #64]	; (80464 <setupUART+0x54>)
   80424:	47a8      	blx	r5
	pmc_enable_periph_clk(ID_UART);
   80426:	2008      	movs	r0, #8
   80428:	4b0f      	ldr	r3, [pc, #60]	; (80468 <setupUART+0x58>)
   8042a:	4798      	blx	r3
	const sam_uart_opt_t uart0_settings = { sysclk_get_cpu_hz(), CONF_UART_BAUDRATE, UART_MR_PAR_NO };
   8042c:	4b0f      	ldr	r3, [pc, #60]	; (8046c <setupUART+0x5c>)
   8042e:	9301      	str	r3, [sp, #4]
   80430:	f44f 33e1 	mov.w	r3, #115200	; 0x1c200
   80434:	9302      	str	r3, [sp, #8]
   80436:	f44f 6300 	mov.w	r3, #2048	; 0x800
   8043a:	9303      	str	r3, [sp, #12]
		ioport_port_mask_t mask, ioport_mode_t mode)
{
	Pio *base = arch_ioport_port_to_base(port);

	if (mode & IOPORT_MODE_PULLUP) {
		base->PIO_PUER = mask;
   8043c:	f44f 7380 	mov.w	r3, #256	; 0x100
   80440:	6663      	str	r3, [r4, #100]	; 0x64
#endif

	if (mode & IOPORT_MODE_OPEN_DRAIN) {
		base->PIO_MDER = mask;
	} else {
		base->PIO_MDDR = mask;
   80442:	6563      	str	r3, [r4, #84]	; 0x54
	}

	if (mode & (IOPORT_MODE_GLITCH_FILTER | IOPORT_MODE_DEBOUNCE)) {
		base->PIO_IFER = mask;
	} else {
		base->PIO_IFDR = mask;
   80444:	6263      	str	r3, [r4, #36]	; 0x24
#else
		base->PIO_IFSCER = mask;
#endif
	} else {
#if SAM3U || SAM3XA
		base->PIO_SCIFSR = mask;
   80446:	f8c4 3080 	str.w	r3, [r4, #128]	; 0x80

#if !defined(IOPORT_MODE_MUX_BIT1)
	if (mode & IOPORT_MODE_MUX_BIT0) {
		base->PIO_ABSR |= mask;
	} else {
		base->PIO_ABSR &= ~mask;
   8044a:	6f23      	ldr	r3, [r4, #112]	; 0x70
   8044c:	f423 7380 	bic.w	r3, r3, #256	; 0x100
   80450:	6723      	str	r3, [r4, #112]	; 0x70
	ioport_set_pin_mode(PIO_PA8_IDX, IOPORT_MODE_PULLUP);
	uart_init(UART, &uart0_settings);
   80452:	4807      	ldr	r0, [pc, #28]	; (80470 <setupUART+0x60>)
   80454:	a901      	add	r1, sp, #4
   80456:	4b07      	ldr	r3, [pc, #28]	; (80474 <setupUART+0x64>)
   80458:	4798      	blx	r3
}
   8045a:	b005      	add	sp, #20
   8045c:	bd30      	pop	{r4, r5, pc}
   8045e:	bf00      	nop
   80460:	400e0e00 	.word	0x400e0e00
   80464:	000816e9 	.word	0x000816e9
   80468:	00081af1 	.word	0x00081af1
   8046c:	0501bd00 	.word	0x0501bd00
   80470:	400e0800 	.word	0x400e0800
   80474:	00081d45 	.word	0x00081d45

00080478 <TaskMatLab>:

/************************************
* Sends values to matlab using printf
*************************************/
void TaskMatLab(void *p)
{
   80478:	b5f0      	push	{r4, r5, r6, r7, lr}
   8047a:	b083      	sub	sp, #12

	portTickType xLastWakeTime;
	portTickType xSampleTime;
	xLastWakeTime = xTaskGetTickCount();
   8047c:	4b0c      	ldr	r3, [pc, #48]	; (804b0 <TaskMatLab+0x38>)
   8047e:	4798      	blx	r3
   80480:	9001      	str	r0, [sp, #4]

	while(1)
	{
		xSampleTime = (portTickType)sampleTimeLeft;
		vTaskDelayUntil(&xLastWakeTime, xSampleTime);
   80482:	4f0c      	ldr	r7, [pc, #48]	; (804b4 <TaskMatLab+0x3c>)
		
		printf("%d\n",sendmatlab);
   80484:	4d0c      	ldr	r5, [pc, #48]	; (804b8 <TaskMatLab+0x40>)
   80486:	4e0d      	ldr	r6, [pc, #52]	; (804bc <TaskMatLab+0x44>)
	xLastWakeTime = xTaskGetTickCount();

	while(1)
	{
		xSampleTime = (portTickType)sampleTimeLeft;
		vTaskDelayUntil(&xLastWakeTime, xSampleTime);
   80488:	a801      	add	r0, sp, #4
   8048a:	2132      	movs	r1, #50	; 0x32
   8048c:	47b8      	blx	r7
		
		printf("%d\n",sendmatlab);
   8048e:	4628      	mov	r0, r5
   80490:	6831      	ldr	r1, [r6, #0]
   80492:	4c0b      	ldr	r4, [pc, #44]	; (804c0 <TaskMatLab+0x48>)
   80494:	47a0      	blx	r4
		printf("%d\n",bv);
   80496:	4628      	mov	r0, r5
   80498:	4b0a      	ldr	r3, [pc, #40]	; (804c4 <TaskMatLab+0x4c>)
   8049a:	6819      	ldr	r1, [r3, #0]
   8049c:	47a0      	blx	r4
		printf("%d\n",errortomat);
   8049e:	4628      	mov	r0, r5
   804a0:	4b09      	ldr	r3, [pc, #36]	; (804c8 <TaskMatLab+0x50>)
   804a2:	6819      	ldr	r1, [r3, #0]
   804a4:	47a0      	blx	r4
		printf("%d\n",averagehastighet);
   804a6:	4628      	mov	r0, r5
   804a8:	4b08      	ldr	r3, [pc, #32]	; (804cc <TaskMatLab+0x54>)
   804aa:	6819      	ldr	r1, [r3, #0]
   804ac:	47a0      	blx	r4
   804ae:	e7eb      	b.n	80488 <TaskMatLab+0x10>
   804b0:	00082b59 	.word	0x00082b59
   804b4:	00082da1 	.word	0x00082da1
   804b8:	00086f94 	.word	0x00086f94
   804bc:	20070210 	.word	0x20070210
   804c0:	000839a5 	.word	0x000839a5
   804c4:	20070214 	.word	0x20070214
   804c8:	20070218 	.word	0x20070218
   804cc:	2007020c 	.word	0x2007020c

000804d0 <SendControlSignalLeftPID>:
}

/**********************************
* Sets the variables                            
***********************************/
void SendControlSignalLeftPID(uint32_t signal, float desiredValue,float error,uint32_t averageSensorValue){
   804d0:	b570      	push	{r4, r5, r6, lr}
   804d2:	4616      	mov	r6, r2
   804d4:	461d      	mov	r5, r3
	sendmatlab = signal;
   804d6:	4b0a      	ldr	r3, [pc, #40]	; (80500 <SendControlSignalLeftPID+0x30>)
   804d8:	6018      	str	r0, [r3, #0]
	bv = desiredValue * 1000;	
   804da:	4c0a      	ldr	r4, [pc, #40]	; (80504 <SendControlSignalLeftPID+0x34>)
   804dc:	4608      	mov	r0, r1
   804de:	490a      	ldr	r1, [pc, #40]	; (80508 <SendControlSignalLeftPID+0x38>)
   804e0:	47a0      	blx	r4
   804e2:	4b0a      	ldr	r3, [pc, #40]	; (8050c <SendControlSignalLeftPID+0x3c>)
   804e4:	4798      	blx	r3
   804e6:	4b0a      	ldr	r3, [pc, #40]	; (80510 <SendControlSignalLeftPID+0x40>)
   804e8:	6018      	str	r0, [r3, #0]
	errortomat = error*1000;
   804ea:	4630      	mov	r0, r6
   804ec:	4906      	ldr	r1, [pc, #24]	; (80508 <SendControlSignalLeftPID+0x38>)
   804ee:	47a0      	blx	r4
   804f0:	4b08      	ldr	r3, [pc, #32]	; (80514 <SendControlSignalLeftPID+0x44>)
   804f2:	4798      	blx	r3
   804f4:	4b08      	ldr	r3, [pc, #32]	; (80518 <SendControlSignalLeftPID+0x48>)
   804f6:	6018      	str	r0, [r3, #0]
	averagehastighet = averageSensorValue;
   804f8:	4b08      	ldr	r3, [pc, #32]	; (8051c <SendControlSignalLeftPID+0x4c>)
   804fa:	601d      	str	r5, [r3, #0]
   804fc:	bd70      	pop	{r4, r5, r6, pc}
   804fe:	bf00      	nop
   80500:	20070210 	.word	0x20070210
   80504:	00086b7d 	.word	0x00086b7d
   80508:	447a0000 	.word	0x447a0000
   8050c:	00086f55 	.word	0x00086f55
   80510:	20070214 	.word	0x20070214
   80514:	00086f09 	.word	0x00086f09
   80518:	20070218 	.word	0x20070218
   8051c:	2007020c 	.word	0x2007020c

00080520 <valuesforPWMRight>:


/*********************************************
Function for translating actual speed values to PWM signals.
***********************************************/
void valuesforPWMRight(float finalULeft){
   80520:	b570      	push	{r4, r5, r6, lr}
	
	if(theflagdriveright == 0){
   80522:	4b8f      	ldr	r3, [pc, #572]	; (80760 <valuesforPWMRight+0x240>)
   80524:	681b      	ldr	r3, [r3, #0]
   80526:	2b00      	cmp	r3, #0
   80528:	f040 8146 	bne.w	807b8 <valuesforPWMRight+0x298>
		if(finalULeft <= 0.017){
   8052c:	4b8d      	ldr	r3, [pc, #564]	; (80764 <valuesforPWMRight+0x244>)
   8052e:	4798      	blx	r3
   80530:	4604      	mov	r4, r0
   80532:	460d      	mov	r5, r1
   80534:	a364      	add	r3, pc, #400	; (adr r3, 806c8 <valuesforPWMRight+0x1a8>)
   80536:	e9d3 2300 	ldrd	r2, r3, [r3]
   8053a:	4e8b      	ldr	r6, [pc, #556]	; (80768 <valuesforPWMRight+0x248>)
   8053c:	47b0      	blx	r6
   8053e:	b120      	cbz	r0, 8054a <valuesforPWMRight+0x2a>
			RightWheelPWM(1500);
   80540:	f240 50dc 	movw	r0, #1500	; 0x5dc
   80544:	4b89      	ldr	r3, [pc, #548]	; (8076c <valuesforPWMRight+0x24c>)
   80546:	4798      	blx	r3
   80548:	bd70      	pop	{r4, r5, r6, pc}
		}
		else if(finalULeft >= 0.018 && finalULeft <= 0.029){
   8054a:	4620      	mov	r0, r4
   8054c:	4629      	mov	r1, r5
   8054e:	a360      	add	r3, pc, #384	; (adr r3, 806d0 <valuesforPWMRight+0x1b0>)
   80550:	e9d3 2300 	ldrd	r2, r3, [r3]
   80554:	4e86      	ldr	r6, [pc, #536]	; (80770 <valuesforPWMRight+0x250>)
   80556:	47b0      	blx	r6
   80558:	b160      	cbz	r0, 80574 <valuesforPWMRight+0x54>
   8055a:	4620      	mov	r0, r4
   8055c:	4629      	mov	r1, r5
   8055e:	a35e      	add	r3, pc, #376	; (adr r3, 806d8 <valuesforPWMRight+0x1b8>)
   80560:	e9d3 2300 	ldrd	r2, r3, [r3]
   80564:	4e80      	ldr	r6, [pc, #512]	; (80768 <valuesforPWMRight+0x248>)
   80566:	47b0      	blx	r6
   80568:	b120      	cbz	r0, 80574 <valuesforPWMRight+0x54>
			RightWheelPWM(1390);
   8056a:	f240 506e 	movw	r0, #1390	; 0x56e
   8056e:	4b7f      	ldr	r3, [pc, #508]	; (8076c <valuesforPWMRight+0x24c>)
   80570:	4798      	blx	r3
   80572:	bd70      	pop	{r4, r5, r6, pc}
		}
		else if(finalULeft >= 0.03 && finalULeft <= 0.055){
   80574:	4620      	mov	r0, r4
   80576:	4629      	mov	r1, r5
   80578:	a359      	add	r3, pc, #356	; (adr r3, 806e0 <valuesforPWMRight+0x1c0>)
   8057a:	e9d3 2300 	ldrd	r2, r3, [r3]
   8057e:	4e7c      	ldr	r6, [pc, #496]	; (80770 <valuesforPWMRight+0x250>)
   80580:	47b0      	blx	r6
   80582:	b160      	cbz	r0, 8059e <valuesforPWMRight+0x7e>
   80584:	4620      	mov	r0, r4
   80586:	4629      	mov	r1, r5
   80588:	a357      	add	r3, pc, #348	; (adr r3, 806e8 <valuesforPWMRight+0x1c8>)
   8058a:	e9d3 2300 	ldrd	r2, r3, [r3]
   8058e:	4e76      	ldr	r6, [pc, #472]	; (80768 <valuesforPWMRight+0x248>)
   80590:	47b0      	blx	r6
   80592:	b120      	cbz	r0, 8059e <valuesforPWMRight+0x7e>
			RightWheelPWM(1370);
   80594:	f240 505a 	movw	r0, #1370	; 0x55a
   80598:	4b74      	ldr	r3, [pc, #464]	; (8076c <valuesforPWMRight+0x24c>)
   8059a:	4798      	blx	r3
   8059c:	bd70      	pop	{r4, r5, r6, pc}
		}
		else if(finalULeft >= 0.056 && finalULeft <= 0.085){
   8059e:	4620      	mov	r0, r4
   805a0:	4629      	mov	r1, r5
   805a2:	a353      	add	r3, pc, #332	; (adr r3, 806f0 <valuesforPWMRight+0x1d0>)
   805a4:	e9d3 2300 	ldrd	r2, r3, [r3]
   805a8:	4e71      	ldr	r6, [pc, #452]	; (80770 <valuesforPWMRight+0x250>)
   805aa:	47b0      	blx	r6
   805ac:	b160      	cbz	r0, 805c8 <valuesforPWMRight+0xa8>
   805ae:	4620      	mov	r0, r4
   805b0:	4629      	mov	r1, r5
   805b2:	a351      	add	r3, pc, #324	; (adr r3, 806f8 <valuesforPWMRight+0x1d8>)
   805b4:	e9d3 2300 	ldrd	r2, r3, [r3]
   805b8:	4e6b      	ldr	r6, [pc, #428]	; (80768 <valuesforPWMRight+0x248>)
   805ba:	47b0      	blx	r6
   805bc:	b120      	cbz	r0, 805c8 <valuesforPWMRight+0xa8>
			RightWheelPWM(1350);
   805be:	f240 5046 	movw	r0, #1350	; 0x546
   805c2:	4b6a      	ldr	r3, [pc, #424]	; (8076c <valuesforPWMRight+0x24c>)
   805c4:	4798      	blx	r3
   805c6:	bd70      	pop	{r4, r5, r6, pc}
		}
		else if(finalULeft >= 0.086 && finalULeft <= 0.128){
   805c8:	4620      	mov	r0, r4
   805ca:	4629      	mov	r1, r5
   805cc:	a34c      	add	r3, pc, #304	; (adr r3, 80700 <valuesforPWMRight+0x1e0>)
   805ce:	e9d3 2300 	ldrd	r2, r3, [r3]
   805d2:	4e67      	ldr	r6, [pc, #412]	; (80770 <valuesforPWMRight+0x250>)
   805d4:	47b0      	blx	r6
   805d6:	b160      	cbz	r0, 805f2 <valuesforPWMRight+0xd2>
   805d8:	4620      	mov	r0, r4
   805da:	4629      	mov	r1, r5
   805dc:	a34a      	add	r3, pc, #296	; (adr r3, 80708 <valuesforPWMRight+0x1e8>)
   805de:	e9d3 2300 	ldrd	r2, r3, [r3]
   805e2:	4e61      	ldr	r6, [pc, #388]	; (80768 <valuesforPWMRight+0x248>)
   805e4:	47b0      	blx	r6
   805e6:	b120      	cbz	r0, 805f2 <valuesforPWMRight+0xd2>
			RightWheelPWM(1330);
   805e8:	f240 5032 	movw	r0, #1330	; 0x532
   805ec:	4b5f      	ldr	r3, [pc, #380]	; (8076c <valuesforPWMRight+0x24c>)
   805ee:	4798      	blx	r3
   805f0:	bd70      	pop	{r4, r5, r6, pc}
		}
		else if(finalULeft >= 0.129 && finalULeft <= 0.155){
   805f2:	4620      	mov	r0, r4
   805f4:	4629      	mov	r1, r5
   805f6:	a346      	add	r3, pc, #280	; (adr r3, 80710 <valuesforPWMRight+0x1f0>)
   805f8:	e9d3 2300 	ldrd	r2, r3, [r3]
   805fc:	4e5c      	ldr	r6, [pc, #368]	; (80770 <valuesforPWMRight+0x250>)
   805fe:	47b0      	blx	r6
   80600:	b160      	cbz	r0, 8061c <valuesforPWMRight+0xfc>
   80602:	4620      	mov	r0, r4
   80604:	4629      	mov	r1, r5
   80606:	a344      	add	r3, pc, #272	; (adr r3, 80718 <valuesforPWMRight+0x1f8>)
   80608:	e9d3 2300 	ldrd	r2, r3, [r3]
   8060c:	4e56      	ldr	r6, [pc, #344]	; (80768 <valuesforPWMRight+0x248>)
   8060e:	47b0      	blx	r6
   80610:	b120      	cbz	r0, 8061c <valuesforPWMRight+0xfc>
			RightWheelPWM(1310);
   80612:	f240 501e 	movw	r0, #1310	; 0x51e
   80616:	4b55      	ldr	r3, [pc, #340]	; (8076c <valuesforPWMRight+0x24c>)
   80618:	4798      	blx	r3
   8061a:	bd70      	pop	{r4, r5, r6, pc}
		}
		else if(finalULeft >= 0.156 && finalULeft <= 0.182){
   8061c:	4620      	mov	r0, r4
   8061e:	4629      	mov	r1, r5
   80620:	a33f      	add	r3, pc, #252	; (adr r3, 80720 <valuesforPWMRight+0x200>)
   80622:	e9d3 2300 	ldrd	r2, r3, [r3]
   80626:	4e52      	ldr	r6, [pc, #328]	; (80770 <valuesforPWMRight+0x250>)
   80628:	47b0      	blx	r6
   8062a:	b160      	cbz	r0, 80646 <valuesforPWMRight+0x126>
   8062c:	4620      	mov	r0, r4
   8062e:	4629      	mov	r1, r5
   80630:	a33d      	add	r3, pc, #244	; (adr r3, 80728 <valuesforPWMRight+0x208>)
   80632:	e9d3 2300 	ldrd	r2, r3, [r3]
   80636:	4e4c      	ldr	r6, [pc, #304]	; (80768 <valuesforPWMRight+0x248>)
   80638:	47b0      	blx	r6
   8063a:	b120      	cbz	r0, 80646 <valuesforPWMRight+0x126>
			RightWheelPWM(1290);
   8063c:	f240 500a 	movw	r0, #1290	; 0x50a
   80640:	4b4a      	ldr	r3, [pc, #296]	; (8076c <valuesforPWMRight+0x24c>)
   80642:	4798      	blx	r3
   80644:	bd70      	pop	{r4, r5, r6, pc}
		}
		else if(finalULeft >= 0.183 && finalULeft <= 0.220){
   80646:	4620      	mov	r0, r4
   80648:	4629      	mov	r1, r5
   8064a:	a339      	add	r3, pc, #228	; (adr r3, 80730 <valuesforPWMRight+0x210>)
   8064c:	e9d3 2300 	ldrd	r2, r3, [r3]
   80650:	4e47      	ldr	r6, [pc, #284]	; (80770 <valuesforPWMRight+0x250>)
   80652:	47b0      	blx	r6
   80654:	b160      	cbz	r0, 80670 <valuesforPWMRight+0x150>
   80656:	4620      	mov	r0, r4
   80658:	4629      	mov	r1, r5
   8065a:	a337      	add	r3, pc, #220	; (adr r3, 80738 <valuesforPWMRight+0x218>)
   8065c:	e9d3 2300 	ldrd	r2, r3, [r3]
   80660:	4e41      	ldr	r6, [pc, #260]	; (80768 <valuesforPWMRight+0x248>)
   80662:	47b0      	blx	r6
   80664:	b120      	cbz	r0, 80670 <valuesforPWMRight+0x150>
			RightWheelPWM(1270);
   80666:	f240 40f6 	movw	r0, #1270	; 0x4f6
   8066a:	4b40      	ldr	r3, [pc, #256]	; (8076c <valuesforPWMRight+0x24c>)
   8066c:	4798      	blx	r3
   8066e:	bd70      	pop	{r4, r5, r6, pc}
		}
		else if(finalULeft >= 0.221 && finalULeft <= 0.267){
   80670:	4620      	mov	r0, r4
   80672:	4629      	mov	r1, r5
   80674:	a332      	add	r3, pc, #200	; (adr r3, 80740 <valuesforPWMRight+0x220>)
   80676:	e9d3 2300 	ldrd	r2, r3, [r3]
   8067a:	4e3d      	ldr	r6, [pc, #244]	; (80770 <valuesforPWMRight+0x250>)
   8067c:	47b0      	blx	r6
   8067e:	b160      	cbz	r0, 8069a <valuesforPWMRight+0x17a>
   80680:	4620      	mov	r0, r4
   80682:	4629      	mov	r1, r5
   80684:	a330      	add	r3, pc, #192	; (adr r3, 80748 <valuesforPWMRight+0x228>)
   80686:	e9d3 2300 	ldrd	r2, r3, [r3]
   8068a:	4e37      	ldr	r6, [pc, #220]	; (80768 <valuesforPWMRight+0x248>)
   8068c:	47b0      	blx	r6
   8068e:	b120      	cbz	r0, 8069a <valuesforPWMRight+0x17a>
			RightWheelPWM(1250);
   80690:	f240 40e2 	movw	r0, #1250	; 0x4e2
   80694:	4b35      	ldr	r3, [pc, #212]	; (8076c <valuesforPWMRight+0x24c>)
   80696:	4798      	blx	r3
   80698:	bd70      	pop	{r4, r5, r6, pc}
		}
		else if(finalULeft >= 0.268 && finalULeft <= 0.334){
   8069a:	4620      	mov	r0, r4
   8069c:	4629      	mov	r1, r5
   8069e:	a32c      	add	r3, pc, #176	; (adr r3, 80750 <valuesforPWMRight+0x230>)
   806a0:	e9d3 2300 	ldrd	r2, r3, [r3]
   806a4:	4e32      	ldr	r6, [pc, #200]	; (80770 <valuesforPWMRight+0x250>)
   806a6:	47b0      	blx	r6
   806a8:	2800      	cmp	r0, #0
   806aa:	d063      	beq.n	80774 <valuesforPWMRight+0x254>
   806ac:	4620      	mov	r0, r4
   806ae:	4629      	mov	r1, r5
   806b0:	a329      	add	r3, pc, #164	; (adr r3, 80758 <valuesforPWMRight+0x238>)
   806b2:	e9d3 2300 	ldrd	r2, r3, [r3]
   806b6:	4e2c      	ldr	r6, [pc, #176]	; (80768 <valuesforPWMRight+0x248>)
   806b8:	47b0      	blx	r6
   806ba:	2800      	cmp	r0, #0
   806bc:	d05a      	beq.n	80774 <valuesforPWMRight+0x254>
			RightWheelPWM(1230);
   806be:	f240 40ce 	movw	r0, #1230	; 0x4ce
   806c2:	4b2a      	ldr	r3, [pc, #168]	; (8076c <valuesforPWMRight+0x24c>)
   806c4:	4798      	blx	r3
   806c6:	bd70      	pop	{r4, r5, r6, pc}
   806c8:	b020c49c 	.word	0xb020c49c
   806cc:	3f916872 	.word	0x3f916872
   806d0:	8d4fdf3b 	.word	0x8d4fdf3b
   806d4:	3f926e97 	.word	0x3f926e97
   806d8:	0e560419 	.word	0x0e560419
   806dc:	3f9db22d 	.word	0x3f9db22d
   806e0:	eb851eb8 	.word	0xeb851eb8
   806e4:	3f9eb851 	.word	0x3f9eb851
   806e8:	c28f5c29 	.word	0xc28f5c29
   806ec:	3fac28f5 	.word	0x3fac28f5
   806f0:	3126e979 	.word	0x3126e979
   806f4:	3facac08 	.word	0x3facac08
   806f8:	5c28f5c3 	.word	0x5c28f5c3
   806fc:	3fb5c28f 	.word	0x3fb5c28f
   80700:	9374bc6a 	.word	0x9374bc6a
   80704:	3fb60418 	.word	0x3fb60418
   80708:	d2f1a9fc 	.word	0xd2f1a9fc
   8070c:	3fc0624d 	.word	0x3fc0624d
   80710:	6e978d50 	.word	0x6e978d50
   80714:	3fc08312 	.word	0x3fc08312
   80718:	3d70a3d7 	.word	0x3d70a3d7
   8071c:	3fc3d70a 	.word	0x3fc3d70a
   80720:	d916872b 	.word	0xd916872b
   80724:	3fc3f7ce 	.word	0x3fc3f7ce
   80728:	a7ef9db2 	.word	0xa7ef9db2
   8072c:	3fc74bc6 	.word	0x3fc74bc6
   80730:	43958106 	.word	0x43958106
   80734:	3fc76c8b 	.word	0x3fc76c8b
   80738:	c28f5c29 	.word	0xc28f5c29
   8073c:	3fcc28f5 	.word	0x3fcc28f5
   80740:	5e353f7d 	.word	0x5e353f7d
   80744:	3fcc49ba 	.word	0x3fcc49ba
   80748:	2b020c4a 	.word	0x2b020c4a
   8074c:	3fd11687 	.word	0x3fd11687
   80750:	78d4fdf4 	.word	0x78d4fdf4
   80754:	3fd126e9 	.word	0x3fd126e9
   80758:	89374bc7 	.word	0x89374bc7
   8075c:	3fd56041 	.word	0x3fd56041
   80760:	20070244 	.word	0x20070244
   80764:	00086335 	.word	0x00086335
   80768:	000868d5 	.word	0x000868d5
   8076c:	000803f5 	.word	0x000803f5
   80770:	000868e9 	.word	0x000868e9
		}
		else if(finalULeft >= 0.335 && finalULeft <= 0.372){
   80774:	4620      	mov	r0, r4
   80776:	4629      	mov	r1, r5
   80778:	a313      	add	r3, pc, #76	; (adr r3, 807c8 <valuesforPWMRight+0x2a8>)
   8077a:	e9d3 2300 	ldrd	r2, r3, [r3]
   8077e:	4e16      	ldr	r6, [pc, #88]	; (807d8 <valuesforPWMRight+0x2b8>)
   80780:	47b0      	blx	r6
   80782:	b160      	cbz	r0, 8079e <valuesforPWMRight+0x27e>
   80784:	4620      	mov	r0, r4
   80786:	4629      	mov	r1, r5
   80788:	a311      	add	r3, pc, #68	; (adr r3, 807d0 <valuesforPWMRight+0x2b0>)
   8078a:	e9d3 2300 	ldrd	r2, r3, [r3]
   8078e:	4e13      	ldr	r6, [pc, #76]	; (807dc <valuesforPWMRight+0x2bc>)
   80790:	47b0      	blx	r6
   80792:	b120      	cbz	r0, 8079e <valuesforPWMRight+0x27e>
			RightWheelPWM(1210);
   80794:	f240 40ba 	movw	r0, #1210	; 0x4ba
   80798:	4b11      	ldr	r3, [pc, #68]	; (807e0 <valuesforPWMRight+0x2c0>)
   8079a:	4798      	blx	r3
   8079c:	bd70      	pop	{r4, r5, r6, pc}
		}
		else if(finalULeft > 0.372){
   8079e:	4620      	mov	r0, r4
   807a0:	4629      	mov	r1, r5
   807a2:	a30b      	add	r3, pc, #44	; (adr r3, 807d0 <valuesforPWMRight+0x2b0>)
   807a4:	e9d3 2300 	ldrd	r2, r3, [r3]
   807a8:	4c0e      	ldr	r4, [pc, #56]	; (807e4 <valuesforPWMRight+0x2c4>)
   807aa:	47a0      	blx	r4
   807ac:	b150      	cbz	r0, 807c4 <valuesforPWMRight+0x2a4>
			RightWheelPWM(1200);
   807ae:	f44f 6096 	mov.w	r0, #1200	; 0x4b0
   807b2:	4b0b      	ldr	r3, [pc, #44]	; (807e0 <valuesforPWMRight+0x2c0>)
   807b4:	4798      	blx	r3
   807b6:	bd70      	pop	{r4, r5, r6, pc}
		}
	}else if(theflagdriveright == 1){
   807b8:	2b01      	cmp	r3, #1
   807ba:	d103      	bne.n	807c4 <valuesforPWMRight+0x2a4>
		RightWheelPWM(1700);
   807bc:	f240 60a4 	movw	r0, #1700	; 0x6a4
   807c0:	4b07      	ldr	r3, [pc, #28]	; (807e0 <valuesforPWMRight+0x2c0>)
   807c2:	4798      	blx	r3
   807c4:	bd70      	pop	{r4, r5, r6, pc}
   807c6:	bf00      	nop
   807c8:	d70a3d71 	.word	0xd70a3d71
   807cc:	3fd570a3 	.word	0x3fd570a3
   807d0:	16872b02 	.word	0x16872b02
   807d4:	3fd7ced9 	.word	0x3fd7ced9
   807d8:	000868e9 	.word	0x000868e9
   807dc:	000868d5 	.word	0x000868d5
   807e0:	000803f5 	.word	0x000803f5
   807e4:	000868fd 	.word	0x000868fd

000807e8 <TaskPIDRight>:
for running the wheel with a PID-regulator. It calls on a function containing
the actual PID and another function translating actual speed values to PWM
signals.
**************************************************************************/
void TaskPIDRight(void *p)
{
   807e8:	e92d 4ff0 	stmdb	sp!, {r4, r5, r6, r7, r8, r9, sl, fp, lr}
   807ec:	b083      	sub	sp, #12
	
	uint32_t joystick_y;
	uint32_t joystick_x;
	portTickType xLastWakeTime; //Last time the task was active.
	portTickType xSampleTime;
	xLastWakeTime = xTaskGetTickCount();
   807ee:	4b41      	ldr	r3, [pc, #260]	; (808f4 <TaskPIDRight+0x10c>)
   807f0:	4798      	blx	r3
   807f2:	9001      	str	r0, [sp, #4]
	int averageSensorValue = 0;
   807f4:	2500      	movs	r5, #0
	while(1){
		xSampleTime = (portTickType)sampleTimeRight;
		vTaskDelayUntil(&xLastWakeTime, xSampleTime); //Wait for the next cycle the task will be active.
   807f6:	a801      	add	r0, sp, #4
   807f8:	2132      	movs	r1, #50	; 0x32
   807fa:	4b3f      	ldr	r3, [pc, #252]	; (808f8 <TaskPIDRight+0x110>)
   807fc:	4798      	blx	r3
		
		int32_t temp;
		
		if(desiredValueRight != 0){
   807fe:	4b3f      	ldr	r3, [pc, #252]	; (808fc <TaskPIDRight+0x114>)
   80800:	f8d3 9000 	ldr.w	r9, [r3]
   80804:	4648      	mov	r0, r9
   80806:	2100      	movs	r1, #0
   80808:	4b3d      	ldr	r3, [pc, #244]	; (80900 <TaskPIDRight+0x118>)
   8080a:	4798      	blx	r3
   8080c:	2800      	cmp	r0, #0
   8080e:	d15e      	bne.n	808ce <TaskPIDRight+0xe6>
			filterRight[POSITIONS-1] = hastighetRightWheel;
   80810:	f8df b100 	ldr.w	fp, [pc, #256]	; 80914 <TaskPIDRight+0x12c>
   80814:	4b3b      	ldr	r3, [pc, #236]	; (80904 <TaskPIDRight+0x11c>)
   80816:	6818      	ldr	r0, [r3, #0]
   80818:	4b3b      	ldr	r3, [pc, #236]	; (80908 <TaskPIDRight+0x120>)
   8081a:	4798      	blx	r3
   8081c:	f8cb 0014 	str.w	r0, [fp, #20]
   80820:	f1ab 0404 	sub.w	r4, fp, #4
   80824:	f10b 0614 	add.w	r6, fp, #20
			
			
			for(int i = 0; i<POSITIONS; i++)
			{
				averageSensorValue =  (averageSensorValue + filterRight[i]);
   80828:	f8df a124 	ldr.w	sl, [pc, #292]	; 80950 <TaskPIDRight+0x168>
   8082c:	f8df 8100 	ldr.w	r8, [pc, #256]	; 80930 <TaskPIDRight+0x148>
   80830:	4f36      	ldr	r7, [pc, #216]	; (8090c <TaskPIDRight+0x124>)
   80832:	4628      	mov	r0, r5
   80834:	47d0      	blx	sl
   80836:	f854 1f04 	ldr.w	r1, [r4, #4]!
   8083a:	47c0      	blx	r8
   8083c:	47b8      	blx	r7
		
		if(desiredValueRight != 0){
			filterRight[POSITIONS-1] = hastighetRightWheel;
			
			
			for(int i = 0; i<POSITIONS; i++)
   8083e:	42b4      	cmp	r4, r6
   80840:	d1f8      	bne.n	80834 <TaskPIDRight+0x4c>
			{
				averageSensorValue =  (averageSensorValue + filterRight[i]);
			}
			
			averageSensorValue =  (averageSensorValue / POSITIONS);
   80842:	4a33      	ldr	r2, [pc, #204]	; (80910 <TaskPIDRight+0x128>)
   80844:	fb82 2300 	smull	r2, r3, r2, r0
   80848:	eba3 75e0 	sub.w	r5, r3, r0, asr #31
   8084c:	465a      	mov	r2, fp
			
			for(int i = 0; i<POSITIONS-1; i++)
			{
				filterRight[i] = filterRight[i+1];
   8084e:	6853      	ldr	r3, [r2, #4]
   80850:	f842 3b04 	str.w	r3, [r2], #4
				averageSensorValue =  (averageSensorValue + filterRight[i]);
			}
			
			averageSensorValue =  (averageSensorValue / POSITIONS);
			
			for(int i = 0; i<POSITIONS-1; i++)
   80854:	42b2      	cmp	r2, r6
   80856:	d1fa      	bne.n	8084e <TaskPIDRight+0x66>
			{
				filterRight[i] = filterRight[i+1];
			}

			filterRight[POSITIONS-1] = 0;
   80858:	4b2e      	ldr	r3, [pc, #184]	; (80914 <TaskPIDRight+0x12c>)
   8085a:	2200      	movs	r2, #0
   8085c:	615a      	str	r2, [r3, #20]
			currentVRight = averageSensorValue;
   8085e:	f8df a0f0 	ldr.w	sl, [pc, #240]	; 80950 <TaskPIDRight+0x168>
   80862:	4628      	mov	r0, r5
   80864:	47d0      	blx	sl
   80866:	4b2c      	ldr	r3, [pc, #176]	; (80918 <TaskPIDRight+0x130>)
   80868:	6018      	str	r0, [r3, #0]
			errorRight =  (float) ((float)desiredValueRight - (float)currentVRight/1000);
   8086a:	492c      	ldr	r1, [pc, #176]	; (8091c <TaskPIDRight+0x134>)
   8086c:	4b2c      	ldr	r3, [pc, #176]	; (80920 <TaskPIDRight+0x138>)
   8086e:	4798      	blx	r3
   80870:	4601      	mov	r1, r0
   80872:	4e2c      	ldr	r6, [pc, #176]	; (80924 <TaskPIDRight+0x13c>)
   80874:	4648      	mov	r0, r9
   80876:	47b0      	blx	r6
   80878:	4604      	mov	r4, r0
   8087a:	4b2b      	ldr	r3, [pc, #172]	; (80928 <TaskPIDRight+0x140>)
   8087c:	6018      	str	r0, [r3, #0]

			prevErrorRight = errorRight;
   8087e:	4b2b      	ldr	r3, [pc, #172]	; (8092c <TaskPIDRight+0x144>)
   80880:	6018      	str	r0, [r3, #0]
			wRight = wRight + errorRight;
   80882:	f8df 80d0 	ldr.w	r8, [pc, #208]	; 80954 <TaskPIDRight+0x16c>
   80886:	4f2a      	ldr	r7, [pc, #168]	; (80930 <TaskPIDRight+0x148>)
   80888:	f8d8 1000 	ldr.w	r1, [r8]
   8088c:	47b8      	blx	r7
   8088e:	4681      	mov	r9, r0
   80890:	f8c8 0000 	str.w	r0, [r8]
	float derivingPart;
	float signal;
	
	proportionalPart = (float)currErr;
	integralPart = (float)(sumErr * (sampTime/k_i));
	derivingPart = ((float)currErr - (float)prevErr) * (float)(k_d / sampTime);
   80894:	4620      	mov	r0, r4
   80896:	4621      	mov	r1, r4
   80898:	47b0      	blx	r6
   8089a:	4e26      	ldr	r6, [pc, #152]	; (80934 <TaskPIDRight+0x14c>)
   8089c:	4926      	ldr	r1, [pc, #152]	; (80938 <TaskPIDRight+0x150>)
   8089e:	47b0      	blx	r6
   808a0:	4683      	mov	fp, r0
			errorRight =  (float) ((float)desiredValueRight - (float)currentVRight/1000);

			prevErrorRight = errorRight;
			wRight = wRight + errorRight;

			finalURight = (float)CalcSignalRight(samplingTimeRight, kpRight, kiRight, kdRight, errorRight, prevErrorRight, wRight);
   808a2:	f8df 8068 	ldr.w	r8, [pc, #104]	; 8090c <TaskPIDRight+0x124>
   808a6:	4648      	mov	r0, r9
   808a8:	47c0      	blx	r8
	float integralPart;
	float derivingPart;
	float signal;
	
	proportionalPart = (float)currErr;
	integralPart = (float)(sumErr * (sampTime/k_i));
   808aa:	47d0      	blx	sl
   808ac:	4923      	ldr	r1, [pc, #140]	; (8093c <TaskPIDRight+0x154>)
   808ae:	47b0      	blx	r6
   808b0:	4601      	mov	r1, r0
	derivingPart = ((float)currErr - (float)prevErr) * (float)(k_d / sampTime);
	signal = (float)k_p * ((float)(proportionalPart + integralPart + derivingPart));
   808b2:	4620      	mov	r0, r4
   808b4:	47b8      	blx	r7
   808b6:	4601      	mov	r1, r0
   808b8:	4658      	mov	r0, fp
   808ba:	47b8      	blx	r7
   808bc:	4920      	ldr	r1, [pc, #128]	; (80940 <TaskPIDRight+0x158>)
   808be:	47b0      	blx	r6
			errorRight =  (float) ((float)desiredValueRight - (float)currentVRight/1000);

			prevErrorRight = errorRight;
			wRight = wRight + errorRight;

			finalURight = (float)CalcSignalRight(samplingTimeRight, kpRight, kiRight, kdRight, errorRight, prevErrorRight, wRight);
   808c0:	4b20      	ldr	r3, [pc, #128]	; (80944 <TaskPIDRight+0x15c>)
   808c2:	6018      	str	r0, [r3, #0]
			temp = finalURight*1000;
   808c4:	4915      	ldr	r1, [pc, #84]	; (8091c <TaskPIDRight+0x134>)
   808c6:	47b0      	blx	r6
   808c8:	47c0      	blx	r8
   808ca:	4604      	mov	r4, r0
   808cc:	e004      	b.n	808d8 <TaskPIDRight+0xf0>
		}
		else{
			finalURight = 0.0;
   808ce:	4b1d      	ldr	r3, [pc, #116]	; (80944 <TaskPIDRight+0x15c>)
   808d0:	2200      	movs	r2, #0
   808d2:	601a      	str	r2, [r3, #0]
			averageSensorValue = 0;
			temp = 0;
   808d4:	2400      	movs	r4, #0
			finalURight = (float)CalcSignalRight(samplingTimeRight, kpRight, kiRight, kdRight, errorRight, prevErrorRight, wRight);
			temp = finalURight*1000;
		}
		else{
			finalURight = 0.0;
			averageSensorValue = 0;
   808d6:	4625      	mov	r5, r4
			temp = 0;
			
		}
		//printf("%d\n",temp);
		valuesforPWMRight(finalURight);
   808d8:	4b1a      	ldr	r3, [pc, #104]	; (80944 <TaskPIDRight+0x15c>)
   808da:	6818      	ldr	r0, [r3, #0]
   808dc:	4b1a      	ldr	r3, [pc, #104]	; (80948 <TaskPIDRight+0x160>)
   808de:	4798      	blx	r3
		SendControlSignalLeftPID(temp, desiredValueRight,errorRight,averageSensorValue);
   808e0:	4620      	mov	r0, r4
   808e2:	4b06      	ldr	r3, [pc, #24]	; (808fc <TaskPIDRight+0x114>)
   808e4:	6819      	ldr	r1, [r3, #0]
   808e6:	4b10      	ldr	r3, [pc, #64]	; (80928 <TaskPIDRight+0x140>)
   808e8:	681a      	ldr	r2, [r3, #0]
   808ea:	462b      	mov	r3, r5
   808ec:	4c17      	ldr	r4, [pc, #92]	; (8094c <TaskPIDRight+0x164>)
   808ee:	47a0      	blx	r4
		
	}
   808f0:	e781      	b.n	807f6 <TaskPIDRight+0xe>
   808f2:	bf00      	nop
   808f4:	00082b59 	.word	0x00082b59
   808f8:	00082da1 	.word	0x00082da1
   808fc:	20070228 	.word	0x20070228
   80900:	00086ea5 	.word	0x00086ea5
   80904:	20078594 	.word	0x20078594
   80908:	00086acd 	.word	0x00086acd
   8090c:	00086f09 	.word	0x00086f09
   80910:	2aaaaaab 	.word	0x2aaaaaab
   80914:	2007022c 	.word	0x2007022c
   80918:	20070220 	.word	0x20070220
   8091c:	447a0000 	.word	0x447a0000
   80920:	00086ce5 	.word	0x00086ce5
   80924:	00086969 	.word	0x00086969
   80928:	20070248 	.word	0x20070248
   8092c:	2007021c 	.word	0x2007021c
   80930:	0008696d 	.word	0x0008696d
   80934:	00086b7d 	.word	0x00086b7d
   80938:	bf0833c6 	.word	0xbf0833c6
   8093c:	3c5d39dd 	.word	0x3c5d39dd
   80940:	3faed917 	.word	0x3faed917
   80944:	2007024c 	.word	0x2007024c
   80948:	00080521 	.word	0x00080521
   8094c:	000804d1 	.word	0x000804d1
   80950:	00086ad5 	.word	0x00086ad5
   80954:	20070224 	.word	0x20070224

00080958 <SetPointRightWheel>:

/*
* Sets value for drive forward and backwards and the setpoint for PID-regulator
*/
void SetPointRightWheel(float setPoint,uint32_t drive){
	desiredValueRight = setPoint;
   80958:	4b02      	ldr	r3, [pc, #8]	; (80964 <SetPointRightWheel+0xc>)
   8095a:	6018      	str	r0, [r3, #0]
	theflagdriveright = drive;
   8095c:	4b02      	ldr	r3, [pc, #8]	; (80968 <SetPointRightWheel+0x10>)
   8095e:	6019      	str	r1, [r3, #0]
   80960:	4770      	bx	lr
   80962:	bf00      	nop
   80964:	20070228 	.word	0x20070228
   80968:	20070244 	.word	0x20070244

0008096c <tc_init>:
   8096c:	b410      	push	{r4}
   8096e:	0189      	lsls	r1, r1, #6
   80970:	1843      	adds	r3, r0, r1
   80972:	2402      	movs	r4, #2
   80974:	5044      	str	r4, [r0, r1]
   80976:	f04f 31ff 	mov.w	r1, #4294967295
   8097a:	6299      	str	r1, [r3, #40]	; 0x28
   8097c:	6a19      	ldr	r1, [r3, #32]
   8097e:	605a      	str	r2, [r3, #4]
   80980:	f85d 4b04 	ldr.w	r4, [sp], #4
   80984:	4770      	bx	lr
   80986:	bf00      	nop

00080988 <tc_set_block_mode>:
   80988:	f8c0 10c4 	str.w	r1, [r0, #196]	; 0xc4
   8098c:	4770      	bx	lr
   8098e:	bf00      	nop

00080990 <tc_start>:
   80990:	0189      	lsls	r1, r1, #6
   80992:	2305      	movs	r3, #5
   80994:	5043      	str	r3, [r0, r1]
   80996:	4770      	bx	lr

00080998 <tc_stop>:
   80998:	0189      	lsls	r1, r1, #6
   8099a:	2302      	movs	r3, #2
   8099c:	5043      	str	r3, [r0, r1]
   8099e:	4770      	bx	lr

000809a0 <tc_read_cv>:
   809a0:	eb00 1181 	add.w	r1, r0, r1, lsl #6
   809a4:	6908      	ldr	r0, [r1, #16]
   809a6:	4770      	bx	lr

000809a8 <delayInit>:
   809a8:	b510      	push	{r4, lr}
   809aa:	2000      	movs	r0, #0
   809ac:	4b09      	ldr	r3, [pc, #36]	; (809d4 <delayInit+0x2c>)
   809ae:	4798      	blx	r3
   809b0:	201f      	movs	r0, #31
   809b2:	4b09      	ldr	r3, [pc, #36]	; (809d8 <delayInit+0x30>)
   809b4:	4798      	blx	r3
   809b6:	4c09      	ldr	r4, [pc, #36]	; (809dc <delayInit+0x34>)
   809b8:	4620      	mov	r0, r4
   809ba:	2101      	movs	r1, #1
   809bc:	2200      	movs	r2, #0
   809be:	4b08      	ldr	r3, [pc, #32]	; (809e0 <delayInit+0x38>)
   809c0:	4798      	blx	r3
   809c2:	4620      	mov	r0, r4
   809c4:	2100      	movs	r1, #0
   809c6:	4b07      	ldr	r3, [pc, #28]	; (809e4 <delayInit+0x3c>)
   809c8:	4798      	blx	r3
   809ca:	4620      	mov	r0, r4
   809cc:	2101      	movs	r1, #1
   809ce:	4b06      	ldr	r3, [pc, #24]	; (809e8 <delayInit+0x40>)
   809d0:	4798      	blx	r3
   809d2:	bd10      	pop	{r4, pc}
   809d4:	00081b49 	.word	0x00081b49
   809d8:	00081af1 	.word	0x00081af1
   809dc:	40084000 	.word	0x40084000
   809e0:	0008096d 	.word	0x0008096d
   809e4:	00080989 	.word	0x00080989
   809e8:	00080999 	.word	0x00080999

000809ec <TaskCalculateLeftWheel>:

/**********************************************
* Calculate the velocity for left wheel.
***********************************************/
void TaskCalculateLeftWheel(void *p)
{
   809ec:	e92d 4ff0 	stmdb	sp!, {r4, r5, r6, r7, r8, r9, sl, fp, lr}
   809f0:	b083      	sub	sp, #12

	portTickType xLastWakeTime; 
	portTickType xSampleTime;
	xLastWakeTime = xTaskGetTickCount();
   809f2:	4b26      	ldr	r3, [pc, #152]	; (80a8c <TaskCalculateLeftWheel+0xa0>)
   809f4:	4798      	blx	r3
   809f6:	9001      	str	r0, [sp, #4]
	{	
		xSampleTime = (portTickType)sampleTimeLeft;
		vTaskDelayUntil(&xLastWakeTime, xSampleTime);
	
		if(counterLeftWheel != 0){
		distanceLeftWheel = (((float)( (float)counterLeftWheel/36) * (float) omkretsHjul)*1000);
   809f8:	f8df 80d0 	ldr.w	r8, [pc, #208]	; 80acc <TaskCalculateLeftWheel+0xe0>
   809fc:	4f24      	ldr	r7, [pc, #144]	; (80a90 <TaskCalculateLeftWheel+0xa4>)
		sekLeftWheel += ((float)timerLeftWheel/(float)hzforcpu) * 1000;	
		}

		if((distanceLeftWheel > 0) && (sekLeftWheel > 0)){
   809fe:	2600      	movs	r6, #0
	xLastWakeTime = xTaskGetTickCount();
	
	while(1)
	{	
		xSampleTime = (portTickType)sampleTimeLeft;
		vTaskDelayUntil(&xLastWakeTime, xSampleTime);
   80a00:	a801      	add	r0, sp, #4
   80a02:	2106      	movs	r1, #6
   80a04:	4b23      	ldr	r3, [pc, #140]	; (80a94 <TaskCalculateLeftWheel+0xa8>)
   80a06:	4798      	blx	r3
	
		if(counterLeftWheel != 0){
   80a08:	4b23      	ldr	r3, [pc, #140]	; (80a98 <TaskCalculateLeftWheel+0xac>)
   80a0a:	6818      	ldr	r0, [r3, #0]
   80a0c:	b308      	cbz	r0, 80a52 <TaskCalculateLeftWheel+0x66>
		distanceLeftWheel = (((float)( (float)counterLeftWheel/36) * (float) omkretsHjul)*1000);
   80a0e:	4d23      	ldr	r5, [pc, #140]	; (80a9c <TaskCalculateLeftWheel+0xb0>)
   80a10:	47a8      	blx	r5
   80a12:	f8df a0ac 	ldr.w	sl, [pc, #172]	; 80ac0 <TaskCalculateLeftWheel+0xd4>
   80a16:	4641      	mov	r1, r8
   80a18:	47d0      	blx	sl
   80a1a:	4c21      	ldr	r4, [pc, #132]	; (80aa0 <TaskCalculateLeftWheel+0xb4>)
   80a1c:	4b21      	ldr	r3, [pc, #132]	; (80aa4 <TaskCalculateLeftWheel+0xb8>)
   80a1e:	6819      	ldr	r1, [r3, #0]
   80a20:	47a0      	blx	r4
   80a22:	4639      	mov	r1, r7
   80a24:	47a0      	blx	r4
   80a26:	4b20      	ldr	r3, [pc, #128]	; (80aa8 <TaskCalculateLeftWheel+0xbc>)
   80a28:	6018      	str	r0, [r3, #0]
		sekLeftWheel += ((float)timerLeftWheel/(float)hzforcpu) * 1000;	
   80a2a:	f8df 9090 	ldr.w	r9, [pc, #144]	; 80abc <TaskCalculateLeftWheel+0xd0>
   80a2e:	4b1f      	ldr	r3, [pc, #124]	; (80aac <TaskCalculateLeftWheel+0xc0>)
   80a30:	6818      	ldr	r0, [r3, #0]
   80a32:	47a8      	blx	r5
   80a34:	4683      	mov	fp, r0
   80a36:	4b1e      	ldr	r3, [pc, #120]	; (80ab0 <TaskCalculateLeftWheel+0xc4>)
   80a38:	6818      	ldr	r0, [r3, #0]
   80a3a:	47a8      	blx	r5
   80a3c:	4601      	mov	r1, r0
   80a3e:	4658      	mov	r0, fp
   80a40:	47d0      	blx	sl
   80a42:	4639      	mov	r1, r7
   80a44:	47a0      	blx	r4
   80a46:	f8d9 1000 	ldr.w	r1, [r9]
   80a4a:	4b1a      	ldr	r3, [pc, #104]	; (80ab4 <TaskCalculateLeftWheel+0xc8>)
   80a4c:	4798      	blx	r3
   80a4e:	f8c9 0000 	str.w	r0, [r9]
		}

		if((distanceLeftWheel > 0) && (sekLeftWheel > 0)){
   80a52:	4b15      	ldr	r3, [pc, #84]	; (80aa8 <TaskCalculateLeftWheel+0xbc>)
   80a54:	681c      	ldr	r4, [r3, #0]
   80a56:	4620      	mov	r0, r4
   80a58:	4631      	mov	r1, r6
   80a5a:	4b17      	ldr	r3, [pc, #92]	; (80ab8 <TaskCalculateLeftWheel+0xcc>)
   80a5c:	4798      	blx	r3
   80a5e:	2800      	cmp	r0, #0
   80a60:	d0ce      	beq.n	80a00 <TaskCalculateLeftWheel+0x14>
   80a62:	4b16      	ldr	r3, [pc, #88]	; (80abc <TaskCalculateLeftWheel+0xd0>)
   80a64:	681d      	ldr	r5, [r3, #0]
   80a66:	4628      	mov	r0, r5
   80a68:	4631      	mov	r1, r6
   80a6a:	4b13      	ldr	r3, [pc, #76]	; (80ab8 <TaskCalculateLeftWheel+0xcc>)
   80a6c:	4798      	blx	r3
   80a6e:	2800      	cmp	r0, #0
   80a70:	d0c6      	beq.n	80a00 <TaskCalculateLeftWheel+0x14>
			hastighetLeftWheel = (((float)((float)distanceLeftWheel/(float)sekLeftWheel)*1000));
   80a72:	4620      	mov	r0, r4
   80a74:	4629      	mov	r1, r5
   80a76:	4b12      	ldr	r3, [pc, #72]	; (80ac0 <TaskCalculateLeftWheel+0xd4>)
   80a78:	4798      	blx	r3
   80a7a:	4639      	mov	r1, r7
   80a7c:	4b08      	ldr	r3, [pc, #32]	; (80aa0 <TaskCalculateLeftWheel+0xb4>)
   80a7e:	4798      	blx	r3
   80a80:	4b10      	ldr	r3, [pc, #64]	; (80ac4 <TaskCalculateLeftWheel+0xd8>)
   80a82:	4798      	blx	r3
   80a84:	4b10      	ldr	r3, [pc, #64]	; (80ac8 <TaskCalculateLeftWheel+0xdc>)
   80a86:	6018      	str	r0, [r3, #0]
   80a88:	e7ba      	b.n	80a00 <TaskCalculateLeftWheel+0x14>
   80a8a:	bf00      	nop
   80a8c:	00082b59 	.word	0x00082b59
   80a90:	447a0000 	.word	0x447a0000
   80a94:	00082da1 	.word	0x00082da1
   80a98:	200785a0 	.word	0x200785a0
   80a9c:	00086acd 	.word	0x00086acd
   80aa0:	00086b7d 	.word	0x00086b7d
   80aa4:	2007012c 	.word	0x2007012c
   80aa8:	20070250 	.word	0x20070250
   80aac:	20078598 	.word	0x20078598
   80ab0:	20070130 	.word	0x20070130
   80ab4:	0008696d 	.word	0x0008696d
   80ab8:	00086ef5 	.word	0x00086ef5
   80abc:	2007859c 	.word	0x2007859c
   80ac0:	00086ce5 	.word	0x00086ce5
   80ac4:	00086f09 	.word	0x00086f09
   80ac8:	200785b8 	.word	0x200785b8
   80acc:	42100000 	.word	0x42100000

00080ad0 <TaskCalculateRightWheel>:

/************************************************
* Calculate velocity for right wheel
*************************************************/
void TaskCalculateRightWheel(void *p)
{
   80ad0:	e92d 4ff0 	stmdb	sp!, {r4, r5, r6, r7, r8, r9, sl, fp, lr}
   80ad4:	b083      	sub	sp, #12

	portTickType xLastWakeTime;
	portTickType xSampleTime;
	xLastWakeTime = xTaskGetTickCount();
   80ad6:	4b26      	ldr	r3, [pc, #152]	; (80b70 <TaskCalculateRightWheel+0xa0>)
   80ad8:	4798      	blx	r3
   80ada:	9001      	str	r0, [sp, #4]
		
		xSampleTime = (portTickType)sampleTimeRight;
		vTaskDelayUntil(&xLastWakeTime, xSampleTime);

		if(counterRightWheel != 0){
			distanceRightWheel = (float) ((((float) counterRightWheel/36) * (float) omkretsHjulRight)*1000);
   80adc:	f8df 80d0 	ldr.w	r8, [pc, #208]	; 80bb0 <TaskCalculateRightWheel+0xe0>
   80ae0:	4f24      	ldr	r7, [pc, #144]	; (80b74 <TaskCalculateRightWheel+0xa4>)
			sekRightWheel += ((float)timerRightWheel/(float)hzforcpuRight) * 1000;
		}

		if((distanceRightWheel > 0) && (sekRightWheel > 0)){
   80ae2:	2600      	movs	r6, #0

	while(1)
	{
		
		xSampleTime = (portTickType)sampleTimeRight;
		vTaskDelayUntil(&xLastWakeTime, xSampleTime);
   80ae4:	a801      	add	r0, sp, #4
   80ae6:	2106      	movs	r1, #6
   80ae8:	4b23      	ldr	r3, [pc, #140]	; (80b78 <TaskCalculateRightWheel+0xa8>)
   80aea:	4798      	blx	r3

		if(counterRightWheel != 0){
   80aec:	4b23      	ldr	r3, [pc, #140]	; (80b7c <TaskCalculateRightWheel+0xac>)
   80aee:	6818      	ldr	r0, [r3, #0]
   80af0:	b308      	cbz	r0, 80b36 <TaskCalculateRightWheel+0x66>
			distanceRightWheel = (float) ((((float) counterRightWheel/36) * (float) omkretsHjulRight)*1000);
   80af2:	4d23      	ldr	r5, [pc, #140]	; (80b80 <TaskCalculateRightWheel+0xb0>)
   80af4:	47a8      	blx	r5
   80af6:	f8df a0ac 	ldr.w	sl, [pc, #172]	; 80ba4 <TaskCalculateRightWheel+0xd4>
   80afa:	4641      	mov	r1, r8
   80afc:	47d0      	blx	sl
   80afe:	4c21      	ldr	r4, [pc, #132]	; (80b84 <TaskCalculateRightWheel+0xb4>)
   80b00:	4b21      	ldr	r3, [pc, #132]	; (80b88 <TaskCalculateRightWheel+0xb8>)
   80b02:	6819      	ldr	r1, [r3, #0]
   80b04:	47a0      	blx	r4
   80b06:	4639      	mov	r1, r7
   80b08:	47a0      	blx	r4
   80b0a:	4b20      	ldr	r3, [pc, #128]	; (80b8c <TaskCalculateRightWheel+0xbc>)
   80b0c:	6018      	str	r0, [r3, #0]
			sekRightWheel += ((float)timerRightWheel/(float)hzforcpuRight) * 1000;
   80b0e:	f8df 9090 	ldr.w	r9, [pc, #144]	; 80ba0 <TaskCalculateRightWheel+0xd0>
   80b12:	4b1f      	ldr	r3, [pc, #124]	; (80b90 <TaskCalculateRightWheel+0xc0>)
   80b14:	6818      	ldr	r0, [r3, #0]
   80b16:	47a8      	blx	r5
   80b18:	4683      	mov	fp, r0
   80b1a:	4b1e      	ldr	r3, [pc, #120]	; (80b94 <TaskCalculateRightWheel+0xc4>)
   80b1c:	6818      	ldr	r0, [r3, #0]
   80b1e:	47a8      	blx	r5
   80b20:	4601      	mov	r1, r0
   80b22:	4658      	mov	r0, fp
   80b24:	47d0      	blx	sl
   80b26:	4639      	mov	r1, r7
   80b28:	47a0      	blx	r4
   80b2a:	f8d9 1000 	ldr.w	r1, [r9]
   80b2e:	4b1a      	ldr	r3, [pc, #104]	; (80b98 <TaskCalculateRightWheel+0xc8>)
   80b30:	4798      	blx	r3
   80b32:	f8c9 0000 	str.w	r0, [r9]
		}

		if((distanceRightWheel > 0) && (sekRightWheel > 0)){
   80b36:	4b15      	ldr	r3, [pc, #84]	; (80b8c <TaskCalculateRightWheel+0xbc>)
   80b38:	681c      	ldr	r4, [r3, #0]
   80b3a:	4620      	mov	r0, r4
   80b3c:	4631      	mov	r1, r6
   80b3e:	4b17      	ldr	r3, [pc, #92]	; (80b9c <TaskCalculateRightWheel+0xcc>)
   80b40:	4798      	blx	r3
   80b42:	2800      	cmp	r0, #0
   80b44:	d0ce      	beq.n	80ae4 <TaskCalculateRightWheel+0x14>
   80b46:	4b16      	ldr	r3, [pc, #88]	; (80ba0 <TaskCalculateRightWheel+0xd0>)
   80b48:	681d      	ldr	r5, [r3, #0]
   80b4a:	4628      	mov	r0, r5
   80b4c:	4631      	mov	r1, r6
   80b4e:	4b13      	ldr	r3, [pc, #76]	; (80b9c <TaskCalculateRightWheel+0xcc>)
   80b50:	4798      	blx	r3
   80b52:	2800      	cmp	r0, #0
   80b54:	d0c6      	beq.n	80ae4 <TaskCalculateRightWheel+0x14>
			hastighetRightWheel = (((float)((float)distanceRightWheel/(float)sekRightWheel)*1000));
   80b56:	4620      	mov	r0, r4
   80b58:	4629      	mov	r1, r5
   80b5a:	4b12      	ldr	r3, [pc, #72]	; (80ba4 <TaskCalculateRightWheel+0xd4>)
   80b5c:	4798      	blx	r3
   80b5e:	4639      	mov	r1, r7
   80b60:	4b08      	ldr	r3, [pc, #32]	; (80b84 <TaskCalculateRightWheel+0xb4>)
   80b62:	4798      	blx	r3
   80b64:	4b10      	ldr	r3, [pc, #64]	; (80ba8 <TaskCalculateRightWheel+0xd8>)
   80b66:	4798      	blx	r3
   80b68:	4b10      	ldr	r3, [pc, #64]	; (80bac <TaskCalculateRightWheel+0xdc>)
   80b6a:	6018      	str	r0, [r3, #0]
   80b6c:	e7ba      	b.n	80ae4 <TaskCalculateRightWheel+0x14>
   80b6e:	bf00      	nop
   80b70:	00082b59 	.word	0x00082b59
   80b74:	447a0000 	.word	0x447a0000
   80b78:	00082da1 	.word	0x00082da1
   80b7c:	200785a4 	.word	0x200785a4
   80b80:	00086acd 	.word	0x00086acd
   80b84:	00086b7d 	.word	0x00086b7d
   80b88:	20070134 	.word	0x20070134
   80b8c:	20070254 	.word	0x20070254
   80b90:	200785ac 	.word	0x200785ac
   80b94:	20070138 	.word	0x20070138
   80b98:	0008696d 	.word	0x0008696d
   80b9c:	00086ef5 	.word	0x00086ef5
   80ba0:	200785a8 	.word	0x200785a8
   80ba4:	00086ce5 	.word	0x00086ce5
   80ba8:	00086f09 	.word	0x00086f09
   80bac:	20078594 	.word	0x20078594
   80bb0:	42100000 	.word	0x42100000

00080bb4 <TaskDriveLeftRight>:

/**************************************************************************
* Task for driving left or right.
**************************************************************************/
void TaskDriveLeftRight(void *p)
{
   80bb4:	e92d 4ff0 	stmdb	sp!, {r4, r5, r6, r7, r8, r9, sl, fp, lr}
   80bb8:	b083      	sub	sp, #12
	portTickType xLastWakeTime; //Last time the task was active.
	portTickType xSampleTime;
	
	xLastWakeTime = xTaskGetTickCount();
   80bba:	4ba6      	ldr	r3, [pc, #664]	; (80e54 <TaskDriveLeftRight+0x2a0>)
   80bbc:	4798      	blx	r3
   80bbe:	9001      	str	r0, [sp, #4]
			SetPointRightWheel(0.30,driveflag);
		}
		else if(((joystick_x >= 0) && (joystick_x < 90)) && ((joystick_y > 610) && (joystick_y < 990))) // 90% vnster
		{
			driveflag = 0;
			SetPointLeftWheel(0.2,driveflag);
   80bc0:	4ca5      	ldr	r4, [pc, #660]	; (80e58 <TaskDriveLeftRight+0x2a4>)
			SetPointRightWheel(0.32,driveflag);	
   80bc2:	f8df 92c4 	ldr.w	r9, [pc, #708]	; 80e88 <TaskDriveLeftRight+0x2d4>
		}
		else if(((joystick_x >= 0) && (joystick_x < 90)) && ((joystick_y > 1000) && (joystick_y < 1330))) // 75% vnster
		{
			driveflag = 0;
			SetPointLeftWheel(0.2,driveflag);
			SetPointRightWheel(0.30,driveflag);
   80bc6:	f8df 82c4 	ldr.w	r8, [pc, #708]	; 80e8c <TaskDriveLeftRight+0x2d8>
		}
		else if(((joystick_x > 100) && (joystick_x < 290)) && ((joystick_y > 1340) && (joystick_y < 1370))) // 45% vnster
		{
			driveflag = 0;
			SetPointLeftWheel(0.2,driveflag);
			SetPointRightWheel(0.26,driveflag);	
   80bca:	4ea4      	ldr	r6, [pc, #656]	; (80e5c <TaskDriveLeftRight+0x2a8>)
		}
		else if(((joystick_x > 300) && (joystick_x < 490)) && ((joystick_y > 1340) && (joystick_y < 1370))) // 30% vnster
		{
			driveflag = 0;
			SetPointLeftWheel(0.2,driveflag);
			SetPointRightWheel(0.24,driveflag);	
   80bcc:	4da4      	ldr	r5, [pc, #656]	; (80e60 <TaskDriveLeftRight+0x2ac>)
	
	xLastWakeTime = xTaskGetTickCount();


	while(1){
		joystick_x = ReadAnalog0();
   80bce:	4ba5      	ldr	r3, [pc, #660]	; (80e64 <TaskDriveLeftRight+0x2b0>)
   80bd0:	4798      	blx	r3
   80bd2:	4fa5      	ldr	r7, [pc, #660]	; (80e68 <TaskDriveLeftRight+0x2b4>)
   80bd4:	6038      	str	r0, [r7, #0]
		joystick_y = ReadAnalog1();
   80bd6:	4ba5      	ldr	r3, [pc, #660]	; (80e6c <TaskDriveLeftRight+0x2b8>)
   80bd8:	4798      	blx	r3
   80bda:	4ba5      	ldr	r3, [pc, #660]	; (80e70 <TaskDriveLeftRight+0x2bc>)
   80bdc:	6018      	str	r0, [r3, #0]
		
		if(((joystick_x > 585) && (joystick_x < 680)) && ((joystick_y > 595) && (joystick_y < 680)) ) // default(mitten)
   80bde:	683b      	ldr	r3, [r7, #0]
   80be0:	f2a3 224a 	subw	r2, r3, #586	; 0x24a
   80be4:	2a5d      	cmp	r2, #93	; 0x5d
   80be6:	d813      	bhi.n	80c10 <TaskDriveLeftRight+0x5c>
   80be8:	f5a0 7215 	sub.w	r2, r0, #596	; 0x254
   80bec:	2a53      	cmp	r2, #83	; 0x53
   80bee:	d80f      	bhi.n	80c10 <TaskDriveLeftRight+0x5c>
		{
			driveflag = 0;
   80bf0:	f8df a29c 	ldr.w	sl, [pc, #668]	; 80e90 <TaskDriveLeftRight+0x2dc>
   80bf4:	2100      	movs	r1, #0
   80bf6:	f8ca 1000 	str.w	r1, [sl]
			SetPointLeftWheel(0,driveflag);
   80bfa:	f04f 0b00 	mov.w	fp, #0
   80bfe:	4658      	mov	r0, fp
   80c00:	4b9c      	ldr	r3, [pc, #624]	; (80e74 <TaskDriveLeftRight+0x2c0>)
   80c02:	4798      	blx	r3
			SetPointRightWheel(0,driveflag);
   80c04:	4658      	mov	r0, fp
   80c06:	f8da 1000 	ldr.w	r1, [sl]
   80c0a:	4b9b      	ldr	r3, [pc, #620]	; (80e78 <TaskDriveLeftRight+0x2c4>)
   80c0c:	4798      	blx	r3
   80c0e:	e11b      	b.n	80e48 <TaskDriveLeftRight+0x294>
		}
		else if((joystick_y > 585)) //Drive forward at full speed.
   80c10:	f240 2249 	movw	r2, #585	; 0x249
   80c14:	4290      	cmp	r0, r2
   80c16:	d90d      	bls.n	80c34 <TaskDriveLeftRight+0x80>
		{
			driveflag = 0;
   80c18:	f8df a274 	ldr.w	sl, [pc, #628]	; 80e90 <TaskDriveLeftRight+0x2dc>
   80c1c:	2100      	movs	r1, #0
   80c1e:	f8ca 1000 	str.w	r1, [sl]
			SetPointLeftWheel(0.2,driveflag);
   80c22:	4620      	mov	r0, r4
   80c24:	4b93      	ldr	r3, [pc, #588]	; (80e74 <TaskDriveLeftRight+0x2c0>)
   80c26:	4798      	blx	r3
			SetPointRightWheel(0.2,driveflag);
   80c28:	4620      	mov	r0, r4
   80c2a:	f8da 1000 	ldr.w	r1, [sl]
   80c2e:	4b92      	ldr	r3, [pc, #584]	; (80e78 <TaskDriveLeftRight+0x2c4>)
   80c30:	4798      	blx	r3
   80c32:	e109      	b.n	80e48 <TaskDriveLeftRight+0x294>
		}
		else if((joystick_y <= 575)) //Drive backward at 50% speed.
   80c34:	f5b0 7f10 	cmp.w	r0, #576	; 0x240
   80c38:	d20d      	bcs.n	80c56 <TaskDriveLeftRight+0xa2>
		{
			driveflag = 1;
   80c3a:	f8df a254 	ldr.w	sl, [pc, #596]	; 80e90 <TaskDriveLeftRight+0x2dc>
   80c3e:	2101      	movs	r1, #1
   80c40:	f8ca 1000 	str.w	r1, [sl]
			SetPointLeftWheel(0.2,driveflag);
   80c44:	4620      	mov	r0, r4
   80c46:	4b8b      	ldr	r3, [pc, #556]	; (80e74 <TaskDriveLeftRight+0x2c0>)
   80c48:	4798      	blx	r3
			SetPointRightWheel(0.2,driveflag);
   80c4a:	4620      	mov	r0, r4
   80c4c:	f8da 1000 	ldr.w	r1, [sl]
   80c50:	4b89      	ldr	r3, [pc, #548]	; (80e78 <TaskDriveLeftRight+0x2c4>)
   80c52:	4798      	blx	r3
   80c54:	e0f8      	b.n	80e48 <TaskDriveLeftRight+0x294>

		}		
		else if(((joystick_x > 780) && (joystick_x < 850)) && ((joystick_y > 1340) && (joystick_y < 1370))) // 15% hger
   80c56:	f2a3 320d 	subw	r2, r3, #781	; 0x30d
   80c5a:	2a44      	cmp	r2, #68	; 0x44
   80c5c:	d811      	bhi.n	80c82 <TaskDriveLeftRight+0xce>
   80c5e:	f2a0 523d 	subw	r2, r0, #1341	; 0x53d
   80c62:	2a1c      	cmp	r2, #28
   80c64:	d80d      	bhi.n	80c82 <TaskDriveLeftRight+0xce>
		{
			driveflag = 0;
   80c66:	f8df a228 	ldr.w	sl, [pc, #552]	; 80e90 <TaskDriveLeftRight+0x2dc>
   80c6a:	2100      	movs	r1, #0
   80c6c:	f8ca 1000 	str.w	r1, [sl]
			SetPointLeftWheel(0.22,driveflag);
   80c70:	4882      	ldr	r0, [pc, #520]	; (80e7c <TaskDriveLeftRight+0x2c8>)
   80c72:	4b80      	ldr	r3, [pc, #512]	; (80e74 <TaskDriveLeftRight+0x2c0>)
   80c74:	4798      	blx	r3
			SetPointRightWheel(0.2,driveflag);
   80c76:	4620      	mov	r0, r4
   80c78:	f8da 1000 	ldr.w	r1, [sl]
   80c7c:	4b7e      	ldr	r3, [pc, #504]	; (80e78 <TaskDriveLeftRight+0x2c4>)
   80c7e:	4798      	blx	r3
   80c80:	e0e2      	b.n	80e48 <TaskDriveLeftRight+0x294>
		}
		else if(((joystick_x > 860) && (joystick_x < 1040)) && ((joystick_y > 1340) && (joystick_y < 1370))) // 30% hger
   80c82:	f2a3 325d 	subw	r2, r3, #861	; 0x35d
   80c86:	2ab2      	cmp	r2, #178	; 0xb2
   80c88:	d811      	bhi.n	80cae <TaskDriveLeftRight+0xfa>
   80c8a:	f2a0 523d 	subw	r2, r0, #1341	; 0x53d
   80c8e:	2a1c      	cmp	r2, #28
   80c90:	d80d      	bhi.n	80cae <TaskDriveLeftRight+0xfa>
		{
			driveflag = 0;
   80c92:	f8df a1fc 	ldr.w	sl, [pc, #508]	; 80e90 <TaskDriveLeftRight+0x2dc>
   80c96:	2100      	movs	r1, #0
   80c98:	f8ca 1000 	str.w	r1, [sl]
			SetPointLeftWheel(0.24,driveflag);
   80c9c:	4628      	mov	r0, r5
   80c9e:	4b75      	ldr	r3, [pc, #468]	; (80e74 <TaskDriveLeftRight+0x2c0>)
   80ca0:	4798      	blx	r3
			SetPointRightWheel(0.2,driveflag);
   80ca2:	4620      	mov	r0, r4
   80ca4:	f8da 1000 	ldr.w	r1, [sl]
   80ca8:	4b73      	ldr	r3, [pc, #460]	; (80e78 <TaskDriveLeftRight+0x2c4>)
   80caa:	4798      	blx	r3
   80cac:	e0cc      	b.n	80e48 <TaskDriveLeftRight+0x294>
		}
		else if(((joystick_x > 1050) && (joystick_x < 1370)) && ((joystick_y > 1340) && (joystick_y < 1370))) // 45% hger
   80cae:	f2a3 421b 	subw	r2, r3, #1051	; 0x41b
   80cb2:	f5b2 7f9f 	cmp.w	r2, #318	; 0x13e
   80cb6:	d811      	bhi.n	80cdc <TaskDriveLeftRight+0x128>
   80cb8:	f2a0 523d 	subw	r2, r0, #1341	; 0x53d
   80cbc:	2a1c      	cmp	r2, #28
   80cbe:	d80d      	bhi.n	80cdc <TaskDriveLeftRight+0x128>
		{
			driveflag = 0;
   80cc0:	f8df a1cc 	ldr.w	sl, [pc, #460]	; 80e90 <TaskDriveLeftRight+0x2dc>
   80cc4:	2100      	movs	r1, #0
   80cc6:	f8ca 1000 	str.w	r1, [sl]
			SetPointLeftWheel(0.26,driveflag);
   80cca:	4630      	mov	r0, r6
   80ccc:	4b69      	ldr	r3, [pc, #420]	; (80e74 <TaskDriveLeftRight+0x2c0>)
   80cce:	4798      	blx	r3
			SetPointRightWheel(0.2,driveflag);		
   80cd0:	4620      	mov	r0, r4
   80cd2:	f8da 1000 	ldr.w	r1, [sl]
   80cd6:	4b68      	ldr	r3, [pc, #416]	; (80e78 <TaskDriveLeftRight+0x2c4>)
   80cd8:	4798      	blx	r3
   80cda:	e0b5      	b.n	80e48 <TaskDriveLeftRight+0x294>
		}
		else if(((joystick_x > 1340) && (joystick_x < 1370)) && ((joystick_y > 1200) && (joystick_y < 1340))) // 60% hger
   80cdc:	f2a3 523d 	subw	r2, r3, #1341	; 0x53d
   80ce0:	2a1c      	cmp	r2, #28
   80ce2:	d836      	bhi.n	80d52 <TaskDriveLeftRight+0x19e>
   80ce4:	f2a0 42b1 	subw	r2, r0, #1201	; 0x4b1
   80ce8:	2a8a      	cmp	r2, #138	; 0x8a
   80cea:	d80d      	bhi.n	80d08 <TaskDriveLeftRight+0x154>
		{
			driveflag = 0;
   80cec:	f8df a1a0 	ldr.w	sl, [pc, #416]	; 80e90 <TaskDriveLeftRight+0x2dc>
   80cf0:	2100      	movs	r1, #0
   80cf2:	f8ca 1000 	str.w	r1, [sl]
			SetPointLeftWheel(0.28,driveflag);
   80cf6:	4862      	ldr	r0, [pc, #392]	; (80e80 <TaskDriveLeftRight+0x2cc>)
   80cf8:	4b5e      	ldr	r3, [pc, #376]	; (80e74 <TaskDriveLeftRight+0x2c0>)
   80cfa:	4798      	blx	r3
			SetPointRightWheel(0.2,driveflag);
   80cfc:	4620      	mov	r0, r4
   80cfe:	f8da 1000 	ldr.w	r1, [sl]
   80d02:	4b5d      	ldr	r3, [pc, #372]	; (80e78 <TaskDriveLeftRight+0x2c4>)
   80d04:	4798      	blx	r3
   80d06:	e09f      	b.n	80e48 <TaskDriveLeftRight+0x294>
		}
		else if(((joystick_x > 1340) && (joystick_x < 1370)) && ((joystick_y > 800) && (joystick_y < 1190))) // 75% hger
   80d08:	f2a0 3221 	subw	r2, r0, #801	; 0x321
   80d0c:	f5b2 7fc2 	cmp.w	r2, #388	; 0x184
   80d10:	d80d      	bhi.n	80d2e <TaskDriveLeftRight+0x17a>
		{
			driveflag = 0;
   80d12:	f8df a17c 	ldr.w	sl, [pc, #380]	; 80e90 <TaskDriveLeftRight+0x2dc>
   80d16:	2100      	movs	r1, #0
   80d18:	f8ca 1000 	str.w	r1, [sl]
			SetPointLeftWheel(0.30,driveflag);
   80d1c:	4640      	mov	r0, r8
   80d1e:	4b55      	ldr	r3, [pc, #340]	; (80e74 <TaskDriveLeftRight+0x2c0>)
   80d20:	4798      	blx	r3
			SetPointRightWheel(0.2,driveflag);
   80d22:	4620      	mov	r0, r4
   80d24:	f8da 1000 	ldr.w	r1, [sl]
   80d28:	4b53      	ldr	r3, [pc, #332]	; (80e78 <TaskDriveLeftRight+0x2c4>)
   80d2a:	4798      	blx	r3
   80d2c:	e08c      	b.n	80e48 <TaskDriveLeftRight+0x294>
		}
		else if(((joystick_x > 1340) && (joystick_x < 1370)) && ((joystick_y > 610) && (joystick_y < 790))) // 90% hger
   80d2e:	f2a0 2263 	subw	r2, r0, #611	; 0x263
   80d32:	2ab2      	cmp	r2, #178	; 0xb2
   80d34:	d80d      	bhi.n	80d52 <TaskDriveLeftRight+0x19e>
		{
			driveflag = 0;
   80d36:	f8df a158 	ldr.w	sl, [pc, #344]	; 80e90 <TaskDriveLeftRight+0x2dc>
   80d3a:	2100      	movs	r1, #0
   80d3c:	f8ca 1000 	str.w	r1, [sl]
			SetPointLeftWheel(0.2,driveflag);
   80d40:	4620      	mov	r0, r4
   80d42:	4b4c      	ldr	r3, [pc, #304]	; (80e74 <TaskDriveLeftRight+0x2c0>)
   80d44:	4798      	blx	r3
			SetPointRightWheel(0.32,driveflag);
   80d46:	4648      	mov	r0, r9
   80d48:	f8da 1000 	ldr.w	r1, [sl]
   80d4c:	4b4a      	ldr	r3, [pc, #296]	; (80e78 <TaskDriveLeftRight+0x2c4>)
   80d4e:	4798      	blx	r3
   80d50:	e07a      	b.n	80e48 <TaskDriveLeftRight+0x294>
		}
		/*LEFT WHEEL!!!!!*/
		else if(((joystick_x > 500) && (joystick_x < 590)) && ((joystick_y > 1340) && (joystick_y < 1370))) // 15% vnster
   80d52:	f2a3 12f5 	subw	r2, r3, #501	; 0x1f5
   80d56:	2a58      	cmp	r2, #88	; 0x58
   80d58:	d811      	bhi.n	80d7e <TaskDriveLeftRight+0x1ca>
   80d5a:	f2a0 523d 	subw	r2, r0, #1341	; 0x53d
   80d5e:	2a1c      	cmp	r2, #28
   80d60:	d80d      	bhi.n	80d7e <TaskDriveLeftRight+0x1ca>
		{
			driveflag = 0;
   80d62:	f8df a12c 	ldr.w	sl, [pc, #300]	; 80e90 <TaskDriveLeftRight+0x2dc>
   80d66:	2100      	movs	r1, #0
   80d68:	f8ca 1000 	str.w	r1, [sl]
			SetPointLeftWheel(0.2,driveflag);
   80d6c:	4620      	mov	r0, r4
   80d6e:	4b41      	ldr	r3, [pc, #260]	; (80e74 <TaskDriveLeftRight+0x2c0>)
   80d70:	4798      	blx	r3
			SetPointRightWheel(0.22,driveflag);
   80d72:	4842      	ldr	r0, [pc, #264]	; (80e7c <TaskDriveLeftRight+0x2c8>)
   80d74:	f8da 1000 	ldr.w	r1, [sl]
   80d78:	4b3f      	ldr	r3, [pc, #252]	; (80e78 <TaskDriveLeftRight+0x2c4>)
   80d7a:	4798      	blx	r3
   80d7c:	e064      	b.n	80e48 <TaskDriveLeftRight+0x294>
		}
		else if(((joystick_x > 300) && (joystick_x < 490)) && ((joystick_y > 1340) && (joystick_y < 1370))) // 30% vnster
   80d7e:	f2a3 122d 	subw	r2, r3, #301	; 0x12d
   80d82:	2abc      	cmp	r2, #188	; 0xbc
   80d84:	d811      	bhi.n	80daa <TaskDriveLeftRight+0x1f6>
   80d86:	f2a0 523d 	subw	r2, r0, #1341	; 0x53d
   80d8a:	2a1c      	cmp	r2, #28
   80d8c:	d80d      	bhi.n	80daa <TaskDriveLeftRight+0x1f6>
		{
			driveflag = 0;
   80d8e:	f8df a100 	ldr.w	sl, [pc, #256]	; 80e90 <TaskDriveLeftRight+0x2dc>
   80d92:	2100      	movs	r1, #0
   80d94:	f8ca 1000 	str.w	r1, [sl]
			SetPointLeftWheel(0.2,driveflag);
   80d98:	4620      	mov	r0, r4
   80d9a:	4b36      	ldr	r3, [pc, #216]	; (80e74 <TaskDriveLeftRight+0x2c0>)
   80d9c:	4798      	blx	r3
			SetPointRightWheel(0.24,driveflag);	
   80d9e:	4628      	mov	r0, r5
   80da0:	f8da 1000 	ldr.w	r1, [sl]
   80da4:	4b34      	ldr	r3, [pc, #208]	; (80e78 <TaskDriveLeftRight+0x2c4>)
   80da6:	4798      	blx	r3
   80da8:	e04e      	b.n	80e48 <TaskDriveLeftRight+0x294>
		}
		else if(((joystick_x > 100) && (joystick_x < 290)) && ((joystick_y > 1340) && (joystick_y < 1370))) // 45% vnster
   80daa:	f1a3 0265 	sub.w	r2, r3, #101	; 0x65
   80dae:	2abc      	cmp	r2, #188	; 0xbc
   80db0:	d811      	bhi.n	80dd6 <TaskDriveLeftRight+0x222>
   80db2:	f2a0 523d 	subw	r2, r0, #1341	; 0x53d
   80db6:	2a1c      	cmp	r2, #28
   80db8:	d80d      	bhi.n	80dd6 <TaskDriveLeftRight+0x222>
		{
			driveflag = 0;
   80dba:	f8df a0d4 	ldr.w	sl, [pc, #212]	; 80e90 <TaskDriveLeftRight+0x2dc>
   80dbe:	2100      	movs	r1, #0
   80dc0:	f8ca 1000 	str.w	r1, [sl]
			SetPointLeftWheel(0.2,driveflag);
   80dc4:	4620      	mov	r0, r4
   80dc6:	4b2b      	ldr	r3, [pc, #172]	; (80e74 <TaskDriveLeftRight+0x2c0>)
   80dc8:	4798      	blx	r3
			SetPointRightWheel(0.26,driveflag);	
   80dca:	4630      	mov	r0, r6
   80dcc:	f8da 1000 	ldr.w	r1, [sl]
   80dd0:	4b29      	ldr	r3, [pc, #164]	; (80e78 <TaskDriveLeftRight+0x2c4>)
   80dd2:	4798      	blx	r3
   80dd4:	e038      	b.n	80e48 <TaskDriveLeftRight+0x294>
		}
		else if(((joystick_x >= 0) && (joystick_x < 90)) && ((joystick_y > 1340) && (joystick_y < 1370))) // 60% vnster
   80dd6:	2b59      	cmp	r3, #89	; 0x59
   80dd8:	d836      	bhi.n	80e48 <TaskDriveLeftRight+0x294>
   80dda:	f2a0 533d 	subw	r3, r0, #1341	; 0x53d
   80dde:	2b1c      	cmp	r3, #28
   80de0:	d80d      	bhi.n	80dfe <TaskDriveLeftRight+0x24a>
		{
			driveflag = 0;
   80de2:	f8df a0ac 	ldr.w	sl, [pc, #172]	; 80e90 <TaskDriveLeftRight+0x2dc>
   80de6:	2100      	movs	r1, #0
   80de8:	f8ca 1000 	str.w	r1, [sl]
			SetPointLeftWheel(0.2,driveflag);
   80dec:	4620      	mov	r0, r4
   80dee:	4b21      	ldr	r3, [pc, #132]	; (80e74 <TaskDriveLeftRight+0x2c0>)
   80df0:	4798      	blx	r3
			SetPointRightWheel(0.28,driveflag);
   80df2:	4823      	ldr	r0, [pc, #140]	; (80e80 <TaskDriveLeftRight+0x2cc>)
   80df4:	f8da 1000 	ldr.w	r1, [sl]
   80df8:	4b1f      	ldr	r3, [pc, #124]	; (80e78 <TaskDriveLeftRight+0x2c4>)
   80dfa:	4798      	blx	r3
   80dfc:	e024      	b.n	80e48 <TaskDriveLeftRight+0x294>
		}
		else if(((joystick_x >= 0) && (joystick_x < 90)) && ((joystick_y > 1000) && (joystick_y < 1330))) // 75% vnster
   80dfe:	f2a0 33e9 	subw	r3, r0, #1001	; 0x3e9
   80e02:	f5b3 7fa4 	cmp.w	r3, #328	; 0x148
   80e06:	d80d      	bhi.n	80e24 <TaskDriveLeftRight+0x270>
		{
			driveflag = 0;
   80e08:	f8df a084 	ldr.w	sl, [pc, #132]	; 80e90 <TaskDriveLeftRight+0x2dc>
   80e0c:	2100      	movs	r1, #0
   80e0e:	f8ca 1000 	str.w	r1, [sl]
			SetPointLeftWheel(0.2,driveflag);
   80e12:	4620      	mov	r0, r4
   80e14:	4b17      	ldr	r3, [pc, #92]	; (80e74 <TaskDriveLeftRight+0x2c0>)
   80e16:	4798      	blx	r3
			SetPointRightWheel(0.30,driveflag);
   80e18:	4640      	mov	r0, r8
   80e1a:	f8da 1000 	ldr.w	r1, [sl]
   80e1e:	4b16      	ldr	r3, [pc, #88]	; (80e78 <TaskDriveLeftRight+0x2c4>)
   80e20:	4798      	blx	r3
   80e22:	e011      	b.n	80e48 <TaskDriveLeftRight+0x294>
		}
		else if(((joystick_x >= 0) && (joystick_x < 90)) && ((joystick_y > 610) && (joystick_y < 990))) // 90% vnster
   80e24:	f2a0 2063 	subw	r0, r0, #611	; 0x263
   80e28:	f5b0 7fbd 	cmp.w	r0, #378	; 0x17a
   80e2c:	d80c      	bhi.n	80e48 <TaskDriveLeftRight+0x294>
		{
			driveflag = 0;
   80e2e:	f8df a060 	ldr.w	sl, [pc, #96]	; 80e90 <TaskDriveLeftRight+0x2dc>
   80e32:	2100      	movs	r1, #0
   80e34:	f8ca 1000 	str.w	r1, [sl]
			SetPointLeftWheel(0.2,driveflag);
   80e38:	4620      	mov	r0, r4
   80e3a:	4b0e      	ldr	r3, [pc, #56]	; (80e74 <TaskDriveLeftRight+0x2c0>)
   80e3c:	4798      	blx	r3
			SetPointRightWheel(0.32,driveflag);	
   80e3e:	4648      	mov	r0, r9
   80e40:	f8da 1000 	ldr.w	r1, [sl]
   80e44:	4b0c      	ldr	r3, [pc, #48]	; (80e78 <TaskDriveLeftRight+0x2c4>)
   80e46:	4798      	blx	r3
		}
	
		xSampleTime = (portTickType)sampleTimeLeft;
		vTaskDelayUntil(&xLastWakeTime, xSampleTime); //Wait for the next cycle the task will be active.
   80e48:	a801      	add	r0, sp, #4
   80e4a:	2164      	movs	r1, #100	; 0x64
   80e4c:	4b0d      	ldr	r3, [pc, #52]	; (80e84 <TaskDriveLeftRight+0x2d0>)
   80e4e:	4798      	blx	r3
	}
   80e50:	e6bd      	b.n	80bce <TaskDriveLeftRight+0x1a>
   80e52:	bf00      	nop
   80e54:	00082b59 	.word	0x00082b59
   80e58:	3e4ccccd 	.word	0x3e4ccccd
   80e5c:	3e851eb8 	.word	0x3e851eb8
   80e60:	3e75c28f 	.word	0x3e75c28f
   80e64:	00081339 	.word	0x00081339
   80e68:	200785b4 	.word	0x200785b4
   80e6c:	00081359 	.word	0x00081359
   80e70:	200785b0 	.word	0x200785b0
   80e74:	000812b5 	.word	0x000812b5
   80e78:	00080959 	.word	0x00080959
   80e7c:	3e6147ae 	.word	0x3e6147ae
   80e80:	3e8f5c29 	.word	0x3e8f5c29
   80e84:	00082da1 	.word	0x00082da1
   80e88:	3ea3d70a 	.word	0x3ea3d70a
   80e8c:	3e99999a 	.word	0x3e99999a
   80e90:	20070258 	.word	0x20070258
   80e94:	00000000 	.word	0x00000000

00080e98 <valuesforPWM>:
}

/**************************************************************************
* Function for translating actual speed values to PWM signals.
**************************************************************************/
void valuesforPWM(float finalULeft){
   80e98:	b5f8      	push	{r3, r4, r5, r6, r7, lr}
   80e9a:	4606      	mov	r6, r0
	
	if(thedriveflagleft == 0){
   80e9c:	4b8a      	ldr	r3, [pc, #552]	; (810c8 <valuesforPWM+0x230>)
   80e9e:	681b      	ldr	r3, [r3, #0]
   80ea0:	2b00      	cmp	r3, #0
   80ea2:	f040 813f 	bne.w	81124 <valuesforPWM+0x28c>
		if(finalULeft <= 0.016){
   80ea6:	4b89      	ldr	r3, [pc, #548]	; (810cc <valuesforPWM+0x234>)
   80ea8:	4798      	blx	r3
   80eaa:	4604      	mov	r4, r0
   80eac:	460d      	mov	r5, r1
   80eae:	a364      	add	r3, pc, #400	; (adr r3, 81040 <valuesforPWM+0x1a8>)
   80eb0:	e9d3 2300 	ldrd	r2, r3, [r3]
   80eb4:	4f86      	ldr	r7, [pc, #536]	; (810d0 <valuesforPWM+0x238>)
   80eb6:	47b8      	blx	r7
   80eb8:	b120      	cbz	r0, 80ec4 <valuesforPWM+0x2c>
			LeftWheelPWM(1500);
   80eba:	f240 50dc 	movw	r0, #1500	; 0x5dc
   80ebe:	4b85      	ldr	r3, [pc, #532]	; (810d4 <valuesforPWM+0x23c>)
   80ec0:	4798      	blx	r3
   80ec2:	bdf8      	pop	{r3, r4, r5, r6, r7, pc}
		}
		else if(finalULeft >= 0.017 && finalULeft <= 0.026){
   80ec4:	4620      	mov	r0, r4
   80ec6:	4629      	mov	r1, r5
   80ec8:	a35f      	add	r3, pc, #380	; (adr r3, 81048 <valuesforPWM+0x1b0>)
   80eca:	e9d3 2300 	ldrd	r2, r3, [r3]
   80ece:	4f82      	ldr	r7, [pc, #520]	; (810d8 <valuesforPWM+0x240>)
   80ed0:	47b8      	blx	r7
   80ed2:	b160      	cbz	r0, 80eee <valuesforPWM+0x56>
   80ed4:	4620      	mov	r0, r4
   80ed6:	4629      	mov	r1, r5
   80ed8:	a35d      	add	r3, pc, #372	; (adr r3, 81050 <valuesforPWM+0x1b8>)
   80eda:	e9d3 2300 	ldrd	r2, r3, [r3]
   80ede:	4f7c      	ldr	r7, [pc, #496]	; (810d0 <valuesforPWM+0x238>)
   80ee0:	47b8      	blx	r7
   80ee2:	b120      	cbz	r0, 80eee <valuesforPWM+0x56>
			LeftWheelPWM(1390);
   80ee4:	f240 506e 	movw	r0, #1390	; 0x56e
   80ee8:	4b7a      	ldr	r3, [pc, #488]	; (810d4 <valuesforPWM+0x23c>)
   80eea:	4798      	blx	r3
   80eec:	bdf8      	pop	{r3, r4, r5, r6, r7, pc}
		}
		else if(finalULeft >= 0.026 && finalULeft <= 0.033){
   80eee:	4620      	mov	r0, r4
   80ef0:	4629      	mov	r1, r5
   80ef2:	a357      	add	r3, pc, #348	; (adr r3, 81050 <valuesforPWM+0x1b8>)
   80ef4:	e9d3 2300 	ldrd	r2, r3, [r3]
   80ef8:	4f77      	ldr	r7, [pc, #476]	; (810d8 <valuesforPWM+0x240>)
   80efa:	47b8      	blx	r7
   80efc:	b160      	cbz	r0, 80f18 <valuesforPWM+0x80>
   80efe:	4620      	mov	r0, r4
   80f00:	4629      	mov	r1, r5
   80f02:	a355      	add	r3, pc, #340	; (adr r3, 81058 <valuesforPWM+0x1c0>)
   80f04:	e9d3 2300 	ldrd	r2, r3, [r3]
   80f08:	4f71      	ldr	r7, [pc, #452]	; (810d0 <valuesforPWM+0x238>)
   80f0a:	47b8      	blx	r7
   80f0c:	b120      	cbz	r0, 80f18 <valuesforPWM+0x80>
			LeftWheelPWM(1370);
   80f0e:	f240 505a 	movw	r0, #1370	; 0x55a
   80f12:	4b70      	ldr	r3, [pc, #448]	; (810d4 <valuesforPWM+0x23c>)
   80f14:	4798      	blx	r3
   80f16:	bdf8      	pop	{r3, r4, r5, r6, r7, pc}
		}
		else if(finalULeft >= 0.034 && finalULeft <= 0.077){
   80f18:	4620      	mov	r0, r4
   80f1a:	4629      	mov	r1, r5
   80f1c:	a350      	add	r3, pc, #320	; (adr r3, 81060 <valuesforPWM+0x1c8>)
   80f1e:	e9d3 2300 	ldrd	r2, r3, [r3]
   80f22:	4f6d      	ldr	r7, [pc, #436]	; (810d8 <valuesforPWM+0x240>)
   80f24:	47b8      	blx	r7
   80f26:	b160      	cbz	r0, 80f42 <valuesforPWM+0xaa>
   80f28:	4620      	mov	r0, r4
   80f2a:	4629      	mov	r1, r5
   80f2c:	a34e      	add	r3, pc, #312	; (adr r3, 81068 <valuesforPWM+0x1d0>)
   80f2e:	e9d3 2300 	ldrd	r2, r3, [r3]
   80f32:	4f67      	ldr	r7, [pc, #412]	; (810d0 <valuesforPWM+0x238>)
   80f34:	47b8      	blx	r7
   80f36:	b120      	cbz	r0, 80f42 <valuesforPWM+0xaa>
			LeftWheelPWM(1350);
   80f38:	f240 5046 	movw	r0, #1350	; 0x546
   80f3c:	4b65      	ldr	r3, [pc, #404]	; (810d4 <valuesforPWM+0x23c>)
   80f3e:	4798      	blx	r3
   80f40:	bdf8      	pop	{r3, r4, r5, r6, r7, pc}
		}
		else if(finalULeft >= 0.078 && finalULeft <= 0.101){
   80f42:	4620      	mov	r0, r4
   80f44:	4629      	mov	r1, r5
   80f46:	a34a      	add	r3, pc, #296	; (adr r3, 81070 <valuesforPWM+0x1d8>)
   80f48:	e9d3 2300 	ldrd	r2, r3, [r3]
   80f4c:	4f62      	ldr	r7, [pc, #392]	; (810d8 <valuesforPWM+0x240>)
   80f4e:	47b8      	blx	r7
   80f50:	b160      	cbz	r0, 80f6c <valuesforPWM+0xd4>
   80f52:	4620      	mov	r0, r4
   80f54:	4629      	mov	r1, r5
   80f56:	a348      	add	r3, pc, #288	; (adr r3, 81078 <valuesforPWM+0x1e0>)
   80f58:	e9d3 2300 	ldrd	r2, r3, [r3]
   80f5c:	4f5c      	ldr	r7, [pc, #368]	; (810d0 <valuesforPWM+0x238>)
   80f5e:	47b8      	blx	r7
   80f60:	b120      	cbz	r0, 80f6c <valuesforPWM+0xd4>
			LeftWheelPWM(1330);
   80f62:	f240 5032 	movw	r0, #1330	; 0x532
   80f66:	4b5b      	ldr	r3, [pc, #364]	; (810d4 <valuesforPWM+0x23c>)
   80f68:	4798      	blx	r3
   80f6a:	bdf8      	pop	{r3, r4, r5, r6, r7, pc}
		}
		else if(finalULeft >= 0.102 && finalULeft <= 0.149){
   80f6c:	4620      	mov	r0, r4
   80f6e:	4629      	mov	r1, r5
   80f70:	a343      	add	r3, pc, #268	; (adr r3, 81080 <valuesforPWM+0x1e8>)
   80f72:	e9d3 2300 	ldrd	r2, r3, [r3]
   80f76:	4f58      	ldr	r7, [pc, #352]	; (810d8 <valuesforPWM+0x240>)
   80f78:	47b8      	blx	r7
   80f7a:	b160      	cbz	r0, 80f96 <valuesforPWM+0xfe>
   80f7c:	4620      	mov	r0, r4
   80f7e:	4629      	mov	r1, r5
   80f80:	a341      	add	r3, pc, #260	; (adr r3, 81088 <valuesforPWM+0x1f0>)
   80f82:	e9d3 2300 	ldrd	r2, r3, [r3]
   80f86:	4f52      	ldr	r7, [pc, #328]	; (810d0 <valuesforPWM+0x238>)
   80f88:	47b8      	blx	r7
   80f8a:	b120      	cbz	r0, 80f96 <valuesforPWM+0xfe>
			LeftWheelPWM(1310);
   80f8c:	f240 501e 	movw	r0, #1310	; 0x51e
   80f90:	4b50      	ldr	r3, [pc, #320]	; (810d4 <valuesforPWM+0x23c>)
   80f92:	4798      	blx	r3
   80f94:	bdf8      	pop	{r3, r4, r5, r6, r7, pc}
		}
		else if(finalULeft >= 0.150 && finalULeft <= 0.194){
   80f96:	4620      	mov	r0, r4
   80f98:	4629      	mov	r1, r5
   80f9a:	a33d      	add	r3, pc, #244	; (adr r3, 81090 <valuesforPWM+0x1f8>)
   80f9c:	e9d3 2300 	ldrd	r2, r3, [r3]
   80fa0:	4f4d      	ldr	r7, [pc, #308]	; (810d8 <valuesforPWM+0x240>)
   80fa2:	47b8      	blx	r7
   80fa4:	b160      	cbz	r0, 80fc0 <valuesforPWM+0x128>
   80fa6:	4620      	mov	r0, r4
   80fa8:	4629      	mov	r1, r5
   80faa:	a33b      	add	r3, pc, #236	; (adr r3, 81098 <valuesforPWM+0x200>)
   80fac:	e9d3 2300 	ldrd	r2, r3, [r3]
   80fb0:	4f47      	ldr	r7, [pc, #284]	; (810d0 <valuesforPWM+0x238>)
   80fb2:	47b8      	blx	r7
   80fb4:	b120      	cbz	r0, 80fc0 <valuesforPWM+0x128>
			LeftWheelPWM(1290);
   80fb6:	f240 500a 	movw	r0, #1290	; 0x50a
   80fba:	4b46      	ldr	r3, [pc, #280]	; (810d4 <valuesforPWM+0x23c>)
   80fbc:	4798      	blx	r3
   80fbe:	bdf8      	pop	{r3, r4, r5, r6, r7, pc}
		}
		else if(finalULeft >= 0.195 && finalULeft <= 0.212){
   80fc0:	4620      	mov	r0, r4
   80fc2:	4629      	mov	r1, r5
   80fc4:	a336      	add	r3, pc, #216	; (adr r3, 810a0 <valuesforPWM+0x208>)
   80fc6:	e9d3 2300 	ldrd	r2, r3, [r3]
   80fca:	4f43      	ldr	r7, [pc, #268]	; (810d8 <valuesforPWM+0x240>)
   80fcc:	47b8      	blx	r7
   80fce:	b160      	cbz	r0, 80fea <valuesforPWM+0x152>
   80fd0:	4620      	mov	r0, r4
   80fd2:	4629      	mov	r1, r5
   80fd4:	a334      	add	r3, pc, #208	; (adr r3, 810a8 <valuesforPWM+0x210>)
   80fd6:	e9d3 2300 	ldrd	r2, r3, [r3]
   80fda:	4f3d      	ldr	r7, [pc, #244]	; (810d0 <valuesforPWM+0x238>)
   80fdc:	47b8      	blx	r7
   80fde:	b120      	cbz	r0, 80fea <valuesforPWM+0x152>
			LeftWheelPWM(1270);
   80fe0:	f240 40f6 	movw	r0, #1270	; 0x4f6
   80fe4:	4b3b      	ldr	r3, [pc, #236]	; (810d4 <valuesforPWM+0x23c>)
   80fe6:	4798      	blx	r3
   80fe8:	bdf8      	pop	{r3, r4, r5, r6, r7, pc}
		}
		else if(finalULeft >= 0.213 && finalULeft <= 0.250){
   80fea:	4620      	mov	r0, r4
   80fec:	4629      	mov	r1, r5
   80fee:	a330      	add	r3, pc, #192	; (adr r3, 810b0 <valuesforPWM+0x218>)
   80ff0:	e9d3 2300 	ldrd	r2, r3, [r3]
   80ff4:	4f38      	ldr	r7, [pc, #224]	; (810d8 <valuesforPWM+0x240>)
   80ff6:	47b8      	blx	r7
   80ff8:	b150      	cbz	r0, 81010 <valuesforPWM+0x178>
   80ffa:	4630      	mov	r0, r6
   80ffc:	f04f 517a 	mov.w	r1, #1048576000	; 0x3e800000
   81000:	4b36      	ldr	r3, [pc, #216]	; (810dc <valuesforPWM+0x244>)
   81002:	4798      	blx	r3
   81004:	b120      	cbz	r0, 81010 <valuesforPWM+0x178>
			LeftWheelPWM(1250);
   81006:	f240 40e2 	movw	r0, #1250	; 0x4e2
   8100a:	4b32      	ldr	r3, [pc, #200]	; (810d4 <valuesforPWM+0x23c>)
   8100c:	4798      	blx	r3
   8100e:	bdf8      	pop	{r3, r4, r5, r6, r7, pc}
		}
		else if(finalULeft >= 0.251 && finalULeft <= 0.315){
   81010:	4620      	mov	r0, r4
   81012:	4629      	mov	r1, r5
   81014:	a328      	add	r3, pc, #160	; (adr r3, 810b8 <valuesforPWM+0x220>)
   81016:	e9d3 2300 	ldrd	r2, r3, [r3]
   8101a:	4e2f      	ldr	r6, [pc, #188]	; (810d8 <valuesforPWM+0x240>)
   8101c:	47b0      	blx	r6
   8101e:	2800      	cmp	r0, #0
   81020:	d05e      	beq.n	810e0 <valuesforPWM+0x248>
   81022:	4620      	mov	r0, r4
   81024:	4629      	mov	r1, r5
   81026:	a326      	add	r3, pc, #152	; (adr r3, 810c0 <valuesforPWM+0x228>)
   81028:	e9d3 2300 	ldrd	r2, r3, [r3]
   8102c:	4e28      	ldr	r6, [pc, #160]	; (810d0 <valuesforPWM+0x238>)
   8102e:	47b0      	blx	r6
   81030:	2800      	cmp	r0, #0
   81032:	d055      	beq.n	810e0 <valuesforPWM+0x248>
			LeftWheelPWM(1230);
   81034:	f240 40ce 	movw	r0, #1230	; 0x4ce
   81038:	4b26      	ldr	r3, [pc, #152]	; (810d4 <valuesforPWM+0x23c>)
   8103a:	4798      	blx	r3
   8103c:	bdf8      	pop	{r3, r4, r5, r6, r7, pc}
   8103e:	bf00      	nop
   81040:	d2f1a9fc 	.word	0xd2f1a9fc
   81044:	3f90624d 	.word	0x3f90624d
   81048:	b020c49c 	.word	0xb020c49c
   8104c:	3f916872 	.word	0x3f916872
   81050:	76c8b439 	.word	0x76c8b439
   81054:	3f9a9fbe 	.word	0x3f9a9fbe
   81058:	4189374c 	.word	0x4189374c
   8105c:	3fa0e560 	.word	0x3fa0e560
   81060:	b020c49c 	.word	0xb020c49c
   81064:	3fa16872 	.word	0x3fa16872
   81068:	a1cac083 	.word	0xa1cac083
   8106c:	3fb3b645 	.word	0x3fb3b645
   81070:	d916872b 	.word	0xd916872b
   81074:	3fb3f7ce 	.word	0x3fb3f7ce
   81078:	d0e56042 	.word	0xd0e56042
   8107c:	3fb9db22 	.word	0x3fb9db22
   81080:	083126e9 	.word	0x083126e9
   81084:	3fba1cac 	.word	0x3fba1cac
   81088:	978d4fdf 	.word	0x978d4fdf
   8108c:	3fc3126e 	.word	0x3fc3126e
   81090:	33333333 	.word	0x33333333
   81094:	3fc33333 	.word	0x3fc33333
   81098:	f3b645a2 	.word	0xf3b645a2
   8109c:	3fc8d4fd 	.word	0x3fc8d4fd
   810a0:	8f5c28f6 	.word	0x8f5c28f6
   810a4:	3fc8f5c2 	.word	0x3fc8f5c2
   810a8:	e5604189 	.word	0xe5604189
   810ac:	3fcb22d0 	.word	0x3fcb22d0
   810b0:	810624dd 	.word	0x810624dd
   810b4:	3fcb4395 	.word	0x3fcb4395
   810b8:	4dd2f1aa 	.word	0x4dd2f1aa
   810bc:	3fd01062 	.word	0x3fd01062
   810c0:	c28f5c29 	.word	0xc28f5c29
   810c4:	3fd428f5 	.word	0x3fd428f5
   810c8:	20070264 	.word	0x20070264
   810cc:	00086335 	.word	0x00086335
   810d0:	000868d5 	.word	0x000868d5
   810d4:	000803d9 	.word	0x000803d9
   810d8:	000868e9 	.word	0x000868e9
   810dc:	00086ecd 	.word	0x00086ecd
		}
		else if(finalULeft >= 0.316 && finalULeft <= 0.379){
   810e0:	4620      	mov	r0, r4
   810e2:	4629      	mov	r1, r5
   810e4:	a314      	add	r3, pc, #80	; (adr r3, 81138 <valuesforPWM+0x2a0>)
   810e6:	e9d3 2300 	ldrd	r2, r3, [r3]
   810ea:	4e19      	ldr	r6, [pc, #100]	; (81150 <valuesforPWM+0x2b8>)
   810ec:	47b0      	blx	r6
   810ee:	b160      	cbz	r0, 8110a <valuesforPWM+0x272>
   810f0:	4620      	mov	r0, r4
   810f2:	4629      	mov	r1, r5
   810f4:	a312      	add	r3, pc, #72	; (adr r3, 81140 <valuesforPWM+0x2a8>)
   810f6:	e9d3 2300 	ldrd	r2, r3, [r3]
   810fa:	4e16      	ldr	r6, [pc, #88]	; (81154 <valuesforPWM+0x2bc>)
   810fc:	47b0      	blx	r6
   810fe:	b120      	cbz	r0, 8110a <valuesforPWM+0x272>
			LeftWheelPWM(1210);
   81100:	f240 40ba 	movw	r0, #1210	; 0x4ba
   81104:	4b14      	ldr	r3, [pc, #80]	; (81158 <valuesforPWM+0x2c0>)
   81106:	4798      	blx	r3
   81108:	bdf8      	pop	{r3, r4, r5, r6, r7, pc}
		}
		else if(finalULeft > 0.38){
   8110a:	4620      	mov	r0, r4
   8110c:	4629      	mov	r1, r5
   8110e:	a30e      	add	r3, pc, #56	; (adr r3, 81148 <valuesforPWM+0x2b0>)
   81110:	e9d3 2300 	ldrd	r2, r3, [r3]
   81114:	4c11      	ldr	r4, [pc, #68]	; (8115c <valuesforPWM+0x2c4>)
   81116:	47a0      	blx	r4
   81118:	b150      	cbz	r0, 81130 <valuesforPWM+0x298>
			LeftWheelPWM(1200);
   8111a:	f44f 6096 	mov.w	r0, #1200	; 0x4b0
   8111e:	4b0e      	ldr	r3, [pc, #56]	; (81158 <valuesforPWM+0x2c0>)
   81120:	4798      	blx	r3
   81122:	bdf8      	pop	{r3, r4, r5, r6, r7, pc}
		}
	} else if(thedriveflagleft == 1)
   81124:	2b01      	cmp	r3, #1
   81126:	d103      	bne.n	81130 <valuesforPWM+0x298>
	{
		LeftWheelPWM(1700);
   81128:	f240 60a4 	movw	r0, #1700	; 0x6a4
   8112c:	4b0a      	ldr	r3, [pc, #40]	; (81158 <valuesforPWM+0x2c0>)
   8112e:	4798      	blx	r3
   81130:	bdf8      	pop	{r3, r4, r5, r6, r7, pc}
   81132:	bf00      	nop
   81134:	f3af 8000 	nop.w
   81138:	10624dd3 	.word	0x10624dd3
   8113c:	3fd43958 	.word	0x3fd43958
   81140:	374bc6a8 	.word	0x374bc6a8
   81144:	3fd84189 	.word	0x3fd84189
   81148:	851eb852 	.word	0x851eb852
   8114c:	3fd851eb 	.word	0x3fd851eb
   81150:	000868e9 	.word	0x000868e9
   81154:	000868d5 	.word	0x000868d5
   81158:	000803d9 	.word	0x000803d9
   8115c:	000868fd 	.word	0x000868fd

00081160 <TaskPIDLeft>:
for running the wheel with a PID-regulator. It calls on a function containing
the actual PID and another function translating actual speed values to PWM
signals.
**************************************************************************/
void TaskPIDLeft(void *p)
{
   81160:	e92d 4ff0 	stmdb	sp!, {r4, r5, r6, r7, r8, r9, sl, fp, lr}
   81164:	b083      	sub	sp, #12
	
	uint32_t joystick_y;
	uint32_t joystick_x;
	portTickType xLastWakeTime; //Last time the task was active.
	portTickType xSampleTime;
	xLastWakeTime = xTaskGetTickCount();
   81166:	4b3b      	ldr	r3, [pc, #236]	; (81254 <TaskPIDLeft+0xf4>)
   81168:	4798      	blx	r3
   8116a:	9001      	str	r0, [sp, #4]
	uint32_t temp;
	int averageSensorValue = 0;
   8116c:	2500      	movs	r5, #0
	while(1){
		xSampleTime = (portTickType)sampleTimeLeft;
		vTaskDelayUntil(&xLastWakeTime, xSampleTime); //Wait for the next cycle the task will be active.
   8116e:	a801      	add	r0, sp, #4
   81170:	2132      	movs	r1, #50	; 0x32
   81172:	4b39      	ldr	r3, [pc, #228]	; (81258 <TaskPIDLeft+0xf8>)
   81174:	4798      	blx	r3
		
		int32_t temp;
		if(desiredValueLeft != 0){
   81176:	4b39      	ldr	r3, [pc, #228]	; (8125c <TaskPIDLeft+0xfc>)
   81178:	f8d3 9000 	ldr.w	r9, [r3]
   8117c:	4648      	mov	r0, r9
   8117e:	2100      	movs	r1, #0
   81180:	4b37      	ldr	r3, [pc, #220]	; (81260 <TaskPIDLeft+0x100>)
   81182:	4798      	blx	r3
   81184:	2800      	cmp	r0, #0
   81186:	d159      	bne.n	8123c <TaskPIDLeft+0xdc>
			filterLeft[POSITIONS-1] = hastighetLeftWheel;
   81188:	f8df b0e8 	ldr.w	fp, [pc, #232]	; 81274 <TaskPIDLeft+0x114>
   8118c:	4b35      	ldr	r3, [pc, #212]	; (81264 <TaskPIDLeft+0x104>)
   8118e:	6818      	ldr	r0, [r3, #0]
   81190:	4b35      	ldr	r3, [pc, #212]	; (81268 <TaskPIDLeft+0x108>)
   81192:	4798      	blx	r3
   81194:	f8cb 0014 	str.w	r0, [fp, #20]
   81198:	f1ab 0404 	sub.w	r4, fp, #4
   8119c:	f10b 0614 	add.w	r6, fp, #20
			
			
			for(int i = 0; i<POSITIONS; i++)
			{
				averageSensorValue =  (averageSensorValue + filterLeft[i]);
   811a0:	f8df a108 	ldr.w	sl, [pc, #264]	; 812ac <TaskPIDLeft+0x14c>
   811a4:	f8df 80e8 	ldr.w	r8, [pc, #232]	; 81290 <TaskPIDLeft+0x130>
   811a8:	4f30      	ldr	r7, [pc, #192]	; (8126c <TaskPIDLeft+0x10c>)
   811aa:	4628      	mov	r0, r5
   811ac:	47d0      	blx	sl
   811ae:	f854 1f04 	ldr.w	r1, [r4, #4]!
   811b2:	47c0      	blx	r8
   811b4:	47b8      	blx	r7
		int32_t temp;
		if(desiredValueLeft != 0){
			filterLeft[POSITIONS-1] = hastighetLeftWheel;
			
			
			for(int i = 0; i<POSITIONS; i++)
   811b6:	42b4      	cmp	r4, r6
   811b8:	d1f8      	bne.n	811ac <TaskPIDLeft+0x4c>
			{
				averageSensorValue =  (averageSensorValue + filterLeft[i]);
			}
			
			averageSensorValue =  (averageSensorValue / POSITIONS);
   811ba:	4a2d      	ldr	r2, [pc, #180]	; (81270 <TaskPIDLeft+0x110>)
   811bc:	fb82 2300 	smull	r2, r3, r2, r0
   811c0:	eba3 75e0 	sub.w	r5, r3, r0, asr #31
   811c4:	465b      	mov	r3, fp
			
			for(int i = 0; i<POSITIONS-1; i++)
			{
				filterLeft[i] = filterLeft[i+1];
   811c6:	685a      	ldr	r2, [r3, #4]
   811c8:	f843 2b04 	str.w	r2, [r3], #4
				averageSensorValue =  (averageSensorValue + filterLeft[i]);
			}
			
			averageSensorValue =  (averageSensorValue / POSITIONS);
			
			for(int i = 0; i<POSITIONS-1; i++)
   811cc:	42b3      	cmp	r3, r6
   811ce:	d1fa      	bne.n	811c6 <TaskPIDLeft+0x66>
			{
				filterLeft[i] = filterLeft[i+1];
			}
			
			filterLeft[POSITIONS-1] = 0;
   811d0:	4b28      	ldr	r3, [pc, #160]	; (81274 <TaskPIDLeft+0x114>)
   811d2:	2200      	movs	r2, #0
   811d4:	615a      	str	r2, [r3, #20]
			currentVLeft = averageSensorValue;
   811d6:	f8df 80d4 	ldr.w	r8, [pc, #212]	; 812ac <TaskPIDLeft+0x14c>
   811da:	4628      	mov	r0, r5
   811dc:	47c0      	blx	r8
   811de:	4b26      	ldr	r3, [pc, #152]	; (81278 <TaskPIDLeft+0x118>)
   811e0:	6018      	str	r0, [r3, #0]
			errorLeft =  (float) ((float)desiredValueLeft - (float)(currentVLeft/1000));
   811e2:	4926      	ldr	r1, [pc, #152]	; (8127c <TaskPIDLeft+0x11c>)
   811e4:	4b26      	ldr	r3, [pc, #152]	; (81280 <TaskPIDLeft+0x120>)
   811e6:	4798      	blx	r3
   811e8:	4601      	mov	r1, r0
   811ea:	4e26      	ldr	r6, [pc, #152]	; (81284 <TaskPIDLeft+0x124>)
   811ec:	4648      	mov	r0, r9
   811ee:	47b0      	blx	r6
   811f0:	4604      	mov	r4, r0
   811f2:	4b25      	ldr	r3, [pc, #148]	; (81288 <TaskPIDLeft+0x128>)
   811f4:	6018      	str	r0, [r3, #0]
			prevErrorLeft = errorLeft;
   811f6:	4b25      	ldr	r3, [pc, #148]	; (8128c <TaskPIDLeft+0x12c>)
   811f8:	6018      	str	r0, [r3, #0]
			wLeft = wLeft + errorLeft;
   811fa:	f8df a0b4 	ldr.w	sl, [pc, #180]	; 812b0 <TaskPIDLeft+0x150>
   811fe:	4f24      	ldr	r7, [pc, #144]	; (81290 <TaskPIDLeft+0x130>)
   81200:	f8da 1000 	ldr.w	r1, [sl]
   81204:	47b8      	blx	r7
   81206:	4681      	mov	r9, r0
   81208:	f8ca 0000 	str.w	r0, [sl]
	float derivingPart;
	float signal;
	
	proportionalPart = (float)currErr;
	integralPart = (float)(sumErr * (sampTime/k_i));
	derivingPart = ((float)currErr - (float)prevErr) * (float)(k_d / sampTime);
   8120c:	4620      	mov	r0, r4
   8120e:	4621      	mov	r1, r4
   81210:	47b0      	blx	r6
   81212:	4e20      	ldr	r6, [pc, #128]	; (81294 <TaskPIDLeft+0x134>)
   81214:	4920      	ldr	r1, [pc, #128]	; (81298 <TaskPIDLeft+0x138>)
   81216:	47b0      	blx	r6
   81218:	4682      	mov	sl, r0
			currentVLeft = averageSensorValue;
			errorLeft =  (float) ((float)desiredValueLeft - (float)(currentVLeft/1000));
			prevErrorLeft = errorLeft;
			wLeft = wLeft + errorLeft;

			finalULeft = (float)CalcSignal(samplingTimeLeft, kpLeft, kiLeft, kdLeft, errorLeft, prevErrorLeft, wLeft);
   8121a:	4648      	mov	r0, r9
   8121c:	4b13      	ldr	r3, [pc, #76]	; (8126c <TaskPIDLeft+0x10c>)
   8121e:	4798      	blx	r3
	float integralPart;
	float derivingPart;
	float signal;
	
	proportionalPart = (float)currErr;
	integralPart = (float)(sumErr * (sampTime/k_i));
   81220:	47c0      	blx	r8
   81222:	491e      	ldr	r1, [pc, #120]	; (8129c <TaskPIDLeft+0x13c>)
   81224:	47b0      	blx	r6
   81226:	4601      	mov	r1, r0
	derivingPart = ((float)currErr - (float)prevErr) * (float)(k_d / sampTime);
	signal = (float)k_p * ((float)(proportionalPart + integralPart + derivingPart));
   81228:	4620      	mov	r0, r4
   8122a:	47b8      	blx	r7
   8122c:	4601      	mov	r1, r0
   8122e:	4650      	mov	r0, sl
   81230:	47b8      	blx	r7
   81232:	491b      	ldr	r1, [pc, #108]	; (812a0 <TaskPIDLeft+0x140>)
   81234:	47b0      	blx	r6
			currentVLeft = averageSensorValue;
			errorLeft =  (float) ((float)desiredValueLeft - (float)(currentVLeft/1000));
			prevErrorLeft = errorLeft;
			wLeft = wLeft + errorLeft;

			finalULeft = (float)CalcSignal(samplingTimeLeft, kpLeft, kiLeft, kdLeft, errorLeft, prevErrorLeft, wLeft);
   81236:	4b1b      	ldr	r3, [pc, #108]	; (812a4 <TaskPIDLeft+0x144>)
   81238:	6018      	str	r0, [r3, #0]
   8123a:	e005      	b.n	81248 <TaskPIDLeft+0xe8>

			
			
		}
		else{
			finalULeft = 0.0;
   8123c:	4b19      	ldr	r3, [pc, #100]	; (812a4 <TaskPIDLeft+0x144>)
   8123e:	2200      	movs	r2, #0
   81240:	601a      	str	r2, [r3, #0]
			temp = 0;
			averageSensorValue = 0;
			currentVLeft = 0;
   81242:	4b0d      	ldr	r3, [pc, #52]	; (81278 <TaskPIDLeft+0x118>)
   81244:	601a      	str	r2, [r3, #0]
			
		}
		else{
			finalULeft = 0.0;
			temp = 0;
			averageSensorValue = 0;
   81246:	2500      	movs	r5, #0
			currentVLeft = 0;
		}

		valuesforPWM(finalULeft);
   81248:	4b16      	ldr	r3, [pc, #88]	; (812a4 <TaskPIDLeft+0x144>)
   8124a:	6818      	ldr	r0, [r3, #0]
   8124c:	4b16      	ldr	r3, [pc, #88]	; (812a8 <TaskPIDLeft+0x148>)
   8124e:	4798      	blx	r3
		//SendControlSignalLeftPID(temp, desiredValueLeft,errorLeft,averageSensorValue);
		
	}
   81250:	e78d      	b.n	8116e <TaskPIDLeft+0xe>
   81252:	bf00      	nop
   81254:	00082b59 	.word	0x00082b59
   81258:	00082da1 	.word	0x00082da1
   8125c:	2007028c 	.word	0x2007028c
   81260:	00086ea5 	.word	0x00086ea5
   81264:	200785b8 	.word	0x200785b8
   81268:	00086acd 	.word	0x00086acd
   8126c:	00086f09 	.word	0x00086f09
   81270:	2aaaaaab 	.word	0x2aaaaaab
   81274:	20070270 	.word	0x20070270
   81278:	20070268 	.word	0x20070268
   8127c:	447a0000 	.word	0x447a0000
   81280:	00086ce5 	.word	0x00086ce5
   81284:	00086969 	.word	0x00086969
   81288:	2007025c 	.word	0x2007025c
   8128c:	20070288 	.word	0x20070288
   81290:	0008696d 	.word	0x0008696d
   81294:	00086b7d 	.word	0x00086b7d
   81298:	3ffc26ff 	.word	0x3ffc26ff
   8129c:	3ccaac05 	.word	0x3ccaac05
   812a0:	3f8b404f 	.word	0x3f8b404f
   812a4:	2007026c 	.word	0x2007026c
   812a8:	00080e99 	.word	0x00080e99
   812ac:	00086ad5 	.word	0x00086ad5
   812b0:	20070260 	.word	0x20070260

000812b4 <SetPointLeftWheel>:

/*
* Sets value for drive forward and backwards and the setpoint for PID-regulator
*/
void SetPointLeftWheel(float setPoint,uint32_t drive){
	desiredValueLeft = setPoint;
   812b4:	4b02      	ldr	r3, [pc, #8]	; (812c0 <SetPointLeftWheel+0xc>)
   812b6:	6018      	str	r0, [r3, #0]
	thedriveflagleft = drive;
   812b8:	4b02      	ldr	r3, [pc, #8]	; (812c4 <SetPointLeftWheel+0x10>)
   812ba:	6019      	str	r1, [r3, #0]
   812bc:	4770      	bx	lr
   812be:	bf00      	nop
   812c0:	2007028c 	.word	0x2007028c
   812c4:	20070264 	.word	0x20070264

000812c8 <analogInit>:

/**************************************************************************
* Initializes the analog pins.
**************************************************************************/
int analogInit(void)
{
   812c8:	b538      	push	{r3, r4, r5, lr}
	pmc_enable_periph_clk(ID_ADC);
   812ca:	2025      	movs	r0, #37	; 0x25
   812cc:	4b11      	ldr	r3, [pc, #68]	; (81314 <analogInit+0x4c>)
   812ce:	4798      	blx	r3
	adc_init(ADC,sysclk_get_main_hz(),1000000,8);
   812d0:	4c11      	ldr	r4, [pc, #68]	; (81318 <analogInit+0x50>)
   812d2:	4620      	mov	r0, r4
   812d4:	4911      	ldr	r1, [pc, #68]	; (8131c <analogInit+0x54>)
   812d6:	4a12      	ldr	r2, [pc, #72]	; (81320 <analogInit+0x58>)
   812d8:	2308      	movs	r3, #8
   812da:	4d12      	ldr	r5, [pc, #72]	; (81324 <analogInit+0x5c>)
   812dc:	47a8      	blx	r5
	adc_configure_timing(ADC,0,ADC_SETTLING_TIME_3,1);
   812de:	4620      	mov	r0, r4
   812e0:	2100      	movs	r1, #0
   812e2:	f44f 1240 	mov.w	r2, #3145728	; 0x300000
   812e6:	2301      	movs	r3, #1
   812e8:	4d0f      	ldr	r5, [pc, #60]	; (81328 <analogInit+0x60>)
   812ea:	47a8      	blx	r5
	adc_set_resolution(ADC,ADC_MR_LOWRES_BITS_12);
   812ec:	4620      	mov	r0, r4
   812ee:	2100      	movs	r1, #0
   812f0:	4b0e      	ldr	r3, [pc, #56]	; (8132c <analogInit+0x64>)
   812f2:	4798      	blx	r3
	adc_enable_channel(ADC,ADC_CHANNEL_7);
   812f4:	4620      	mov	r0, r4
   812f6:	2107      	movs	r1, #7
   812f8:	4d0d      	ldr	r5, [pc, #52]	; (81330 <analogInit+0x68>)
   812fa:	47a8      	blx	r5
	adc_enable_channel(ADC,ADC_CHANNEL_6);
   812fc:	4620      	mov	r0, r4
   812fe:	2106      	movs	r1, #6
   81300:	47a8      	blx	r5
	adc_enable_channel(ADC,ADC_CHANNEL_5);
   81302:	4620      	mov	r0, r4
   81304:	2105      	movs	r1, #5
   81306:	47a8      	blx	r5
	adc_configure_trigger(ADC,ADC_TRIG_SW,0);
   81308:	4620      	mov	r0, r4
   8130a:	2100      	movs	r1, #0
   8130c:	460a      	mov	r2, r1
   8130e:	4b09      	ldr	r3, [pc, #36]	; (81334 <analogInit+0x6c>)
   81310:	4798      	blx	r3
}
   81312:	bd38      	pop	{r3, r4, r5, pc}
   81314:	00081af1 	.word	0x00081af1
   81318:	400c0000 	.word	0x400c0000
   8131c:	0a037a00 	.word	0x0a037a00
   81320:	000f4240 	.word	0x000f4240
   81324:	000815b5 	.word	0x000815b5
   81328:	00081609 	.word	0x00081609
   8132c:	000815e9 	.word	0x000815e9
   81330:	00081631 	.word	0x00081631
   81334:	000815f9 	.word	0x000815f9

00081338 <ReadAnalog0>:
/***************************************************************************
* Reads the Analog 0 pin on Due.
* Retun values for the x-axis of the joystick.
***************************************************************************/
uint32_t ReadAnalog0(void)
{
   81338:	b510      	push	{r4, lr}
	uint32_t xAngle;
	adc_start(ADC);
   8133a:	4c04      	ldr	r4, [pc, #16]	; (8134c <ReadAnalog0+0x14>)
   8133c:	4620      	mov	r0, r4
   8133e:	4b04      	ldr	r3, [pc, #16]	; (81350 <ReadAnalog0+0x18>)
   81340:	4798      	blx	r3
	xAngle = adc_get_channel_value(ADC,ADC_CHANNEL_7);
   81342:	4620      	mov	r0, r4
   81344:	2107      	movs	r1, #7
   81346:	4b03      	ldr	r3, [pc, #12]	; (81354 <ReadAnalog0+0x1c>)
   81348:	4798      	blx	r3
	return xAngle;
}
   8134a:	bd10      	pop	{r4, pc}
   8134c:	400c0000 	.word	0x400c0000
   81350:	00081629 	.word	0x00081629
   81354:	0008163d 	.word	0x0008163d

00081358 <ReadAnalog1>:
/****************************************************************************
* Reads the Analog 1 pin on Due.
* Retun values for the y-axis of the joystick.
****************************************************************************/
uint32_t ReadAnalog1(void)
{
   81358:	b510      	push	{r4, lr}
	uint32_t yAngle;
	adc_start(ADC);
   8135a:	4c04      	ldr	r4, [pc, #16]	; (8136c <ReadAnalog1+0x14>)
   8135c:	4620      	mov	r0, r4
   8135e:	4b04      	ldr	r3, [pc, #16]	; (81370 <ReadAnalog1+0x18>)
   81360:	4798      	blx	r3
	yAngle = adc_get_channel_value(ADC,ADC_CHANNEL_6);
   81362:	4620      	mov	r0, r4
   81364:	2106      	movs	r1, #6
   81366:	4b03      	ldr	r3, [pc, #12]	; (81374 <ReadAnalog1+0x1c>)
   81368:	4798      	blx	r3
	return yAngle;
}
   8136a:	bd10      	pop	{r4, pc}
   8136c:	400c0000 	.word	0x400c0000
   81370:	00081629 	.word	0x00081629
   81374:	0008163d 	.word	0x0008163d

00081378 <sysclk_init>:
   81378:	b510      	push	{r4, lr}
   8137a:	480e      	ldr	r0, [pc, #56]	; (813b4 <sysclk_init+0x3c>)
   8137c:	4b0e      	ldr	r3, [pc, #56]	; (813b8 <sysclk_init+0x40>)
   8137e:	4798      	blx	r3
   81380:	2000      	movs	r0, #0
   81382:	213e      	movs	r1, #62	; 0x3e
   81384:	4b0d      	ldr	r3, [pc, #52]	; (813bc <sysclk_init+0x44>)
   81386:	4798      	blx	r3
   81388:	4c0d      	ldr	r4, [pc, #52]	; (813c0 <sysclk_init+0x48>)
   8138a:	47a0      	blx	r4
   8138c:	2800      	cmp	r0, #0
   8138e:	d0fc      	beq.n	8138a <sysclk_init+0x12>
   81390:	4b0c      	ldr	r3, [pc, #48]	; (813c4 <sysclk_init+0x4c>)
   81392:	4798      	blx	r3
   81394:	4a0c      	ldr	r2, [pc, #48]	; (813c8 <sysclk_init+0x50>)
   81396:	4b0d      	ldr	r3, [pc, #52]	; (813cc <sysclk_init+0x54>)
   81398:	629a      	str	r2, [r3, #40]	; 0x28
   8139a:	4c0d      	ldr	r4, [pc, #52]	; (813d0 <sysclk_init+0x58>)
   8139c:	47a0      	blx	r4
   8139e:	2800      	cmp	r0, #0
   813a0:	d0fc      	beq.n	8139c <sysclk_init+0x24>
   813a2:	2010      	movs	r0, #16
   813a4:	4b0b      	ldr	r3, [pc, #44]	; (813d4 <sysclk_init+0x5c>)
   813a6:	4798      	blx	r3
   813a8:	4b0b      	ldr	r3, [pc, #44]	; (813d8 <sysclk_init+0x60>)
   813aa:	4798      	blx	r3
   813ac:	4801      	ldr	r0, [pc, #4]	; (813b4 <sysclk_init+0x3c>)
   813ae:	4b02      	ldr	r3, [pc, #8]	; (813b8 <sysclk_init+0x40>)
   813b0:	4798      	blx	r3
   813b2:	bd10      	pop	{r4, pc}
   813b4:	0501bd00 	.word	0x0501bd00
   813b8:	200700a5 	.word	0x200700a5
   813bc:	00081a6d 	.word	0x00081a6d
   813c0:	00081ac1 	.word	0x00081ac1
   813c4:	00081ad1 	.word	0x00081ad1
   813c8:	200d3f01 	.word	0x200d3f01
   813cc:	400e0600 	.word	0x400e0600
   813d0:	00081ae1 	.word	0x00081ae1
   813d4:	00081a09 	.word	0x00081a09
   813d8:	00081e81 	.word	0x00081e81

000813dc <usart_serial_read_packet>:
   813dc:	e92d 4ff0 	stmdb	sp!, {r4, r5, r6, r7, r8, r9, sl, fp, lr}
   813e0:	b083      	sub	sp, #12
   813e2:	4605      	mov	r5, r0
   813e4:	4690      	mov	r8, r2
   813e6:	2a00      	cmp	r2, #0
   813e8:	d047      	beq.n	8147a <usart_serial_read_packet+0x9e>
   813ea:	1c4e      	adds	r6, r1, #1
   813ec:	4f25      	ldr	r7, [pc, #148]	; (81484 <usart_serial_read_packet+0xa8>)
   813ee:	4c26      	ldr	r4, [pc, #152]	; (81488 <usart_serial_read_packet+0xac>)
   813f0:	f8df a0a8 	ldr.w	sl, [pc, #168]	; 8149c <usart_serial_read_packet+0xc0>
   813f4:	f8df b094 	ldr.w	fp, [pc, #148]	; 8148c <usart_serial_read_packet+0xb0>
   813f8:	f106 39ff 	add.w	r9, r6, #4294967295
   813fc:	2300      	movs	r3, #0
   813fe:	9301      	str	r3, [sp, #4]
   81400:	4b22      	ldr	r3, [pc, #136]	; (8148c <usart_serial_read_packet+0xb0>)
   81402:	429d      	cmp	r5, r3
   81404:	d106      	bne.n	81414 <usart_serial_read_packet+0x38>
   81406:	4658      	mov	r0, fp
   81408:	4649      	mov	r1, r9
   8140a:	4b21      	ldr	r3, [pc, #132]	; (81490 <usart_serial_read_packet+0xb4>)
   8140c:	4798      	blx	r3
   8140e:	2800      	cmp	r0, #0
   81410:	d1f9      	bne.n	81406 <usart_serial_read_packet+0x2a>
   81412:	e019      	b.n	81448 <usart_serial_read_packet+0x6c>
   81414:	4b1f      	ldr	r3, [pc, #124]	; (81494 <usart_serial_read_packet+0xb8>)
   81416:	429d      	cmp	r5, r3
   81418:	d109      	bne.n	8142e <usart_serial_read_packet+0x52>
   8141a:	4699      	mov	r9, r3
   8141c:	4648      	mov	r0, r9
   8141e:	a901      	add	r1, sp, #4
   81420:	47a0      	blx	r4
   81422:	2800      	cmp	r0, #0
   81424:	d1fa      	bne.n	8141c <usart_serial_read_packet+0x40>
   81426:	9b01      	ldr	r3, [sp, #4]
   81428:	f806 3c01 	strb.w	r3, [r6, #-1]
   8142c:	e017      	b.n	8145e <usart_serial_read_packet+0x82>
   8142e:	4b1a      	ldr	r3, [pc, #104]	; (81498 <usart_serial_read_packet+0xbc>)
   81430:	429d      	cmp	r5, r3
   81432:	d109      	bne.n	81448 <usart_serial_read_packet+0x6c>
   81434:	4699      	mov	r9, r3
   81436:	4648      	mov	r0, r9
   81438:	a901      	add	r1, sp, #4
   8143a:	47a0      	blx	r4
   8143c:	2800      	cmp	r0, #0
   8143e:	d1fa      	bne.n	81436 <usart_serial_read_packet+0x5a>
   81440:	9b01      	ldr	r3, [sp, #4]
   81442:	f806 3c01 	strb.w	r3, [r6, #-1]
   81446:	e014      	b.n	81472 <usart_serial_read_packet+0x96>
   81448:	4555      	cmp	r5, sl
   8144a:	d108      	bne.n	8145e <usart_serial_read_packet+0x82>
   8144c:	4650      	mov	r0, sl
   8144e:	a901      	add	r1, sp, #4
   81450:	47a0      	blx	r4
   81452:	2800      	cmp	r0, #0
   81454:	d1fa      	bne.n	8144c <usart_serial_read_packet+0x70>
   81456:	9b01      	ldr	r3, [sp, #4]
   81458:	f806 3c01 	strb.w	r3, [r6, #-1]
   8145c:	e009      	b.n	81472 <usart_serial_read_packet+0x96>
   8145e:	42bd      	cmp	r5, r7
   81460:	d107      	bne.n	81472 <usart_serial_read_packet+0x96>
   81462:	4638      	mov	r0, r7
   81464:	a901      	add	r1, sp, #4
   81466:	47a0      	blx	r4
   81468:	2800      	cmp	r0, #0
   8146a:	d1fa      	bne.n	81462 <usart_serial_read_packet+0x86>
   8146c:	9b01      	ldr	r3, [sp, #4]
   8146e:	f806 3c01 	strb.w	r3, [r6, #-1]
   81472:	3601      	adds	r6, #1
   81474:	f1b8 0801 	subs.w	r8, r8, #1
   81478:	d1be      	bne.n	813f8 <usart_serial_read_packet+0x1c>
   8147a:	2000      	movs	r0, #0
   8147c:	b003      	add	sp, #12
   8147e:	e8bd 8ff0 	ldmia.w	sp!, {r4, r5, r6, r7, r8, r9, sl, fp, pc}
   81482:	bf00      	nop
   81484:	400a4000 	.word	0x400a4000
   81488:	00081db5 	.word	0x00081db5
   8148c:	400e0800 	.word	0x400e0800
   81490:	00081d8d 	.word	0x00081d8d
   81494:	40098000 	.word	0x40098000
   81498:	4009c000 	.word	0x4009c000
   8149c:	400a0000 	.word	0x400a0000

000814a0 <_read>:
   814a0:	e92d 41f0 	stmdb	sp!, {r4, r5, r6, r7, r8, lr}
   814a4:	460c      	mov	r4, r1
   814a6:	4690      	mov	r8, r2
   814a8:	b960      	cbnz	r0, 814c4 <_read+0x24>
   814aa:	2a00      	cmp	r2, #0
   814ac:	dd0e      	ble.n	814cc <_read+0x2c>
   814ae:	188f      	adds	r7, r1, r2
   814b0:	4e09      	ldr	r6, [pc, #36]	; (814d8 <_read+0x38>)
   814b2:	4d0a      	ldr	r5, [pc, #40]	; (814dc <_read+0x3c>)
   814b4:	6830      	ldr	r0, [r6, #0]
   814b6:	4621      	mov	r1, r4
   814b8:	682b      	ldr	r3, [r5, #0]
   814ba:	4798      	blx	r3
   814bc:	3401      	adds	r4, #1
   814be:	42bc      	cmp	r4, r7
   814c0:	d1f8      	bne.n	814b4 <_read+0x14>
   814c2:	e006      	b.n	814d2 <_read+0x32>
   814c4:	f04f 30ff 	mov.w	r0, #4294967295
   814c8:	e8bd 81f0 	ldmia.w	sp!, {r4, r5, r6, r7, r8, pc}
   814cc:	2000      	movs	r0, #0
   814ce:	e8bd 81f0 	ldmia.w	sp!, {r4, r5, r6, r7, r8, pc}
   814d2:	4640      	mov	r0, r8
   814d4:	e8bd 81f0 	ldmia.w	sp!, {r4, r5, r6, r7, r8, pc}
   814d8:	200785c4 	.word	0x200785c4
   814dc:	200785bc 	.word	0x200785bc

000814e0 <_write>:
   814e0:	e92d 41f0 	stmdb	sp!, {r4, r5, r6, r7, r8, lr}
   814e4:	460e      	mov	r6, r1
   814e6:	4615      	mov	r5, r2
   814e8:	3801      	subs	r0, #1
   814ea:	2802      	cmp	r0, #2
   814ec:	d80f      	bhi.n	8150e <_write+0x2e>
   814ee:	b192      	cbz	r2, 81516 <_write+0x36>
   814f0:	2400      	movs	r4, #0
   814f2:	f8df 803c 	ldr.w	r8, [pc, #60]	; 81530 <_write+0x50>
   814f6:	4f0d      	ldr	r7, [pc, #52]	; (8152c <_write+0x4c>)
   814f8:	f8d8 0000 	ldr.w	r0, [r8]
   814fc:	5d31      	ldrb	r1, [r6, r4]
   814fe:	683b      	ldr	r3, [r7, #0]
   81500:	4798      	blx	r3
   81502:	2800      	cmp	r0, #0
   81504:	db0a      	blt.n	8151c <_write+0x3c>
   81506:	3401      	adds	r4, #1
   81508:	42a5      	cmp	r5, r4
   8150a:	d1f5      	bne.n	814f8 <_write+0x18>
   8150c:	e00a      	b.n	81524 <_write+0x44>
   8150e:	f04f 30ff 	mov.w	r0, #4294967295
   81512:	e8bd 81f0 	ldmia.w	sp!, {r4, r5, r6, r7, r8, pc}
   81516:	2000      	movs	r0, #0
   81518:	e8bd 81f0 	ldmia.w	sp!, {r4, r5, r6, r7, r8, pc}
   8151c:	f04f 30ff 	mov.w	r0, #4294967295
   81520:	e8bd 81f0 	ldmia.w	sp!, {r4, r5, r6, r7, r8, pc}
   81524:	4620      	mov	r0, r4
   81526:	e8bd 81f0 	ldmia.w	sp!, {r4, r5, r6, r7, r8, pc}
   8152a:	bf00      	nop
   8152c:	200785c0 	.word	0x200785c0
   81530:	200785c4 	.word	0x200785c4

00081534 <board_init>:
   81534:	b510      	push	{r4, lr}
   81536:	f44f 4200 	mov.w	r2, #32768	; 0x8000
   8153a:	4b17      	ldr	r3, [pc, #92]	; (81598 <board_init+0x64>)
   8153c:	605a      	str	r2, [r3, #4]
   8153e:	200b      	movs	r0, #11
   81540:	4c16      	ldr	r4, [pc, #88]	; (8159c <board_init+0x68>)
   81542:	47a0      	blx	r4
   81544:	200c      	movs	r0, #12
   81546:	47a0      	blx	r4
   81548:	200d      	movs	r0, #13
   8154a:	47a0      	blx	r4
   8154c:	200e      	movs	r0, #14
   8154e:	47a0      	blx	r4
   81550:	203b      	movs	r0, #59	; 0x3b
   81552:	f04f 5160 	mov.w	r1, #939524096	; 0x38000000
   81556:	4c12      	ldr	r4, [pc, #72]	; (815a0 <board_init+0x6c>)
   81558:	47a0      	blx	r4
   8155a:	2055      	movs	r0, #85	; 0x55
   8155c:	f04f 5160 	mov.w	r1, #939524096	; 0x38000000
   81560:	47a0      	blx	r4
   81562:	2056      	movs	r0, #86	; 0x56
   81564:	f04f 5160 	mov.w	r1, #939524096	; 0x38000000
   81568:	47a0      	blx	r4
   8156a:	2068      	movs	r0, #104	; 0x68
   8156c:	490d      	ldr	r1, [pc, #52]	; (815a4 <board_init+0x70>)
   8156e:	47a0      	blx	r4
   81570:	205c      	movs	r0, #92	; 0x5c
   81572:	490d      	ldr	r1, [pc, #52]	; (815a8 <board_init+0x74>)
   81574:	47a0      	blx	r4
   81576:	480d      	ldr	r0, [pc, #52]	; (815ac <board_init+0x78>)
   81578:	f44f 7140 	mov.w	r1, #768	; 0x300
   8157c:	f04f 6200 	mov.w	r2, #134217728	; 0x8000000
   81580:	4b0b      	ldr	r3, [pc, #44]	; (815b0 <board_init+0x7c>)
   81582:	4798      	blx	r3
   81584:	202b      	movs	r0, #43	; 0x2b
   81586:	f04f 6100 	mov.w	r1, #134217728	; 0x8000000
   8158a:	47a0      	blx	r4
   8158c:	202a      	movs	r0, #42	; 0x2a
   8158e:	f04f 6100 	mov.w	r1, #134217728	; 0x8000000
   81592:	47a0      	blx	r4
   81594:	bd10      	pop	{r4, pc}
   81596:	bf00      	nop
   81598:	400e1a50 	.word	0x400e1a50
   8159c:	00081af1 	.word	0x00081af1
   815a0:	000817b1 	.word	0x000817b1
   815a4:	28000079 	.word	0x28000079
   815a8:	28000001 	.word	0x28000001
   815ac:	400e0e00 	.word	0x400e0e00
   815b0:	00081885 	.word	0x00081885

000815b4 <adc_init>:
   815b4:	b430      	push	{r4, r5}
   815b6:	2401      	movs	r4, #1
   815b8:	6004      	str	r4, [r0, #0]
   815ba:	2400      	movs	r4, #0
   815bc:	6044      	str	r4, [r0, #4]
   815be:	f240 2502 	movw	r5, #514	; 0x202
   815c2:	f8c0 5120 	str.w	r5, [r0, #288]	; 0x120
   815c6:	f8c0 4104 	str.w	r4, [r0, #260]	; 0x104
   815ca:	f8c0 4114 	str.w	r4, [r0, #276]	; 0x114
   815ce:	6845      	ldr	r5, [r0, #4]
   815d0:	432b      	orrs	r3, r5
   815d2:	0052      	lsls	r2, r2, #1
   815d4:	fbb1 f1f2 	udiv	r1, r1, r2
   815d8:	1e4d      	subs	r5, r1, #1
   815da:	022d      	lsls	r5, r5, #8
   815dc:	b2ad      	uxth	r5, r5
   815de:	432b      	orrs	r3, r5
   815e0:	6043      	str	r3, [r0, #4]
   815e2:	4620      	mov	r0, r4
   815e4:	bc30      	pop	{r4, r5}
   815e6:	4770      	bx	lr

000815e8 <adc_set_resolution>:
   815e8:	6843      	ldr	r3, [r0, #4]
   815ea:	f023 0310 	bic.w	r3, r3, #16
   815ee:	6043      	str	r3, [r0, #4]
   815f0:	6843      	ldr	r3, [r0, #4]
   815f2:	4319      	orrs	r1, r3
   815f4:	6041      	str	r1, [r0, #4]
   815f6:	4770      	bx	lr

000815f8 <adc_configure_trigger>:
   815f8:	6843      	ldr	r3, [r0, #4]
   815fa:	4319      	orrs	r1, r3
   815fc:	01d2      	lsls	r2, r2, #7
   815fe:	b2d3      	uxtb	r3, r2
   81600:	4319      	orrs	r1, r3
   81602:	6041      	str	r1, [r0, #4]
   81604:	4770      	bx	lr
   81606:	bf00      	nop

00081608 <adc_configure_timing>:
   81608:	b410      	push	{r4}
   8160a:	6844      	ldr	r4, [r0, #4]
   8160c:	4322      	orrs	r2, r4
   8160e:	0609      	lsls	r1, r1, #24
   81610:	f001 6470 	and.w	r4, r1, #251658240	; 0xf000000
   81614:	4322      	orrs	r2, r4
   81616:	071b      	lsls	r3, r3, #28
   81618:	f003 5340 	and.w	r3, r3, #805306368	; 0x30000000
   8161c:	431a      	orrs	r2, r3
   8161e:	6042      	str	r2, [r0, #4]
   81620:	f85d 4b04 	ldr.w	r4, [sp], #4
   81624:	4770      	bx	lr
   81626:	bf00      	nop

00081628 <adc_start>:
   81628:	2302      	movs	r3, #2
   8162a:	6003      	str	r3, [r0, #0]
   8162c:	4770      	bx	lr
   8162e:	bf00      	nop

00081630 <adc_enable_channel>:
   81630:	2301      	movs	r3, #1
   81632:	fa03 f101 	lsl.w	r1, r3, r1
   81636:	6101      	str	r1, [r0, #16]
   81638:	4770      	bx	lr
   8163a:	bf00      	nop

0008163c <adc_get_channel_value>:
   8163c:	290f      	cmp	r1, #15
   8163e:	bf9a      	itte	ls
   81640:	3114      	addls	r1, #20
   81642:	f850 0021 	ldrls.w	r0, [r0, r1, lsl #2]
   81646:	2000      	movhi	r0, #0
   81648:	4770      	bx	lr
   8164a:	bf00      	nop

0008164c <pio_set_peripheral>:
   8164c:	6442      	str	r2, [r0, #68]	; 0x44
   8164e:	f1b1 5f80 	cmp.w	r1, #268435456	; 0x10000000
   81652:	d016      	beq.n	81682 <pio_set_peripheral+0x36>
   81654:	d804      	bhi.n	81660 <pio_set_peripheral+0x14>
   81656:	b1c1      	cbz	r1, 8168a <pio_set_peripheral+0x3e>
   81658:	f1b1 6f00 	cmp.w	r1, #134217728	; 0x8000000
   8165c:	d00a      	beq.n	81674 <pio_set_peripheral+0x28>
   8165e:	e013      	b.n	81688 <pio_set_peripheral+0x3c>
   81660:	f1b1 5f40 	cmp.w	r1, #805306368	; 0x30000000
   81664:	d011      	beq.n	8168a <pio_set_peripheral+0x3e>
   81666:	f1b1 5f60 	cmp.w	r1, #939524096	; 0x38000000
   8166a:	d00e      	beq.n	8168a <pio_set_peripheral+0x3e>
   8166c:	f1b1 5f20 	cmp.w	r1, #671088640	; 0x28000000
   81670:	d10a      	bne.n	81688 <pio_set_peripheral+0x3c>
   81672:	4770      	bx	lr
   81674:	6f03      	ldr	r3, [r0, #112]	; 0x70
   81676:	6f01      	ldr	r1, [r0, #112]	; 0x70
   81678:	400b      	ands	r3, r1
   8167a:	ea23 0302 	bic.w	r3, r3, r2
   8167e:	6703      	str	r3, [r0, #112]	; 0x70
   81680:	e002      	b.n	81688 <pio_set_peripheral+0x3c>
   81682:	6f03      	ldr	r3, [r0, #112]	; 0x70
   81684:	4313      	orrs	r3, r2
   81686:	6703      	str	r3, [r0, #112]	; 0x70
   81688:	6042      	str	r2, [r0, #4]
   8168a:	4770      	bx	lr

0008168c <pio_set_input>:
   8168c:	6441      	str	r1, [r0, #68]	; 0x44
   8168e:	f012 0f01 	tst.w	r2, #1
   81692:	bf14      	ite	ne
   81694:	6641      	strne	r1, [r0, #100]	; 0x64
   81696:	6601      	streq	r1, [r0, #96]	; 0x60
   81698:	f012 0f0a 	tst.w	r2, #10
   8169c:	bf14      	ite	ne
   8169e:	6201      	strne	r1, [r0, #32]
   816a0:	6241      	streq	r1, [r0, #36]	; 0x24
   816a2:	f012 0f02 	tst.w	r2, #2
   816a6:	d002      	beq.n	816ae <pio_set_input+0x22>
   816a8:	f8c0 1080 	str.w	r1, [r0, #128]	; 0x80
   816ac:	e004      	b.n	816b8 <pio_set_input+0x2c>
   816ae:	f012 0f08 	tst.w	r2, #8
   816b2:	bf18      	it	ne
   816b4:	f8c0 1084 	strne.w	r1, [r0, #132]	; 0x84
   816b8:	6141      	str	r1, [r0, #20]
   816ba:	6001      	str	r1, [r0, #0]
   816bc:	4770      	bx	lr
   816be:	bf00      	nop

000816c0 <pio_set_output>:
   816c0:	b410      	push	{r4}
   816c2:	6441      	str	r1, [r0, #68]	; 0x44
   816c4:	9c01      	ldr	r4, [sp, #4]
   816c6:	b10c      	cbz	r4, 816cc <pio_set_output+0xc>
   816c8:	6641      	str	r1, [r0, #100]	; 0x64
   816ca:	e000      	b.n	816ce <pio_set_output+0xe>
   816cc:	6601      	str	r1, [r0, #96]	; 0x60
   816ce:	b10b      	cbz	r3, 816d4 <pio_set_output+0x14>
   816d0:	6501      	str	r1, [r0, #80]	; 0x50
   816d2:	e000      	b.n	816d6 <pio_set_output+0x16>
   816d4:	6541      	str	r1, [r0, #84]	; 0x54
   816d6:	b10a      	cbz	r2, 816dc <pio_set_output+0x1c>
   816d8:	6301      	str	r1, [r0, #48]	; 0x30
   816da:	e000      	b.n	816de <pio_set_output+0x1e>
   816dc:	6341      	str	r1, [r0, #52]	; 0x34
   816de:	6101      	str	r1, [r0, #16]
   816e0:	6001      	str	r1, [r0, #0]
   816e2:	f85d 4b04 	ldr.w	r4, [sp], #4
   816e6:	4770      	bx	lr

000816e8 <pio_configure>:
   816e8:	b5f0      	push	{r4, r5, r6, r7, lr}
   816ea:	b083      	sub	sp, #12
   816ec:	4607      	mov	r7, r0
   816ee:	460c      	mov	r4, r1
   816f0:	4616      	mov	r6, r2
   816f2:	461d      	mov	r5, r3
   816f4:	f1b1 5f20 	cmp.w	r1, #671088640	; 0x28000000
   816f8:	d01a      	beq.n	81730 <pio_configure+0x48>
   816fa:	d806      	bhi.n	8170a <pio_configure+0x22>
   816fc:	f1b1 6f00 	cmp.w	r1, #134217728	; 0x8000000
   81700:	d00a      	beq.n	81718 <pio_configure+0x30>
   81702:	f1b1 5f80 	cmp.w	r1, #268435456	; 0x10000000
   81706:	d007      	beq.n	81718 <pio_configure+0x30>
   81708:	e028      	b.n	8175c <pio_configure+0x74>
   8170a:	f1b1 5f40 	cmp.w	r1, #805306368	; 0x30000000
   8170e:	d015      	beq.n	8173c <pio_configure+0x54>
   81710:	f1b1 5f60 	cmp.w	r1, #939524096	; 0x38000000
   81714:	d012      	beq.n	8173c <pio_configure+0x54>
   81716:	e021      	b.n	8175c <pio_configure+0x74>
   81718:	4638      	mov	r0, r7
   8171a:	4621      	mov	r1, r4
   8171c:	4632      	mov	r2, r6
   8171e:	4b11      	ldr	r3, [pc, #68]	; (81764 <pio_configure+0x7c>)
   81720:	4798      	blx	r3
   81722:	f015 0f01 	tst.w	r5, #1
   81726:	bf14      	ite	ne
   81728:	667e      	strne	r6, [r7, #100]	; 0x64
   8172a:	663e      	streq	r6, [r7, #96]	; 0x60
   8172c:	2001      	movs	r0, #1
   8172e:	e016      	b.n	8175e <pio_configure+0x76>
   81730:	4611      	mov	r1, r2
   81732:	461a      	mov	r2, r3
   81734:	4b0c      	ldr	r3, [pc, #48]	; (81768 <pio_configure+0x80>)
   81736:	4798      	blx	r3
   81738:	2001      	movs	r0, #1
   8173a:	e010      	b.n	8175e <pio_configure+0x76>
   8173c:	f005 0301 	and.w	r3, r5, #1
   81740:	9300      	str	r3, [sp, #0]
   81742:	4638      	mov	r0, r7
   81744:	4631      	mov	r1, r6
   81746:	f1b4 5f60 	cmp.w	r4, #939524096	; 0x38000000
   8174a:	bf14      	ite	ne
   8174c:	2200      	movne	r2, #0
   8174e:	2201      	moveq	r2, #1
   81750:	f3c5 0380 	ubfx	r3, r5, #2, #1
   81754:	4c05      	ldr	r4, [pc, #20]	; (8176c <pio_configure+0x84>)
   81756:	47a0      	blx	r4
   81758:	2001      	movs	r0, #1
   8175a:	e000      	b.n	8175e <pio_configure+0x76>
   8175c:	2000      	movs	r0, #0
   8175e:	b003      	add	sp, #12
   81760:	bdf0      	pop	{r4, r5, r6, r7, pc}
   81762:	bf00      	nop
   81764:	0008164d 	.word	0x0008164d
   81768:	0008168d 	.word	0x0008168d
   8176c:	000816c1 	.word	0x000816c1

00081770 <pio_configure_interrupt>:
   81770:	f012 0f10 	tst.w	r2, #16
   81774:	d010      	beq.n	81798 <pio_configure_interrupt+0x28>
   81776:	f8c0 10b0 	str.w	r1, [r0, #176]	; 0xb0
   8177a:	f012 0f20 	tst.w	r2, #32
   8177e:	bf14      	ite	ne
   81780:	f8c0 10d4 	strne.w	r1, [r0, #212]	; 0xd4
   81784:	f8c0 10d0 	streq.w	r1, [r0, #208]	; 0xd0
   81788:	f012 0f40 	tst.w	r2, #64	; 0x40
   8178c:	bf14      	ite	ne
   8178e:	f8c0 10c0 	strne.w	r1, [r0, #192]	; 0xc0
   81792:	f8c0 10c4 	streq.w	r1, [r0, #196]	; 0xc4
   81796:	4770      	bx	lr
   81798:	f8c0 10b4 	str.w	r1, [r0, #180]	; 0xb4
   8179c:	4770      	bx	lr
   8179e:	bf00      	nop

000817a0 <pio_enable_interrupt>:
   817a0:	6cc3      	ldr	r3, [r0, #76]	; 0x4c
   817a2:	6401      	str	r1, [r0, #64]	; 0x40
   817a4:	4770      	bx	lr
   817a6:	bf00      	nop

000817a8 <pio_get_interrupt_status>:
   817a8:	6cc0      	ldr	r0, [r0, #76]	; 0x4c
   817aa:	4770      	bx	lr

000817ac <pio_get_interrupt_mask>:
   817ac:	6c80      	ldr	r0, [r0, #72]	; 0x48
   817ae:	4770      	bx	lr

000817b0 <pio_configure_pin>:
   817b0:	b570      	push	{r4, r5, r6, lr}
   817b2:	b082      	sub	sp, #8
   817b4:	460d      	mov	r5, r1
   817b6:	0944      	lsrs	r4, r0, #5
   817b8:	f504 1400 	add.w	r4, r4, #2097152	; 0x200000
   817bc:	f204 7407 	addw	r4, r4, #1799	; 0x707
   817c0:	0266      	lsls	r6, r4, #9
   817c2:	f001 44f0 	and.w	r4, r1, #2013265920	; 0x78000000
   817c6:	f1b4 5f20 	cmp.w	r4, #671088640	; 0x28000000
   817ca:	d030      	beq.n	8182e <pio_configure_pin+0x7e>
   817cc:	d806      	bhi.n	817dc <pio_configure_pin+0x2c>
   817ce:	f1b4 6f00 	cmp.w	r4, #134217728	; 0x8000000
   817d2:	d00a      	beq.n	817ea <pio_configure_pin+0x3a>
   817d4:	f1b4 5f80 	cmp.w	r4, #268435456	; 0x10000000
   817d8:	d018      	beq.n	8180c <pio_configure_pin+0x5c>
   817da:	e049      	b.n	81870 <pio_configure_pin+0xc0>
   817dc:	f1b4 5f40 	cmp.w	r4, #805306368	; 0x30000000
   817e0:	d030      	beq.n	81844 <pio_configure_pin+0x94>
   817e2:	f1b4 5f60 	cmp.w	r4, #939524096	; 0x38000000
   817e6:	d02d      	beq.n	81844 <pio_configure_pin+0x94>
   817e8:	e042      	b.n	81870 <pio_configure_pin+0xc0>
   817ea:	f000 001f 	and.w	r0, r0, #31
   817ee:	2401      	movs	r4, #1
   817f0:	4084      	lsls	r4, r0
   817f2:	4630      	mov	r0, r6
   817f4:	f04f 6100 	mov.w	r1, #134217728	; 0x8000000
   817f8:	4622      	mov	r2, r4
   817fa:	4b1f      	ldr	r3, [pc, #124]	; (81878 <pio_configure_pin+0xc8>)
   817fc:	4798      	blx	r3
   817fe:	f015 0f01 	tst.w	r5, #1
   81802:	bf14      	ite	ne
   81804:	6674      	strne	r4, [r6, #100]	; 0x64
   81806:	6634      	streq	r4, [r6, #96]	; 0x60
   81808:	2001      	movs	r0, #1
   8180a:	e032      	b.n	81872 <pio_configure_pin+0xc2>
   8180c:	f000 001f 	and.w	r0, r0, #31
   81810:	2401      	movs	r4, #1
   81812:	4084      	lsls	r4, r0
   81814:	4630      	mov	r0, r6
   81816:	f04f 5180 	mov.w	r1, #268435456	; 0x10000000
   8181a:	4622      	mov	r2, r4
   8181c:	4b16      	ldr	r3, [pc, #88]	; (81878 <pio_configure_pin+0xc8>)
   8181e:	4798      	blx	r3
   81820:	f015 0f01 	tst.w	r5, #1
   81824:	bf14      	ite	ne
   81826:	6674      	strne	r4, [r6, #100]	; 0x64
   81828:	6634      	streq	r4, [r6, #96]	; 0x60
   8182a:	2001      	movs	r0, #1
   8182c:	e021      	b.n	81872 <pio_configure_pin+0xc2>
   8182e:	f000 011f 	and.w	r1, r0, #31
   81832:	2401      	movs	r4, #1
   81834:	4630      	mov	r0, r6
   81836:	fa04 f101 	lsl.w	r1, r4, r1
   8183a:	462a      	mov	r2, r5
   8183c:	4b0f      	ldr	r3, [pc, #60]	; (8187c <pio_configure_pin+0xcc>)
   8183e:	4798      	blx	r3
   81840:	4620      	mov	r0, r4
   81842:	e016      	b.n	81872 <pio_configure_pin+0xc2>
   81844:	f000 011f 	and.w	r1, r0, #31
   81848:	2401      	movs	r4, #1
   8184a:	f005 5260 	and.w	r2, r5, #939524096	; 0x38000000
   8184e:	ea05 0304 	and.w	r3, r5, r4
   81852:	9300      	str	r3, [sp, #0]
   81854:	4630      	mov	r0, r6
   81856:	fa04 f101 	lsl.w	r1, r4, r1
   8185a:	f1b2 5f60 	cmp.w	r2, #939524096	; 0x38000000
   8185e:	bf14      	ite	ne
   81860:	2200      	movne	r2, #0
   81862:	2201      	moveq	r2, #1
   81864:	f3c5 0380 	ubfx	r3, r5, #2, #1
   81868:	4d05      	ldr	r5, [pc, #20]	; (81880 <pio_configure_pin+0xd0>)
   8186a:	47a8      	blx	r5
   8186c:	4620      	mov	r0, r4
   8186e:	e000      	b.n	81872 <pio_configure_pin+0xc2>
   81870:	2000      	movs	r0, #0
   81872:	b002      	add	sp, #8
   81874:	bd70      	pop	{r4, r5, r6, pc}
   81876:	bf00      	nop
   81878:	0008164d 	.word	0x0008164d
   8187c:	0008168d 	.word	0x0008168d
   81880:	000816c1 	.word	0x000816c1

00081884 <pio_configure_pin_group>:
   81884:	b5f0      	push	{r4, r5, r6, r7, lr}
   81886:	b083      	sub	sp, #12
   81888:	4607      	mov	r7, r0
   8188a:	460e      	mov	r6, r1
   8188c:	4615      	mov	r5, r2
   8188e:	f002 44f0 	and.w	r4, r2, #2013265920	; 0x78000000
   81892:	f1b4 5f20 	cmp.w	r4, #671088640	; 0x28000000
   81896:	d026      	beq.n	818e6 <pio_configure_pin_group+0x62>
   81898:	d806      	bhi.n	818a8 <pio_configure_pin_group+0x24>
   8189a:	f1b4 6f00 	cmp.w	r4, #134217728	; 0x8000000
   8189e:	d00a      	beq.n	818b6 <pio_configure_pin_group+0x32>
   818a0:	f1b4 5f80 	cmp.w	r4, #268435456	; 0x10000000
   818a4:	d013      	beq.n	818ce <pio_configure_pin_group+0x4a>
   818a6:	e034      	b.n	81912 <pio_configure_pin_group+0x8e>
   818a8:	f1b4 5f40 	cmp.w	r4, #805306368	; 0x30000000
   818ac:	d01f      	beq.n	818ee <pio_configure_pin_group+0x6a>
   818ae:	f1b4 5f60 	cmp.w	r4, #939524096	; 0x38000000
   818b2:	d01c      	beq.n	818ee <pio_configure_pin_group+0x6a>
   818b4:	e02d      	b.n	81912 <pio_configure_pin_group+0x8e>
   818b6:	f04f 6100 	mov.w	r1, #134217728	; 0x8000000
   818ba:	4632      	mov	r2, r6
   818bc:	4b16      	ldr	r3, [pc, #88]	; (81918 <pio_configure_pin_group+0x94>)
   818be:	4798      	blx	r3
   818c0:	f015 0f01 	tst.w	r5, #1
   818c4:	bf14      	ite	ne
   818c6:	667e      	strne	r6, [r7, #100]	; 0x64
   818c8:	663e      	streq	r6, [r7, #96]	; 0x60
   818ca:	2001      	movs	r0, #1
   818cc:	e022      	b.n	81914 <pio_configure_pin_group+0x90>
   818ce:	f04f 5180 	mov.w	r1, #268435456	; 0x10000000
   818d2:	4632      	mov	r2, r6
   818d4:	4b10      	ldr	r3, [pc, #64]	; (81918 <pio_configure_pin_group+0x94>)
   818d6:	4798      	blx	r3
   818d8:	f015 0f01 	tst.w	r5, #1
   818dc:	bf14      	ite	ne
   818de:	667e      	strne	r6, [r7, #100]	; 0x64
   818e0:	663e      	streq	r6, [r7, #96]	; 0x60
   818e2:	2001      	movs	r0, #1
   818e4:	e016      	b.n	81914 <pio_configure_pin_group+0x90>
   818e6:	4b0d      	ldr	r3, [pc, #52]	; (8191c <pio_configure_pin_group+0x98>)
   818e8:	4798      	blx	r3
   818ea:	2001      	movs	r0, #1
   818ec:	e012      	b.n	81914 <pio_configure_pin_group+0x90>
   818ee:	f005 5260 	and.w	r2, r5, #939524096	; 0x38000000
   818f2:	f005 0301 	and.w	r3, r5, #1
   818f6:	9300      	str	r3, [sp, #0]
   818f8:	4638      	mov	r0, r7
   818fa:	4631      	mov	r1, r6
   818fc:	f1b2 5f60 	cmp.w	r2, #939524096	; 0x38000000
   81900:	bf14      	ite	ne
   81902:	2200      	movne	r2, #0
   81904:	2201      	moveq	r2, #1
   81906:	f3c5 0380 	ubfx	r3, r5, #2, #1
   8190a:	4c05      	ldr	r4, [pc, #20]	; (81920 <pio_configure_pin_group+0x9c>)
   8190c:	47a0      	blx	r4
   8190e:	2001      	movs	r0, #1
   81910:	e000      	b.n	81914 <pio_configure_pin_group+0x90>
   81912:	2000      	movs	r0, #0
   81914:	b003      	add	sp, #12
   81916:	bdf0      	pop	{r4, r5, r6, r7, pc}
   81918:	0008164d 	.word	0x0008164d
   8191c:	0008168d 	.word	0x0008168d
   81920:	000816c1 	.word	0x000816c1

00081924 <pio_handler_process>:
   81924:	e92d 41f0 	stmdb	sp!, {r4, r5, r6, r7, r8, lr}
   81928:	4604      	mov	r4, r0
   8192a:	460e      	mov	r6, r1
   8192c:	4b10      	ldr	r3, [pc, #64]	; (81970 <pio_handler_process+0x4c>)
   8192e:	4798      	blx	r3
   81930:	4605      	mov	r5, r0
   81932:	4620      	mov	r0, r4
   81934:	4b0f      	ldr	r3, [pc, #60]	; (81974 <pio_handler_process+0x50>)
   81936:	4798      	blx	r3
   81938:	4005      	ands	r5, r0
   8193a:	d017      	beq.n	8196c <pio_handler_process+0x48>
   8193c:	4f0e      	ldr	r7, [pc, #56]	; (81978 <pio_handler_process+0x54>)
   8193e:	f107 040c 	add.w	r4, r7, #12
   81942:	376c      	adds	r7, #108	; 0x6c
   81944:	f854 3c0c 	ldr.w	r3, [r4, #-12]
   81948:	42b3      	cmp	r3, r6
   8194a:	d10a      	bne.n	81962 <pio_handler_process+0x3e>
   8194c:	f854 1c08 	ldr.w	r1, [r4, #-8]
   81950:	4229      	tst	r1, r5
   81952:	d006      	beq.n	81962 <pio_handler_process+0x3e>
   81954:	6823      	ldr	r3, [r4, #0]
   81956:	4630      	mov	r0, r6
   81958:	4798      	blx	r3
   8195a:	f854 3c08 	ldr.w	r3, [r4, #-8]
   8195e:	ea25 0503 	bic.w	r5, r5, r3
   81962:	42bc      	cmp	r4, r7
   81964:	d002      	beq.n	8196c <pio_handler_process+0x48>
   81966:	3410      	adds	r4, #16
   81968:	2d00      	cmp	r5, #0
   8196a:	d1eb      	bne.n	81944 <pio_handler_process+0x20>
   8196c:	e8bd 81f0 	ldmia.w	sp!, {r4, r5, r6, r7, r8, pc}
   81970:	000817a9 	.word	0x000817a9
   81974:	000817ad 	.word	0x000817ad
   81978:	20070294 	.word	0x20070294

0008197c <pio_handler_set>:
   8197c:	b5f8      	push	{r3, r4, r5, r6, r7, lr}
   8197e:	4c0b      	ldr	r4, [pc, #44]	; (819ac <pio_handler_set+0x30>)
   81980:	6824      	ldr	r4, [r4, #0]
   81982:	2c06      	cmp	r4, #6
   81984:	d810      	bhi.n	819a8 <pio_handler_set+0x2c>
   81986:	4f0a      	ldr	r7, [pc, #40]	; (819b0 <pio_handler_set+0x34>)
   81988:	0126      	lsls	r6, r4, #4
   8198a:	19bd      	adds	r5, r7, r6
   8198c:	51b9      	str	r1, [r7, r6]
   8198e:	606a      	str	r2, [r5, #4]
   81990:	60ab      	str	r3, [r5, #8]
   81992:	9906      	ldr	r1, [sp, #24]
   81994:	60e9      	str	r1, [r5, #12]
   81996:	3401      	adds	r4, #1
   81998:	4904      	ldr	r1, [pc, #16]	; (819ac <pio_handler_set+0x30>)
   8199a:	600c      	str	r4, [r1, #0]
   8199c:	4611      	mov	r1, r2
   8199e:	461a      	mov	r2, r3
   819a0:	4b04      	ldr	r3, [pc, #16]	; (819b4 <pio_handler_set+0x38>)
   819a2:	4798      	blx	r3
   819a4:	2000      	movs	r0, #0
   819a6:	bdf8      	pop	{r3, r4, r5, r6, r7, pc}
   819a8:	2001      	movs	r0, #1
   819aa:	bdf8      	pop	{r3, r4, r5, r6, r7, pc}
   819ac:	20070290 	.word	0x20070290
   819b0:	20070294 	.word	0x20070294
   819b4:	00081771 	.word	0x00081771

000819b8 <PIOA_Handler>:
   819b8:	b508      	push	{r3, lr}
   819ba:	4802      	ldr	r0, [pc, #8]	; (819c4 <PIOA_Handler+0xc>)
   819bc:	210b      	movs	r1, #11
   819be:	4b02      	ldr	r3, [pc, #8]	; (819c8 <PIOA_Handler+0x10>)
   819c0:	4798      	blx	r3
   819c2:	bd08      	pop	{r3, pc}
   819c4:	400e0e00 	.word	0x400e0e00
   819c8:	00081925 	.word	0x00081925

000819cc <PIOB_Handler>:
   819cc:	b508      	push	{r3, lr}
   819ce:	4802      	ldr	r0, [pc, #8]	; (819d8 <PIOB_Handler+0xc>)
   819d0:	210c      	movs	r1, #12
   819d2:	4b02      	ldr	r3, [pc, #8]	; (819dc <PIOB_Handler+0x10>)
   819d4:	4798      	blx	r3
   819d6:	bd08      	pop	{r3, pc}
   819d8:	400e1000 	.word	0x400e1000
   819dc:	00081925 	.word	0x00081925

000819e0 <PIOC_Handler>:
   819e0:	b508      	push	{r3, lr}
   819e2:	4802      	ldr	r0, [pc, #8]	; (819ec <PIOC_Handler+0xc>)
   819e4:	210d      	movs	r1, #13
   819e6:	4b02      	ldr	r3, [pc, #8]	; (819f0 <PIOC_Handler+0x10>)
   819e8:	4798      	blx	r3
   819ea:	bd08      	pop	{r3, pc}
   819ec:	400e1200 	.word	0x400e1200
   819f0:	00081925 	.word	0x00081925

000819f4 <PIOD_Handler>:
   819f4:	b508      	push	{r3, lr}
   819f6:	4802      	ldr	r0, [pc, #8]	; (81a00 <PIOD_Handler+0xc>)
   819f8:	210e      	movs	r1, #14
   819fa:	4b02      	ldr	r3, [pc, #8]	; (81a04 <PIOD_Handler+0x10>)
   819fc:	4798      	blx	r3
   819fe:	bd08      	pop	{r3, pc}
   81a00:	400e1400 	.word	0x400e1400
   81a04:	00081925 	.word	0x00081925

00081a08 <pmc_switch_mck_to_pllack>:
   81a08:	4b17      	ldr	r3, [pc, #92]	; (81a68 <pmc_switch_mck_to_pllack+0x60>)
   81a0a:	6b1a      	ldr	r2, [r3, #48]	; 0x30
   81a0c:	f022 0270 	bic.w	r2, r2, #112	; 0x70
   81a10:	4310      	orrs	r0, r2
   81a12:	6318      	str	r0, [r3, #48]	; 0x30
   81a14:	6e9b      	ldr	r3, [r3, #104]	; 0x68
   81a16:	f013 0f08 	tst.w	r3, #8
   81a1a:	d109      	bne.n	81a30 <pmc_switch_mck_to_pllack+0x28>
   81a1c:	f44f 6300 	mov.w	r3, #2048	; 0x800
   81a20:	4911      	ldr	r1, [pc, #68]	; (81a68 <pmc_switch_mck_to_pllack+0x60>)
   81a22:	e001      	b.n	81a28 <pmc_switch_mck_to_pllack+0x20>
   81a24:	3b01      	subs	r3, #1
   81a26:	d019      	beq.n	81a5c <pmc_switch_mck_to_pllack+0x54>
   81a28:	6e8a      	ldr	r2, [r1, #104]	; 0x68
   81a2a:	f012 0f08 	tst.w	r2, #8
   81a2e:	d0f9      	beq.n	81a24 <pmc_switch_mck_to_pllack+0x1c>
   81a30:	4b0d      	ldr	r3, [pc, #52]	; (81a68 <pmc_switch_mck_to_pllack+0x60>)
   81a32:	6b1a      	ldr	r2, [r3, #48]	; 0x30
   81a34:	f022 0203 	bic.w	r2, r2, #3
   81a38:	f042 0202 	orr.w	r2, r2, #2
   81a3c:	631a      	str	r2, [r3, #48]	; 0x30
   81a3e:	6e98      	ldr	r0, [r3, #104]	; 0x68
   81a40:	f010 0008 	ands.w	r0, r0, #8
   81a44:	d10c      	bne.n	81a60 <pmc_switch_mck_to_pllack+0x58>
   81a46:	f44f 6300 	mov.w	r3, #2048	; 0x800
   81a4a:	4907      	ldr	r1, [pc, #28]	; (81a68 <pmc_switch_mck_to_pllack+0x60>)
   81a4c:	e001      	b.n	81a52 <pmc_switch_mck_to_pllack+0x4a>
   81a4e:	3b01      	subs	r3, #1
   81a50:	d008      	beq.n	81a64 <pmc_switch_mck_to_pllack+0x5c>
   81a52:	6e8a      	ldr	r2, [r1, #104]	; 0x68
   81a54:	f012 0f08 	tst.w	r2, #8
   81a58:	d0f9      	beq.n	81a4e <pmc_switch_mck_to_pllack+0x46>
   81a5a:	4770      	bx	lr
   81a5c:	2001      	movs	r0, #1
   81a5e:	4770      	bx	lr
   81a60:	2000      	movs	r0, #0
   81a62:	4770      	bx	lr
   81a64:	2001      	movs	r0, #1
   81a66:	4770      	bx	lr
   81a68:	400e0600 	.word	0x400e0600

00081a6c <pmc_switch_mainck_to_xtal>:
   81a6c:	b138      	cbz	r0, 81a7e <pmc_switch_mainck_to_xtal+0x12>
   81a6e:	4911      	ldr	r1, [pc, #68]	; (81ab4 <pmc_switch_mainck_to_xtal+0x48>)
   81a70:	6a0b      	ldr	r3, [r1, #32]
   81a72:	4a11      	ldr	r2, [pc, #68]	; (81ab8 <pmc_switch_mainck_to_xtal+0x4c>)
   81a74:	401a      	ands	r2, r3
   81a76:	4b11      	ldr	r3, [pc, #68]	; (81abc <pmc_switch_mainck_to_xtal+0x50>)
   81a78:	4313      	orrs	r3, r2
   81a7a:	620b      	str	r3, [r1, #32]
   81a7c:	4770      	bx	lr
   81a7e:	4a0d      	ldr	r2, [pc, #52]	; (81ab4 <pmc_switch_mainck_to_xtal+0x48>)
   81a80:	6a13      	ldr	r3, [r2, #32]
   81a82:	f423 135c 	bic.w	r3, r3, #3604480	; 0x370000
   81a86:	f023 0303 	bic.w	r3, r3, #3
   81a8a:	f443 135c 	orr.w	r3, r3, #3604480	; 0x370000
   81a8e:	f043 0301 	orr.w	r3, r3, #1
   81a92:	0209      	lsls	r1, r1, #8
   81a94:	b289      	uxth	r1, r1
   81a96:	430b      	orrs	r3, r1
   81a98:	6213      	str	r3, [r2, #32]
   81a9a:	6e93      	ldr	r3, [r2, #104]	; 0x68
   81a9c:	f013 0f01 	tst.w	r3, #1
   81aa0:	d0fb      	beq.n	81a9a <pmc_switch_mainck_to_xtal+0x2e>
   81aa2:	4a04      	ldr	r2, [pc, #16]	; (81ab4 <pmc_switch_mainck_to_xtal+0x48>)
   81aa4:	6a13      	ldr	r3, [r2, #32]
   81aa6:	f043 739b 	orr.w	r3, r3, #20316160	; 0x1360000
   81aaa:	f443 3380 	orr.w	r3, r3, #65536	; 0x10000
   81aae:	6213      	str	r3, [r2, #32]
   81ab0:	4770      	bx	lr
   81ab2:	bf00      	nop
   81ab4:	400e0600 	.word	0x400e0600
   81ab8:	fec8fffc 	.word	0xfec8fffc
   81abc:	01370002 	.word	0x01370002

00081ac0 <pmc_osc_is_ready_mainck>:
   81ac0:	4b02      	ldr	r3, [pc, #8]	; (81acc <pmc_osc_is_ready_mainck+0xc>)
   81ac2:	6e98      	ldr	r0, [r3, #104]	; 0x68
   81ac4:	f400 3080 	and.w	r0, r0, #65536	; 0x10000
   81ac8:	4770      	bx	lr
   81aca:	bf00      	nop
   81acc:	400e0600 	.word	0x400e0600

00081ad0 <pmc_disable_pllack>:
   81ad0:	f04f 5200 	mov.w	r2, #536870912	; 0x20000000
   81ad4:	4b01      	ldr	r3, [pc, #4]	; (81adc <pmc_disable_pllack+0xc>)
   81ad6:	629a      	str	r2, [r3, #40]	; 0x28
   81ad8:	4770      	bx	lr
   81ada:	bf00      	nop
   81adc:	400e0600 	.word	0x400e0600

00081ae0 <pmc_is_locked_pllack>:
   81ae0:	4b02      	ldr	r3, [pc, #8]	; (81aec <pmc_is_locked_pllack+0xc>)
   81ae2:	6e98      	ldr	r0, [r3, #104]	; 0x68
   81ae4:	f000 0002 	and.w	r0, r0, #2
   81ae8:	4770      	bx	lr
   81aea:	bf00      	nop
   81aec:	400e0600 	.word	0x400e0600

00081af0 <pmc_enable_periph_clk>:
   81af0:	282c      	cmp	r0, #44	; 0x2c
   81af2:	d820      	bhi.n	81b36 <pmc_enable_periph_clk+0x46>
   81af4:	281f      	cmp	r0, #31
   81af6:	d80d      	bhi.n	81b14 <pmc_enable_periph_clk+0x24>
   81af8:	4b12      	ldr	r3, [pc, #72]	; (81b44 <pmc_enable_periph_clk+0x54>)
   81afa:	699a      	ldr	r2, [r3, #24]
   81afc:	2301      	movs	r3, #1
   81afe:	4083      	lsls	r3, r0
   81b00:	401a      	ands	r2, r3
   81b02:	4293      	cmp	r3, r2
   81b04:	d019      	beq.n	81b3a <pmc_enable_periph_clk+0x4a>
   81b06:	2301      	movs	r3, #1
   81b08:	fa03 f000 	lsl.w	r0, r3, r0
   81b0c:	4b0d      	ldr	r3, [pc, #52]	; (81b44 <pmc_enable_periph_clk+0x54>)
   81b0e:	6118      	str	r0, [r3, #16]
   81b10:	2000      	movs	r0, #0
   81b12:	4770      	bx	lr
   81b14:	4b0b      	ldr	r3, [pc, #44]	; (81b44 <pmc_enable_periph_clk+0x54>)
   81b16:	f8d3 2108 	ldr.w	r2, [r3, #264]	; 0x108
   81b1a:	3820      	subs	r0, #32
   81b1c:	2301      	movs	r3, #1
   81b1e:	4083      	lsls	r3, r0
   81b20:	401a      	ands	r2, r3
   81b22:	4293      	cmp	r3, r2
   81b24:	d00b      	beq.n	81b3e <pmc_enable_periph_clk+0x4e>
   81b26:	2301      	movs	r3, #1
   81b28:	fa03 f000 	lsl.w	r0, r3, r0
   81b2c:	4b05      	ldr	r3, [pc, #20]	; (81b44 <pmc_enable_periph_clk+0x54>)
   81b2e:	f8c3 0100 	str.w	r0, [r3, #256]	; 0x100
   81b32:	2000      	movs	r0, #0
   81b34:	4770      	bx	lr
   81b36:	2001      	movs	r0, #1
   81b38:	4770      	bx	lr
   81b3a:	2000      	movs	r0, #0
   81b3c:	4770      	bx	lr
   81b3e:	2000      	movs	r0, #0
   81b40:	4770      	bx	lr
   81b42:	bf00      	nop
   81b44:	400e0600 	.word	0x400e0600

00081b48 <pmc_set_writeprotect>:
   81b48:	b120      	cbz	r0, 81b54 <pmc_set_writeprotect+0xc>
   81b4a:	4a05      	ldr	r2, [pc, #20]	; (81b60 <pmc_set_writeprotect+0x18>)
   81b4c:	4b05      	ldr	r3, [pc, #20]	; (81b64 <pmc_set_writeprotect+0x1c>)
   81b4e:	f8c3 20e4 	str.w	r2, [r3, #228]	; 0xe4
   81b52:	4770      	bx	lr
   81b54:	4a04      	ldr	r2, [pc, #16]	; (81b68 <pmc_set_writeprotect+0x20>)
   81b56:	4b03      	ldr	r3, [pc, #12]	; (81b64 <pmc_set_writeprotect+0x1c>)
   81b58:	f8c3 20e4 	str.w	r2, [r3, #228]	; 0xe4
   81b5c:	4770      	bx	lr
   81b5e:	bf00      	nop
   81b60:	504d4301 	.word	0x504d4301
   81b64:	400e0600 	.word	0x400e0600
   81b68:	504d4300 	.word	0x504d4300

00081b6c <pwm_clocks_generate>:
   81b6c:	b4f0      	push	{r4, r5, r6, r7}
   81b6e:	b08c      	sub	sp, #48	; 0x30
   81b70:	4607      	mov	r7, r0
   81b72:	460e      	mov	r6, r1
   81b74:	ac01      	add	r4, sp, #4
   81b76:	4d12      	ldr	r5, [pc, #72]	; (81bc0 <pwm_clocks_generate+0x54>)
   81b78:	cd0f      	ldmia	r5!, {r0, r1, r2, r3}
   81b7a:	c40f      	stmia	r4!, {r0, r1, r2, r3}
   81b7c:	cd0f      	ldmia	r5!, {r0, r1, r2, r3}
   81b7e:	c40f      	stmia	r4!, {r0, r1, r2, r3}
   81b80:	e895 0007 	ldmia.w	r5, {r0, r1, r2}
   81b84:	e884 0007 	stmia.w	r4, {r0, r1, r2}
   81b88:	466a      	mov	r2, sp
   81b8a:	2300      	movs	r3, #0
   81b8c:	f852 4f04 	ldr.w	r4, [r2, #4]!
   81b90:	fbb6 f4f4 	udiv	r4, r6, r4
   81b94:	fbb4 f4f7 	udiv	r4, r4, r7
   81b98:	f5b4 7f80 	cmp.w	r4, #256	; 0x100
   81b9c:	d903      	bls.n	81ba6 <pwm_clocks_generate+0x3a>
   81b9e:	3301      	adds	r3, #1
   81ba0:	2b0b      	cmp	r3, #11
   81ba2:	d1f3      	bne.n	81b8c <pwm_clocks_generate+0x20>
   81ba4:	e004      	b.n	81bb0 <pwm_clocks_generate+0x44>
   81ba6:	2b0a      	cmp	r3, #10
   81ba8:	d805      	bhi.n	81bb6 <pwm_clocks_generate+0x4a>
   81baa:	ea44 2003 	orr.w	r0, r4, r3, lsl #8
   81bae:	e004      	b.n	81bba <pwm_clocks_generate+0x4e>
   81bb0:	f64f 70ff 	movw	r0, #65535	; 0xffff
   81bb4:	e001      	b.n	81bba <pwm_clocks_generate+0x4e>
   81bb6:	f64f 70ff 	movw	r0, #65535	; 0xffff
   81bba:	b00c      	add	sp, #48	; 0x30
   81bbc:	bcf0      	pop	{r4, r5, r6, r7}
   81bbe:	4770      	bx	lr
   81bc0:	00086f98 	.word	0x00086f98

00081bc4 <pwm_init>:
   81bc4:	b570      	push	{r4, r5, r6, lr}
   81bc6:	4606      	mov	r6, r0
   81bc8:	460c      	mov	r4, r1
   81bca:	6808      	ldr	r0, [r1, #0]
   81bcc:	b140      	cbz	r0, 81be0 <pwm_init+0x1c>
   81bce:	6889      	ldr	r1, [r1, #8]
   81bd0:	4b0b      	ldr	r3, [pc, #44]	; (81c00 <pwm_init+0x3c>)
   81bd2:	4798      	blx	r3
   81bd4:	4605      	mov	r5, r0
   81bd6:	f64f 73ff 	movw	r3, #65535	; 0xffff
   81bda:	4298      	cmp	r0, r3
   81bdc:	d101      	bne.n	81be2 <pwm_init+0x1e>
   81bde:	e00e      	b.n	81bfe <pwm_init+0x3a>
   81be0:	2500      	movs	r5, #0
   81be2:	6860      	ldr	r0, [r4, #4]
   81be4:	b140      	cbz	r0, 81bf8 <pwm_init+0x34>
   81be6:	68a1      	ldr	r1, [r4, #8]
   81be8:	4b05      	ldr	r3, [pc, #20]	; (81c00 <pwm_init+0x3c>)
   81bea:	4798      	blx	r3
   81bec:	f64f 73ff 	movw	r3, #65535	; 0xffff
   81bf0:	4298      	cmp	r0, r3
   81bf2:	d004      	beq.n	81bfe <pwm_init+0x3a>
   81bf4:	ea45 4500 	orr.w	r5, r5, r0, lsl #16
   81bf8:	6035      	str	r5, [r6, #0]
   81bfa:	2000      	movs	r0, #0
   81bfc:	bd70      	pop	{r4, r5, r6, pc}
   81bfe:	bd70      	pop	{r4, r5, r6, pc}
   81c00:	00081b6d 	.word	0x00081b6d

00081c04 <pwm_channel_init>:
   81c04:	b470      	push	{r4, r5, r6}
   81c06:	680b      	ldr	r3, [r1, #0]
   81c08:	8a8c      	ldrh	r4, [r1, #20]
   81c0a:	684a      	ldr	r2, [r1, #4]
   81c0c:	f002 020f 	and.w	r2, r2, #15
   81c10:	4314      	orrs	r4, r2
   81c12:	890d      	ldrh	r5, [r1, #8]
   81c14:	432c      	orrs	r4, r5
   81c16:	7a8a      	ldrb	r2, [r1, #10]
   81c18:	ea44 2442 	orr.w	r4, r4, r2, lsl #9
   81c1c:	7d8a      	ldrb	r2, [r1, #22]
   81c1e:	ea44 4402 	orr.w	r4, r4, r2, lsl #16
   81c22:	7dca      	ldrb	r2, [r1, #23]
   81c24:	ea44 4442 	orr.w	r4, r4, r2, lsl #17
   81c28:	7e0a      	ldrb	r2, [r1, #24]
   81c2a:	ea44 4482 	orr.w	r4, r4, r2, lsl #18
   81c2e:	eb00 1243 	add.w	r2, r0, r3, lsl #5
   81c32:	f8c2 4200 	str.w	r4, [r2, #512]	; 0x200
   81c36:	68cc      	ldr	r4, [r1, #12]
   81c38:	f8c2 4204 	str.w	r4, [r2, #516]	; 0x204
   81c3c:	690c      	ldr	r4, [r1, #16]
   81c3e:	f8c2 420c 	str.w	r4, [r2, #524]	; 0x20c
   81c42:	7d8a      	ldrb	r2, [r1, #22]
   81c44:	b13a      	cbz	r2, 81c56 <pwm_channel_init+0x52>
   81c46:	8b8c      	ldrh	r4, [r1, #28]
   81c48:	8b4a      	ldrh	r2, [r1, #26]
   81c4a:	ea42 4404 	orr.w	r4, r2, r4, lsl #16
   81c4e:	eb00 1243 	add.w	r2, r0, r3, lsl #5
   81c52:	f8c2 4218 	str.w	r4, [r2, #536]	; 0x218
   81c56:	6c85      	ldr	r5, [r0, #72]	; 0x48
   81c58:	f04f 1201 	mov.w	r2, #65537	; 0x10001
   81c5c:	409a      	lsls	r2, r3
   81c5e:	43d2      	mvns	r2, r2
   81c60:	4015      	ands	r5, r2
   81c62:	7fce      	ldrb	r6, [r1, #31]
   81c64:	409e      	lsls	r6, r3
   81c66:	7f8c      	ldrb	r4, [r1, #30]
   81c68:	409c      	lsls	r4, r3
   81c6a:	ea44 4406 	orr.w	r4, r4, r6, lsl #16
   81c6e:	432c      	orrs	r4, r5
   81c70:	6484      	str	r4, [r0, #72]	; 0x48
   81c72:	6c44      	ldr	r4, [r0, #68]	; 0x44
   81c74:	4022      	ands	r2, r4
   81c76:	f891 5021 	ldrb.w	r5, [r1, #33]	; 0x21
   81c7a:	409d      	lsls	r5, r3
   81c7c:	f891 4020 	ldrb.w	r4, [r1, #32]
   81c80:	409c      	lsls	r4, r3
   81c82:	ea44 4405 	orr.w	r4, r4, r5, lsl #16
   81c86:	4322      	orrs	r2, r4
   81c88:	6442      	str	r2, [r0, #68]	; 0x44
   81c8a:	2201      	movs	r2, #1
   81c8c:	409a      	lsls	r2, r3
   81c8e:	f891 4022 	ldrb.w	r4, [r1, #34]	; 0x22
   81c92:	b11c      	cbz	r4, 81c9c <pwm_channel_init+0x98>
   81c94:	6a04      	ldr	r4, [r0, #32]
   81c96:	4314      	orrs	r4, r2
   81c98:	6204      	str	r4, [r0, #32]
   81c9a:	e003      	b.n	81ca4 <pwm_channel_init+0xa0>
   81c9c:	6a04      	ldr	r4, [r0, #32]
   81c9e:	ea24 0402 	bic.w	r4, r4, r2
   81ca2:	6204      	str	r4, [r0, #32]
   81ca4:	f891 4024 	ldrb.w	r4, [r1, #36]	; 0x24
   81ca8:	2c01      	cmp	r4, #1
   81caa:	6e84      	ldr	r4, [r0, #104]	; 0x68
   81cac:	bf0c      	ite	eq
   81cae:	4314      	orreq	r4, r2
   81cb0:	4394      	bicne	r4, r2
   81cb2:	6684      	str	r4, [r0, #104]	; 0x68
   81cb4:	f891 4025 	ldrb.w	r4, [r1, #37]	; 0x25
   81cb8:	2c01      	cmp	r4, #1
   81cba:	6e84      	ldr	r4, [r0, #104]	; 0x68
   81cbc:	bf0c      	ite	eq
   81cbe:	ea44 4202 	orreq.w	r2, r4, r2, lsl #16
   81cc2:	ea24 4202 	bicne.w	r2, r4, r2, lsl #16
   81cc6:	6682      	str	r2, [r0, #104]	; 0x68
   81cc8:	2b03      	cmp	r3, #3
   81cca:	d80c      	bhi.n	81ce6 <pwm_channel_init+0xe2>
   81ccc:	6ec4      	ldr	r4, [r0, #108]	; 0x6c
   81cce:	00db      	lsls	r3, r3, #3
   81cd0:	22ff      	movs	r2, #255	; 0xff
   81cd2:	409a      	lsls	r2, r3
   81cd4:	ea24 0202 	bic.w	r2, r4, r2
   81cd8:	f891 1023 	ldrb.w	r1, [r1, #35]	; 0x23
   81cdc:	fa01 f303 	lsl.w	r3, r1, r3
   81ce0:	4313      	orrs	r3, r2
   81ce2:	66c3      	str	r3, [r0, #108]	; 0x6c
   81ce4:	e00c      	b.n	81d00 <pwm_channel_init+0xfc>
   81ce6:	3b04      	subs	r3, #4
   81ce8:	6f04      	ldr	r4, [r0, #112]	; 0x70
   81cea:	00db      	lsls	r3, r3, #3
   81cec:	22ff      	movs	r2, #255	; 0xff
   81cee:	409a      	lsls	r2, r3
   81cf0:	ea24 0202 	bic.w	r2, r4, r2
   81cf4:	f891 1023 	ldrb.w	r1, [r1, #35]	; 0x23
   81cf8:	fa01 f303 	lsl.w	r3, r1, r3
   81cfc:	4313      	orrs	r3, r2
   81cfe:	6703      	str	r3, [r0, #112]	; 0x70
   81d00:	2000      	movs	r0, #0
   81d02:	bc70      	pop	{r4, r5, r6}
   81d04:	4770      	bx	lr
   81d06:	bf00      	nop

00081d08 <pwm_channel_update_duty>:
   81d08:	b410      	push	{r4}
   81d0a:	680c      	ldr	r4, [r1, #0]
   81d0c:	690b      	ldr	r3, [r1, #16]
   81d0e:	4293      	cmp	r3, r2
   81d10:	d306      	bcc.n	81d20 <pwm_channel_update_duty+0x18>
   81d12:	60ca      	str	r2, [r1, #12]
   81d14:	eb00 1044 	add.w	r0, r0, r4, lsl #5
   81d18:	f8c0 2208 	str.w	r2, [r0, #520]	; 0x208
   81d1c:	2000      	movs	r0, #0
   81d1e:	e001      	b.n	81d24 <pwm_channel_update_duty+0x1c>
   81d20:	f64f 70ff 	movw	r0, #65535	; 0xffff
   81d24:	f85d 4b04 	ldr.w	r4, [sp], #4
   81d28:	4770      	bx	lr
   81d2a:	bf00      	nop

00081d2c <pwm_channel_enable>:
   81d2c:	2301      	movs	r3, #1
   81d2e:	fa03 f101 	lsl.w	r1, r3, r1
   81d32:	6041      	str	r1, [r0, #4]
   81d34:	4770      	bx	lr
   81d36:	bf00      	nop

00081d38 <pwm_channel_disable>:
   81d38:	2301      	movs	r3, #1
   81d3a:	fa03 f101 	lsl.w	r1, r3, r1
   81d3e:	6081      	str	r1, [r0, #8]
   81d40:	4770      	bx	lr
   81d42:	bf00      	nop

00081d44 <uart_init>:
   81d44:	b410      	push	{r4}
   81d46:	23ac      	movs	r3, #172	; 0xac
   81d48:	6003      	str	r3, [r0, #0]
   81d4a:	680a      	ldr	r2, [r1, #0]
   81d4c:	684b      	ldr	r3, [r1, #4]
   81d4e:	fbb2 f3f3 	udiv	r3, r2, r3
   81d52:	091b      	lsrs	r3, r3, #4
   81d54:	1e5c      	subs	r4, r3, #1
   81d56:	f64f 72fe 	movw	r2, #65534	; 0xfffe
   81d5a:	4294      	cmp	r4, r2
   81d5c:	d80a      	bhi.n	81d74 <uart_init+0x30>
   81d5e:	6203      	str	r3, [r0, #32]
   81d60:	688b      	ldr	r3, [r1, #8]
   81d62:	6043      	str	r3, [r0, #4]
   81d64:	f240 2302 	movw	r3, #514	; 0x202
   81d68:	f8c0 3120 	str.w	r3, [r0, #288]	; 0x120
   81d6c:	2350      	movs	r3, #80	; 0x50
   81d6e:	6003      	str	r3, [r0, #0]
   81d70:	2000      	movs	r0, #0
   81d72:	e000      	b.n	81d76 <uart_init+0x32>
   81d74:	2001      	movs	r0, #1
   81d76:	f85d 4b04 	ldr.w	r4, [sp], #4
   81d7a:	4770      	bx	lr

00081d7c <uart_write>:
   81d7c:	6943      	ldr	r3, [r0, #20]
   81d7e:	f013 0f02 	tst.w	r3, #2
   81d82:	bf1a      	itte	ne
   81d84:	61c1      	strne	r1, [r0, #28]
   81d86:	2000      	movne	r0, #0
   81d88:	2001      	moveq	r0, #1
   81d8a:	4770      	bx	lr

00081d8c <uart_read>:
   81d8c:	6943      	ldr	r3, [r0, #20]
   81d8e:	f013 0f01 	tst.w	r3, #1
   81d92:	bf1d      	ittte	ne
   81d94:	6983      	ldrne	r3, [r0, #24]
   81d96:	700b      	strbne	r3, [r1, #0]
   81d98:	2000      	movne	r0, #0
   81d9a:	2001      	moveq	r0, #1
   81d9c:	4770      	bx	lr
   81d9e:	bf00      	nop

00081da0 <usart_write>:
   81da0:	6943      	ldr	r3, [r0, #20]
   81da2:	f013 0f02 	tst.w	r3, #2
   81da6:	bf1d      	ittte	ne
   81da8:	f3c1 0108 	ubfxne	r1, r1, #0, #9
   81dac:	61c1      	strne	r1, [r0, #28]
   81dae:	2000      	movne	r0, #0
   81db0:	2001      	moveq	r0, #1
   81db2:	4770      	bx	lr

00081db4 <usart_read>:
   81db4:	6943      	ldr	r3, [r0, #20]
   81db6:	f013 0f01 	tst.w	r3, #1
   81dba:	d005      	beq.n	81dc8 <usart_read+0x14>
   81dbc:	6983      	ldr	r3, [r0, #24]
   81dbe:	f3c3 0308 	ubfx	r3, r3, #0, #9
   81dc2:	600b      	str	r3, [r1, #0]
   81dc4:	2000      	movs	r0, #0
   81dc6:	4770      	bx	lr
   81dc8:	2001      	movs	r0, #1
   81dca:	4770      	bx	lr

00081dcc <Dummy_Handler>:
   81dcc:	e7fe      	b.n	81dcc <Dummy_Handler>
   81dce:	bf00      	nop

00081dd0 <Reset_Handler>:
   81dd0:	b510      	push	{r4, lr}
   81dd2:	4b1e      	ldr	r3, [pc, #120]	; (81e4c <Reset_Handler+0x7c>)
   81dd4:	4a1e      	ldr	r2, [pc, #120]	; (81e50 <Reset_Handler+0x80>)
   81dd6:	429a      	cmp	r2, r3
   81dd8:	d003      	beq.n	81de2 <Reset_Handler+0x12>
   81dda:	4b1e      	ldr	r3, [pc, #120]	; (81e54 <Reset_Handler+0x84>)
   81ddc:	4a1b      	ldr	r2, [pc, #108]	; (81e4c <Reset_Handler+0x7c>)
   81dde:	429a      	cmp	r2, r3
   81de0:	d304      	bcc.n	81dec <Reset_Handler+0x1c>
   81de2:	4b1d      	ldr	r3, [pc, #116]	; (81e58 <Reset_Handler+0x88>)
   81de4:	4a1d      	ldr	r2, [pc, #116]	; (81e5c <Reset_Handler+0x8c>)
   81de6:	429a      	cmp	r2, r3
   81de8:	d30f      	bcc.n	81e0a <Reset_Handler+0x3a>
   81dea:	e01a      	b.n	81e22 <Reset_Handler+0x52>
   81dec:	4b1c      	ldr	r3, [pc, #112]	; (81e60 <Reset_Handler+0x90>)
   81dee:	4c1d      	ldr	r4, [pc, #116]	; (81e64 <Reset_Handler+0x94>)
   81df0:	1ae4      	subs	r4, r4, r3
   81df2:	f024 0403 	bic.w	r4, r4, #3
   81df6:	3404      	adds	r4, #4
   81df8:	2300      	movs	r3, #0
   81dfa:	4814      	ldr	r0, [pc, #80]	; (81e4c <Reset_Handler+0x7c>)
   81dfc:	4914      	ldr	r1, [pc, #80]	; (81e50 <Reset_Handler+0x80>)
   81dfe:	585a      	ldr	r2, [r3, r1]
   81e00:	501a      	str	r2, [r3, r0]
   81e02:	3304      	adds	r3, #4
   81e04:	42a3      	cmp	r3, r4
   81e06:	d1fa      	bne.n	81dfe <Reset_Handler+0x2e>
   81e08:	e7eb      	b.n	81de2 <Reset_Handler+0x12>
   81e0a:	4b17      	ldr	r3, [pc, #92]	; (81e68 <Reset_Handler+0x98>)
   81e0c:	4917      	ldr	r1, [pc, #92]	; (81e6c <Reset_Handler+0x9c>)
   81e0e:	1ac9      	subs	r1, r1, r3
   81e10:	f021 0103 	bic.w	r1, r1, #3
   81e14:	1d1a      	adds	r2, r3, #4
   81e16:	4411      	add	r1, r2
   81e18:	2200      	movs	r2, #0
   81e1a:	f843 2f04 	str.w	r2, [r3, #4]!
   81e1e:	428b      	cmp	r3, r1
   81e20:	d1fb      	bne.n	81e1a <Reset_Handler+0x4a>
   81e22:	4a13      	ldr	r2, [pc, #76]	; (81e70 <Reset_Handler+0xa0>)
   81e24:	f022 4360 	bic.w	r3, r2, #3758096384	; 0xe0000000
   81e28:	f023 037f 	bic.w	r3, r3, #127	; 0x7f
   81e2c:	4911      	ldr	r1, [pc, #68]	; (81e74 <Reset_Handler+0xa4>)
   81e2e:	608b      	str	r3, [r1, #8]
   81e30:	f102 4260 	add.w	r2, r2, #3758096384	; 0xe0000000
   81e34:	f5b2 1f80 	cmp.w	r2, #1048576	; 0x100000
   81e38:	d203      	bcs.n	81e42 <Reset_Handler+0x72>
   81e3a:	688a      	ldr	r2, [r1, #8]
   81e3c:	f042 5200 	orr.w	r2, r2, #536870912	; 0x20000000
   81e40:	608a      	str	r2, [r1, #8]
   81e42:	4b0d      	ldr	r3, [pc, #52]	; (81e78 <Reset_Handler+0xa8>)
   81e44:	4798      	blx	r3
   81e46:	4b0d      	ldr	r3, [pc, #52]	; (81e7c <Reset_Handler+0xac>)
   81e48:	4798      	blx	r3
   81e4a:	e7fe      	b.n	81e4a <Reset_Handler+0x7a>
   81e4c:	20070000 	.word	0x20070000
   81e50:	00087274 	.word	0x00087274
   81e54:	200701ec 	.word	0x200701ec
   81e58:	200785cc 	.word	0x200785cc
   81e5c:	200701f0 	.word	0x200701f0
   81e60:	20070004 	.word	0x20070004
   81e64:	200701ef 	.word	0x200701ef
   81e68:	200701ec 	.word	0x200701ec
   81e6c:	200785c7 	.word	0x200785c7
   81e70:	00080000 	.word	0x00080000
   81e74:	e000ed00 	.word	0xe000ed00
   81e78:	00083935 	.word	0x00083935
   81e7c:	000837c5 	.word	0x000837c5

00081e80 <SystemCoreClockUpdate>:
   81e80:	4b3e      	ldr	r3, [pc, #248]	; (81f7c <SystemCoreClockUpdate+0xfc>)
   81e82:	6b1b      	ldr	r3, [r3, #48]	; 0x30
   81e84:	f003 0303 	and.w	r3, r3, #3
   81e88:	2b03      	cmp	r3, #3
   81e8a:	d85f      	bhi.n	81f4c <SystemCoreClockUpdate+0xcc>
   81e8c:	e8df f003 	tbb	[pc, r3]
   81e90:	2b2b0e02 	.word	0x2b2b0e02
   81e94:	4b3a      	ldr	r3, [pc, #232]	; (81f80 <SystemCoreClockUpdate+0x100>)
   81e96:	695b      	ldr	r3, [r3, #20]
   81e98:	f013 0f80 	tst.w	r3, #128	; 0x80
   81e9c:	bf14      	ite	ne
   81e9e:	f44f 4200 	movne.w	r2, #32768	; 0x8000
   81ea2:	f44f 42fa 	moveq.w	r2, #32000	; 0x7d00
   81ea6:	4b37      	ldr	r3, [pc, #220]	; (81f84 <SystemCoreClockUpdate+0x104>)
   81ea8:	601a      	str	r2, [r3, #0]
   81eaa:	e04f      	b.n	81f4c <SystemCoreClockUpdate+0xcc>
   81eac:	4b33      	ldr	r3, [pc, #204]	; (81f7c <SystemCoreClockUpdate+0xfc>)
   81eae:	6a1b      	ldr	r3, [r3, #32]
   81eb0:	f013 7f80 	tst.w	r3, #16777216	; 0x1000000
   81eb4:	d003      	beq.n	81ebe <SystemCoreClockUpdate+0x3e>
   81eb6:	4a34      	ldr	r2, [pc, #208]	; (81f88 <SystemCoreClockUpdate+0x108>)
   81eb8:	4b32      	ldr	r3, [pc, #200]	; (81f84 <SystemCoreClockUpdate+0x104>)
   81eba:	601a      	str	r2, [r3, #0]
   81ebc:	e046      	b.n	81f4c <SystemCoreClockUpdate+0xcc>
   81ebe:	4a33      	ldr	r2, [pc, #204]	; (81f8c <SystemCoreClockUpdate+0x10c>)
   81ec0:	4b30      	ldr	r3, [pc, #192]	; (81f84 <SystemCoreClockUpdate+0x104>)
   81ec2:	601a      	str	r2, [r3, #0]
   81ec4:	4b2d      	ldr	r3, [pc, #180]	; (81f7c <SystemCoreClockUpdate+0xfc>)
   81ec6:	6a1b      	ldr	r3, [r3, #32]
   81ec8:	f003 0370 	and.w	r3, r3, #112	; 0x70
   81ecc:	2b10      	cmp	r3, #16
   81ece:	d002      	beq.n	81ed6 <SystemCoreClockUpdate+0x56>
   81ed0:	2b20      	cmp	r3, #32
   81ed2:	d004      	beq.n	81ede <SystemCoreClockUpdate+0x5e>
   81ed4:	e03a      	b.n	81f4c <SystemCoreClockUpdate+0xcc>
   81ed6:	4a2e      	ldr	r2, [pc, #184]	; (81f90 <SystemCoreClockUpdate+0x110>)
   81ed8:	4b2a      	ldr	r3, [pc, #168]	; (81f84 <SystemCoreClockUpdate+0x104>)
   81eda:	601a      	str	r2, [r3, #0]
   81edc:	e036      	b.n	81f4c <SystemCoreClockUpdate+0xcc>
   81ede:	4a2a      	ldr	r2, [pc, #168]	; (81f88 <SystemCoreClockUpdate+0x108>)
   81ee0:	4b28      	ldr	r3, [pc, #160]	; (81f84 <SystemCoreClockUpdate+0x104>)
   81ee2:	601a      	str	r2, [r3, #0]
   81ee4:	e032      	b.n	81f4c <SystemCoreClockUpdate+0xcc>
   81ee6:	4b25      	ldr	r3, [pc, #148]	; (81f7c <SystemCoreClockUpdate+0xfc>)
   81ee8:	6a1b      	ldr	r3, [r3, #32]
   81eea:	f013 7f80 	tst.w	r3, #16777216	; 0x1000000
   81eee:	d003      	beq.n	81ef8 <SystemCoreClockUpdate+0x78>
   81ef0:	4a25      	ldr	r2, [pc, #148]	; (81f88 <SystemCoreClockUpdate+0x108>)
   81ef2:	4b24      	ldr	r3, [pc, #144]	; (81f84 <SystemCoreClockUpdate+0x104>)
   81ef4:	601a      	str	r2, [r3, #0]
   81ef6:	e012      	b.n	81f1e <SystemCoreClockUpdate+0x9e>
   81ef8:	4a24      	ldr	r2, [pc, #144]	; (81f8c <SystemCoreClockUpdate+0x10c>)
   81efa:	4b22      	ldr	r3, [pc, #136]	; (81f84 <SystemCoreClockUpdate+0x104>)
   81efc:	601a      	str	r2, [r3, #0]
   81efe:	4b1f      	ldr	r3, [pc, #124]	; (81f7c <SystemCoreClockUpdate+0xfc>)
   81f00:	6a1b      	ldr	r3, [r3, #32]
   81f02:	f003 0370 	and.w	r3, r3, #112	; 0x70
   81f06:	2b10      	cmp	r3, #16
   81f08:	d002      	beq.n	81f10 <SystemCoreClockUpdate+0x90>
   81f0a:	2b20      	cmp	r3, #32
   81f0c:	d004      	beq.n	81f18 <SystemCoreClockUpdate+0x98>
   81f0e:	e006      	b.n	81f1e <SystemCoreClockUpdate+0x9e>
   81f10:	4a1f      	ldr	r2, [pc, #124]	; (81f90 <SystemCoreClockUpdate+0x110>)
   81f12:	4b1c      	ldr	r3, [pc, #112]	; (81f84 <SystemCoreClockUpdate+0x104>)
   81f14:	601a      	str	r2, [r3, #0]
   81f16:	e002      	b.n	81f1e <SystemCoreClockUpdate+0x9e>
   81f18:	4a1b      	ldr	r2, [pc, #108]	; (81f88 <SystemCoreClockUpdate+0x108>)
   81f1a:	4b1a      	ldr	r3, [pc, #104]	; (81f84 <SystemCoreClockUpdate+0x104>)
   81f1c:	601a      	str	r2, [r3, #0]
   81f1e:	4b17      	ldr	r3, [pc, #92]	; (81f7c <SystemCoreClockUpdate+0xfc>)
   81f20:	6b1b      	ldr	r3, [r3, #48]	; 0x30
   81f22:	f003 0303 	and.w	r3, r3, #3
   81f26:	2b02      	cmp	r3, #2
   81f28:	d10d      	bne.n	81f46 <SystemCoreClockUpdate+0xc6>
   81f2a:	4b14      	ldr	r3, [pc, #80]	; (81f7c <SystemCoreClockUpdate+0xfc>)
   81f2c:	6a98      	ldr	r0, [r3, #40]	; 0x28
   81f2e:	6a99      	ldr	r1, [r3, #40]	; 0x28
   81f30:	4b14      	ldr	r3, [pc, #80]	; (81f84 <SystemCoreClockUpdate+0x104>)
   81f32:	f3c0 400a 	ubfx	r0, r0, #16, #11
   81f36:	681a      	ldr	r2, [r3, #0]
   81f38:	fb00 2202 	mla	r2, r0, r2, r2
   81f3c:	b2c9      	uxtb	r1, r1
   81f3e:	fbb2 f2f1 	udiv	r2, r2, r1
   81f42:	601a      	str	r2, [r3, #0]
   81f44:	e002      	b.n	81f4c <SystemCoreClockUpdate+0xcc>
   81f46:	4a13      	ldr	r2, [pc, #76]	; (81f94 <SystemCoreClockUpdate+0x114>)
   81f48:	4b0e      	ldr	r3, [pc, #56]	; (81f84 <SystemCoreClockUpdate+0x104>)
   81f4a:	601a      	str	r2, [r3, #0]
   81f4c:	4b0b      	ldr	r3, [pc, #44]	; (81f7c <SystemCoreClockUpdate+0xfc>)
   81f4e:	6b1b      	ldr	r3, [r3, #48]	; 0x30
   81f50:	f003 0370 	and.w	r3, r3, #112	; 0x70
   81f54:	2b70      	cmp	r3, #112	; 0x70
   81f56:	d107      	bne.n	81f68 <SystemCoreClockUpdate+0xe8>
   81f58:	4b0a      	ldr	r3, [pc, #40]	; (81f84 <SystemCoreClockUpdate+0x104>)
   81f5a:	681a      	ldr	r2, [r3, #0]
   81f5c:	490e      	ldr	r1, [pc, #56]	; (81f98 <SystemCoreClockUpdate+0x118>)
   81f5e:	fba1 0202 	umull	r0, r2, r1, r2
   81f62:	0852      	lsrs	r2, r2, #1
   81f64:	601a      	str	r2, [r3, #0]
   81f66:	4770      	bx	lr
   81f68:	4b04      	ldr	r3, [pc, #16]	; (81f7c <SystemCoreClockUpdate+0xfc>)
   81f6a:	6b19      	ldr	r1, [r3, #48]	; 0x30
   81f6c:	4b05      	ldr	r3, [pc, #20]	; (81f84 <SystemCoreClockUpdate+0x104>)
   81f6e:	f3c1 1102 	ubfx	r1, r1, #4, #3
   81f72:	681a      	ldr	r2, [r3, #0]
   81f74:	40ca      	lsrs	r2, r1
   81f76:	601a      	str	r2, [r3, #0]
   81f78:	4770      	bx	lr
   81f7a:	bf00      	nop
   81f7c:	400e0600 	.word	0x400e0600
   81f80:	400e1a10 	.word	0x400e1a10
   81f84:	20070140 	.word	0x20070140
   81f88:	00b71b00 	.word	0x00b71b00
   81f8c:	003d0900 	.word	0x003d0900
   81f90:	007a1200 	.word	0x007a1200
   81f94:	0e4e1c00 	.word	0x0e4e1c00
   81f98:	aaaaaaab 	.word	0xaaaaaaab

00081f9c <_sbrk>:
   81f9c:	4b09      	ldr	r3, [pc, #36]	; (81fc4 <_sbrk+0x28>)
   81f9e:	681b      	ldr	r3, [r3, #0]
   81fa0:	b913      	cbnz	r3, 81fa8 <_sbrk+0xc>
   81fa2:	4a09      	ldr	r2, [pc, #36]	; (81fc8 <_sbrk+0x2c>)
   81fa4:	4b07      	ldr	r3, [pc, #28]	; (81fc4 <_sbrk+0x28>)
   81fa6:	601a      	str	r2, [r3, #0]
   81fa8:	4b06      	ldr	r3, [pc, #24]	; (81fc4 <_sbrk+0x28>)
   81faa:	681b      	ldr	r3, [r3, #0]
   81fac:	181a      	adds	r2, r3, r0
   81fae:	4907      	ldr	r1, [pc, #28]	; (81fcc <_sbrk+0x30>)
   81fb0:	4291      	cmp	r1, r2
   81fb2:	db04      	blt.n	81fbe <_sbrk+0x22>
   81fb4:	4610      	mov	r0, r2
   81fb6:	4a03      	ldr	r2, [pc, #12]	; (81fc4 <_sbrk+0x28>)
   81fb8:	6010      	str	r0, [r2, #0]
   81fba:	4618      	mov	r0, r3
   81fbc:	4770      	bx	lr
   81fbe:	f04f 30ff 	mov.w	r0, #4294967295
   81fc2:	4770      	bx	lr
   81fc4:	20070304 	.word	0x20070304
   81fc8:	2007a5d0 	.word	0x2007a5d0
   81fcc:	20087ffc 	.word	0x20087ffc

00081fd0 <_close>:
   81fd0:	f04f 30ff 	mov.w	r0, #4294967295
   81fd4:	4770      	bx	lr
   81fd6:	bf00      	nop

00081fd8 <_fstat>:
   81fd8:	f44f 5300 	mov.w	r3, #8192	; 0x2000
   81fdc:	604b      	str	r3, [r1, #4]
   81fde:	2000      	movs	r0, #0
   81fe0:	4770      	bx	lr
   81fe2:	bf00      	nop

00081fe4 <_isatty>:
   81fe4:	2001      	movs	r0, #1
   81fe6:	4770      	bx	lr

00081fe8 <_lseek>:
   81fe8:	2000      	movs	r0, #0
   81fea:	4770      	bx	lr

00081fec <vListInitialise>:
   81fec:	f100 0308 	add.w	r3, r0, #8
   81ff0:	6043      	str	r3, [r0, #4]
   81ff2:	f04f 32ff 	mov.w	r2, #4294967295
   81ff6:	6082      	str	r2, [r0, #8]
   81ff8:	60c3      	str	r3, [r0, #12]
   81ffa:	6103      	str	r3, [r0, #16]
   81ffc:	2300      	movs	r3, #0
   81ffe:	6003      	str	r3, [r0, #0]
   82000:	4770      	bx	lr
   82002:	bf00      	nop

00082004 <vListInitialiseItem>:
   82004:	2300      	movs	r3, #0
   82006:	6103      	str	r3, [r0, #16]
   82008:	4770      	bx	lr
   8200a:	bf00      	nop

0008200c <vListInsertEnd>:
   8200c:	6843      	ldr	r3, [r0, #4]
   8200e:	685a      	ldr	r2, [r3, #4]
   82010:	604a      	str	r2, [r1, #4]
   82012:	6842      	ldr	r2, [r0, #4]
   82014:	608a      	str	r2, [r1, #8]
   82016:	685a      	ldr	r2, [r3, #4]
   82018:	6091      	str	r1, [r2, #8]
   8201a:	6059      	str	r1, [r3, #4]
   8201c:	6041      	str	r1, [r0, #4]
   8201e:	6108      	str	r0, [r1, #16]
   82020:	6803      	ldr	r3, [r0, #0]
   82022:	3301      	adds	r3, #1
   82024:	6003      	str	r3, [r0, #0]
   82026:	4770      	bx	lr

00082028 <vListInsert>:
   82028:	b410      	push	{r4}
   8202a:	680c      	ldr	r4, [r1, #0]
   8202c:	f1b4 3fff 	cmp.w	r4, #4294967295
   82030:	d101      	bne.n	82036 <vListInsert+0xe>
   82032:	6903      	ldr	r3, [r0, #16]
   82034:	e00a      	b.n	8204c <vListInsert+0x24>
   82036:	f100 0308 	add.w	r3, r0, #8
   8203a:	68c2      	ldr	r2, [r0, #12]
   8203c:	6812      	ldr	r2, [r2, #0]
   8203e:	4294      	cmp	r4, r2
   82040:	d304      	bcc.n	8204c <vListInsert+0x24>
   82042:	685b      	ldr	r3, [r3, #4]
   82044:	685a      	ldr	r2, [r3, #4]
   82046:	6812      	ldr	r2, [r2, #0]
   82048:	4294      	cmp	r4, r2
   8204a:	d2fa      	bcs.n	82042 <vListInsert+0x1a>
   8204c:	685a      	ldr	r2, [r3, #4]
   8204e:	604a      	str	r2, [r1, #4]
   82050:	6091      	str	r1, [r2, #8]
   82052:	608b      	str	r3, [r1, #8]
   82054:	6059      	str	r1, [r3, #4]
   82056:	6108      	str	r0, [r1, #16]
   82058:	6803      	ldr	r3, [r0, #0]
   8205a:	3301      	adds	r3, #1
   8205c:	6003      	str	r3, [r0, #0]
   8205e:	f85d 4b04 	ldr.w	r4, [sp], #4
   82062:	4770      	bx	lr

00082064 <uxListRemove>:
   82064:	6843      	ldr	r3, [r0, #4]
   82066:	6882      	ldr	r2, [r0, #8]
   82068:	609a      	str	r2, [r3, #8]
   8206a:	6883      	ldr	r3, [r0, #8]
   8206c:	6842      	ldr	r2, [r0, #4]
   8206e:	605a      	str	r2, [r3, #4]
   82070:	6903      	ldr	r3, [r0, #16]
   82072:	685a      	ldr	r2, [r3, #4]
   82074:	4282      	cmp	r2, r0
   82076:	bf04      	itt	eq
   82078:	6882      	ldreq	r2, [r0, #8]
   8207a:	605a      	streq	r2, [r3, #4]
   8207c:	2200      	movs	r2, #0
   8207e:	6102      	str	r2, [r0, #16]
   82080:	681a      	ldr	r2, [r3, #0]
   82082:	3a01      	subs	r2, #1
   82084:	601a      	str	r2, [r3, #0]
   82086:	6818      	ldr	r0, [r3, #0]
   82088:	4770      	bx	lr
   8208a:	bf00      	nop

0008208c <prvPortStartFirstTask>:
   8208c:	4803      	ldr	r0, [pc, #12]	; (8209c <prvPortStartFirstTask+0x10>)
   8208e:	6800      	ldr	r0, [r0, #0]
   82090:	6800      	ldr	r0, [r0, #0]
   82092:	f380 8808 	msr	MSP, r0
   82096:	b662      	cpsie	i
   82098:	df00      	svc	0
   8209a:	bf00      	nop
   8209c:	e000ed08 	.word	0xe000ed08

000820a0 <pxPortInitialiseStack>:
   820a0:	f04f 7380 	mov.w	r3, #16777216	; 0x1000000
   820a4:	f840 3c04 	str.w	r3, [r0, #-4]
   820a8:	f840 1c08 	str.w	r1, [r0, #-8]
   820ac:	2300      	movs	r3, #0
   820ae:	f840 3c0c 	str.w	r3, [r0, #-12]
   820b2:	f840 2c20 	str.w	r2, [r0, #-32]
   820b6:	3840      	subs	r0, #64	; 0x40
   820b8:	4770      	bx	lr
   820ba:	bf00      	nop

000820bc <SVC_Handler>:
   820bc:	4b06      	ldr	r3, [pc, #24]	; (820d8 <pxCurrentTCBConst2>)
   820be:	6819      	ldr	r1, [r3, #0]
   820c0:	6808      	ldr	r0, [r1, #0]
   820c2:	e8b0 0ff0 	ldmia.w	r0!, {r4, r5, r6, r7, r8, r9, sl, fp}
   820c6:	f380 8809 	msr	PSP, r0
   820ca:	f04f 0000 	mov.w	r0, #0
   820ce:	f380 8811 	msr	BASEPRI, r0
   820d2:	f04e 0e0d 	orr.w	lr, lr, #13
   820d6:	4770      	bx	lr

000820d8 <pxCurrentTCBConst2>:
   820d8:	2007841c 	.word	0x2007841c

000820dc <vPortYieldFromISR>:
   820dc:	f04f 5280 	mov.w	r2, #268435456	; 0x10000000
   820e0:	4b01      	ldr	r3, [pc, #4]	; (820e8 <vPortYieldFromISR+0xc>)
   820e2:	601a      	str	r2, [r3, #0]
   820e4:	4770      	bx	lr
   820e6:	bf00      	nop
   820e8:	e000ed04 	.word	0xe000ed04

000820ec <ulPortSetInterruptMask>:
   820ec:	f3ef 8011 	mrs	r0, BASEPRI
   820f0:	f04f 01a0 	mov.w	r1, #160	; 0xa0
   820f4:	f381 8811 	msr	BASEPRI, r1
   820f8:	4770      	bx	lr
   820fa:	2000      	movs	r0, #0

000820fc <vPortEnterCritical>:
   820fc:	b508      	push	{r3, lr}
   820fe:	4b03      	ldr	r3, [pc, #12]	; (8210c <vPortEnterCritical+0x10>)
   82100:	4798      	blx	r3
   82102:	4b03      	ldr	r3, [pc, #12]	; (82110 <vPortEnterCritical+0x14>)
   82104:	681a      	ldr	r2, [r3, #0]
   82106:	3201      	adds	r2, #1
   82108:	601a      	str	r2, [r3, #0]
   8210a:	bd08      	pop	{r3, pc}
   8210c:	000820ed 	.word	0x000820ed
   82110:	20070144 	.word	0x20070144

00082114 <vPortClearInterruptMask>:
   82114:	f380 8811 	msr	BASEPRI, r0
   82118:	4770      	bx	lr
   8211a:	bf00      	nop

0008211c <vPortExitCritical>:
   8211c:	b508      	push	{r3, lr}
   8211e:	4a04      	ldr	r2, [pc, #16]	; (82130 <vPortExitCritical+0x14>)
   82120:	6813      	ldr	r3, [r2, #0]
   82122:	3b01      	subs	r3, #1
   82124:	6013      	str	r3, [r2, #0]
   82126:	b913      	cbnz	r3, 8212e <vPortExitCritical+0x12>
   82128:	2000      	movs	r0, #0
   8212a:	4b02      	ldr	r3, [pc, #8]	; (82134 <vPortExitCritical+0x18>)
   8212c:	4798      	blx	r3
   8212e:	bd08      	pop	{r3, pc}
   82130:	20070144 	.word	0x20070144
   82134:	00082115 	.word	0x00082115

00082138 <PendSV_Handler>:
   82138:	f3ef 8009 	mrs	r0, PSP
   8213c:	4b0c      	ldr	r3, [pc, #48]	; (82170 <pxCurrentTCBConst>)
   8213e:	681a      	ldr	r2, [r3, #0]
   82140:	e920 0ff0 	stmdb	r0!, {r4, r5, r6, r7, r8, r9, sl, fp}
   82144:	6010      	str	r0, [r2, #0]
   82146:	e92d 4008 	stmdb	sp!, {r3, lr}
   8214a:	f04f 00a0 	mov.w	r0, #160	; 0xa0
   8214e:	f380 8811 	msr	BASEPRI, r0
   82152:	f000 feaf 	bl	82eb4 <vTaskSwitchContext>
   82156:	f04f 0000 	mov.w	r0, #0
   8215a:	f380 8811 	msr	BASEPRI, r0
   8215e:	e8bd 4008 	ldmia.w	sp!, {r3, lr}
   82162:	6819      	ldr	r1, [r3, #0]
   82164:	6808      	ldr	r0, [r1, #0]
   82166:	e8b0 0ff0 	ldmia.w	r0!, {r4, r5, r6, r7, r8, r9, sl, fp}
   8216a:	f380 8809 	msr	PSP, r0
   8216e:	4770      	bx	lr

00082170 <pxCurrentTCBConst>:
   82170:	2007841c 	.word	0x2007841c

00082174 <SysTick_Handler>:
   82174:	b508      	push	{r3, lr}
   82176:	f04f 5280 	mov.w	r2, #268435456	; 0x10000000
   8217a:	4b05      	ldr	r3, [pc, #20]	; (82190 <SysTick_Handler+0x1c>)
   8217c:	601a      	str	r2, [r3, #0]
   8217e:	4b05      	ldr	r3, [pc, #20]	; (82194 <SysTick_Handler+0x20>)
   82180:	4798      	blx	r3
   82182:	4b05      	ldr	r3, [pc, #20]	; (82198 <SysTick_Handler+0x24>)
   82184:	4798      	blx	r3
   82186:	2000      	movs	r0, #0
   82188:	4b04      	ldr	r3, [pc, #16]	; (8219c <SysTick_Handler+0x28>)
   8218a:	4798      	blx	r3
   8218c:	bd08      	pop	{r3, pc}
   8218e:	bf00      	nop
   82190:	e000ed04 	.word	0xe000ed04
   82194:	000820ed 	.word	0x000820ed
   82198:	00082b79 	.word	0x00082b79
   8219c:	00082115 	.word	0x00082115

000821a0 <vPortSetupTimerInterrupt>:
   821a0:	4a03      	ldr	r2, [pc, #12]	; (821b0 <vPortSetupTimerInterrupt+0x10>)
   821a2:	4b04      	ldr	r3, [pc, #16]	; (821b4 <vPortSetupTimerInterrupt+0x14>)
   821a4:	601a      	str	r2, [r3, #0]
   821a6:	2207      	movs	r2, #7
   821a8:	3b04      	subs	r3, #4
   821aa:	601a      	str	r2, [r3, #0]
   821ac:	4770      	bx	lr
   821ae:	bf00      	nop
   821b0:	0001481f 	.word	0x0001481f
   821b4:	e000e014 	.word	0xe000e014

000821b8 <xPortStartScheduler>:
   821b8:	b510      	push	{r4, lr}
   821ba:	4b09      	ldr	r3, [pc, #36]	; (821e0 <xPortStartScheduler+0x28>)
   821bc:	681a      	ldr	r2, [r3, #0]
   821be:	f442 0270 	orr.w	r2, r2, #15728640	; 0xf00000
   821c2:	601a      	str	r2, [r3, #0]
   821c4:	681a      	ldr	r2, [r3, #0]
   821c6:	f042 4270 	orr.w	r2, r2, #4026531840	; 0xf0000000
   821ca:	601a      	str	r2, [r3, #0]
   821cc:	4b05      	ldr	r3, [pc, #20]	; (821e4 <xPortStartScheduler+0x2c>)
   821ce:	4798      	blx	r3
   821d0:	2400      	movs	r4, #0
   821d2:	4b05      	ldr	r3, [pc, #20]	; (821e8 <xPortStartScheduler+0x30>)
   821d4:	601c      	str	r4, [r3, #0]
   821d6:	4b05      	ldr	r3, [pc, #20]	; (821ec <xPortStartScheduler+0x34>)
   821d8:	4798      	blx	r3
   821da:	4620      	mov	r0, r4
   821dc:	bd10      	pop	{r4, pc}
   821de:	bf00      	nop
   821e0:	e000ed20 	.word	0xe000ed20
   821e4:	000821a1 	.word	0x000821a1
   821e8:	20070144 	.word	0x20070144
   821ec:	0008208d 	.word	0x0008208d

000821f0 <prvInsertBlockIntoFreeList>:
   821f0:	b430      	push	{r4, r5}
   821f2:	4a13      	ldr	r2, [pc, #76]	; (82240 <prvInsertBlockIntoFreeList+0x50>)
   821f4:	6813      	ldr	r3, [r2, #0]
   821f6:	4283      	cmp	r3, r0
   821f8:	d201      	bcs.n	821fe <prvInsertBlockIntoFreeList+0xe>
   821fa:	461a      	mov	r2, r3
   821fc:	e7fa      	b.n	821f4 <prvInsertBlockIntoFreeList+0x4>
   821fe:	4611      	mov	r1, r2
   82200:	6854      	ldr	r4, [r2, #4]
   82202:	1915      	adds	r5, r2, r4
   82204:	4285      	cmp	r5, r0
   82206:	d103      	bne.n	82210 <prvInsertBlockIntoFreeList+0x20>
   82208:	6868      	ldr	r0, [r5, #4]
   8220a:	4404      	add	r4, r0
   8220c:	6054      	str	r4, [r2, #4]
   8220e:	4610      	mov	r0, r2
   82210:	6842      	ldr	r2, [r0, #4]
   82212:	1884      	adds	r4, r0, r2
   82214:	42a3      	cmp	r3, r4
   82216:	d10c      	bne.n	82232 <prvInsertBlockIntoFreeList+0x42>
   82218:	4c0a      	ldr	r4, [pc, #40]	; (82244 <prvInsertBlockIntoFreeList+0x54>)
   8221a:	6824      	ldr	r4, [r4, #0]
   8221c:	429c      	cmp	r4, r3
   8221e:	d006      	beq.n	8222e <prvInsertBlockIntoFreeList+0x3e>
   82220:	685b      	ldr	r3, [r3, #4]
   82222:	441a      	add	r2, r3
   82224:	6042      	str	r2, [r0, #4]
   82226:	680b      	ldr	r3, [r1, #0]
   82228:	681b      	ldr	r3, [r3, #0]
   8222a:	6003      	str	r3, [r0, #0]
   8222c:	e002      	b.n	82234 <prvInsertBlockIntoFreeList+0x44>
   8222e:	6003      	str	r3, [r0, #0]
   82230:	e000      	b.n	82234 <prvInsertBlockIntoFreeList+0x44>
   82232:	6003      	str	r3, [r0, #0]
   82234:	4281      	cmp	r1, r0
   82236:	bf18      	it	ne
   82238:	6008      	strne	r0, [r1, #0]
   8223a:	bc30      	pop	{r4, r5}
   8223c:	4770      	bx	lr
   8223e:	bf00      	nop
   82240:	2007830c 	.word	0x2007830c
   82244:	20078308 	.word	0x20078308

00082248 <pvPortMalloc>:
   82248:	b538      	push	{r3, r4, r5, lr}
   8224a:	4604      	mov	r4, r0
   8224c:	4b28      	ldr	r3, [pc, #160]	; (822f0 <pvPortMalloc+0xa8>)
   8224e:	4798      	blx	r3
   82250:	4b28      	ldr	r3, [pc, #160]	; (822f4 <pvPortMalloc+0xac>)
   82252:	681b      	ldr	r3, [r3, #0]
   82254:	b99b      	cbnz	r3, 8227e <pvPortMalloc+0x36>
   82256:	4a28      	ldr	r2, [pc, #160]	; (822f8 <pvPortMalloc+0xb0>)
   82258:	4b28      	ldr	r3, [pc, #160]	; (822fc <pvPortMalloc+0xb4>)
   8225a:	6013      	str	r3, [r2, #0]
   8225c:	2100      	movs	r1, #0
   8225e:	6051      	str	r1, [r2, #4]
   82260:	f647 72f0 	movw	r2, #32752	; 0x7ff0
   82264:	1898      	adds	r0, r3, r2
   82266:	4d23      	ldr	r5, [pc, #140]	; (822f4 <pvPortMalloc+0xac>)
   82268:	6028      	str	r0, [r5, #0]
   8226a:	f647 75f4 	movw	r5, #32756	; 0x7ff4
   8226e:	5159      	str	r1, [r3, r5]
   82270:	5099      	str	r1, [r3, r2]
   82272:	605a      	str	r2, [r3, #4]
   82274:	6018      	str	r0, [r3, #0]
   82276:	4b22      	ldr	r3, [pc, #136]	; (82300 <pvPortMalloc+0xb8>)
   82278:	681a      	ldr	r2, [r3, #0]
   8227a:	3a10      	subs	r2, #16
   8227c:	601a      	str	r2, [r3, #0]
   8227e:	2c00      	cmp	r4, #0
   82280:	d02d      	beq.n	822de <pvPortMalloc+0x96>
   82282:	f104 0210 	add.w	r2, r4, #16
   82286:	f012 0f07 	tst.w	r2, #7
   8228a:	bf1c      	itt	ne
   8228c:	f022 0207 	bicne.w	r2, r2, #7
   82290:	3208      	addne	r2, #8
   82292:	1e51      	subs	r1, r2, #1
   82294:	f647 73fe 	movw	r3, #32766	; 0x7ffe
   82298:	4299      	cmp	r1, r3
   8229a:	d822      	bhi.n	822e2 <pvPortMalloc+0x9a>
   8229c:	4916      	ldr	r1, [pc, #88]	; (822f8 <pvPortMalloc+0xb0>)
   8229e:	680c      	ldr	r4, [r1, #0]
   822a0:	6863      	ldr	r3, [r4, #4]
   822a2:	429a      	cmp	r2, r3
   822a4:	d904      	bls.n	822b0 <pvPortMalloc+0x68>
   822a6:	6823      	ldr	r3, [r4, #0]
   822a8:	b113      	cbz	r3, 822b0 <pvPortMalloc+0x68>
   822aa:	4621      	mov	r1, r4
   822ac:	461c      	mov	r4, r3
   822ae:	e7f7      	b.n	822a0 <pvPortMalloc+0x58>
   822b0:	4b10      	ldr	r3, [pc, #64]	; (822f4 <pvPortMalloc+0xac>)
   822b2:	681b      	ldr	r3, [r3, #0]
   822b4:	429c      	cmp	r4, r3
   822b6:	d016      	beq.n	822e6 <pvPortMalloc+0x9e>
   822b8:	680d      	ldr	r5, [r1, #0]
   822ba:	3510      	adds	r5, #16
   822bc:	6823      	ldr	r3, [r4, #0]
   822be:	600b      	str	r3, [r1, #0]
   822c0:	6863      	ldr	r3, [r4, #4]
   822c2:	1a9b      	subs	r3, r3, r2
   822c4:	2b20      	cmp	r3, #32
   822c6:	d904      	bls.n	822d2 <pvPortMalloc+0x8a>
   822c8:	18a0      	adds	r0, r4, r2
   822ca:	6043      	str	r3, [r0, #4]
   822cc:	6062      	str	r2, [r4, #4]
   822ce:	4b0d      	ldr	r3, [pc, #52]	; (82304 <pvPortMalloc+0xbc>)
   822d0:	4798      	blx	r3
   822d2:	4b0b      	ldr	r3, [pc, #44]	; (82300 <pvPortMalloc+0xb8>)
   822d4:	681a      	ldr	r2, [r3, #0]
   822d6:	6861      	ldr	r1, [r4, #4]
   822d8:	1a52      	subs	r2, r2, r1
   822da:	601a      	str	r2, [r3, #0]
   822dc:	e004      	b.n	822e8 <pvPortMalloc+0xa0>
   822de:	2500      	movs	r5, #0
   822e0:	e002      	b.n	822e8 <pvPortMalloc+0xa0>
   822e2:	2500      	movs	r5, #0
   822e4:	e000      	b.n	822e8 <pvPortMalloc+0xa0>
   822e6:	2500      	movs	r5, #0
   822e8:	4b07      	ldr	r3, [pc, #28]	; (82308 <pvPortMalloc+0xc0>)
   822ea:	4798      	blx	r3
   822ec:	4628      	mov	r0, r5
   822ee:	bd38      	pop	{r3, r4, r5, pc}
   822f0:	00082b49 	.word	0x00082b49
   822f4:	20078308 	.word	0x20078308
   822f8:	2007830c 	.word	0x2007830c
   822fc:	20070308 	.word	0x20070308
   82300:	20070148 	.word	0x20070148
   82304:	000821f1 	.word	0x000821f1
   82308:	00082c99 	.word	0x00082c99

0008230c <vPortFree>:
   8230c:	b510      	push	{r4, lr}
   8230e:	4604      	mov	r4, r0
   82310:	b168      	cbz	r0, 8232e <vPortFree+0x22>
   82312:	4b07      	ldr	r3, [pc, #28]	; (82330 <vPortFree+0x24>)
   82314:	4798      	blx	r3
   82316:	4b07      	ldr	r3, [pc, #28]	; (82334 <vPortFree+0x28>)
   82318:	6819      	ldr	r1, [r3, #0]
   8231a:	f854 2c0c 	ldr.w	r2, [r4, #-12]
   8231e:	440a      	add	r2, r1
   82320:	601a      	str	r2, [r3, #0]
   82322:	f1a4 0010 	sub.w	r0, r4, #16
   82326:	4b04      	ldr	r3, [pc, #16]	; (82338 <vPortFree+0x2c>)
   82328:	4798      	blx	r3
   8232a:	4b04      	ldr	r3, [pc, #16]	; (8233c <vPortFree+0x30>)
   8232c:	4798      	blx	r3
   8232e:	bd10      	pop	{r4, pc}
   82330:	00082b49 	.word	0x00082b49
   82334:	20070148 	.word	0x20070148
   82338:	000821f1 	.word	0x000821f1
   8233c:	00082c99 	.word	0x00082c99

00082340 <prvCopyDataToQueue>:
   82340:	b510      	push	{r4, lr}
   82342:	4604      	mov	r4, r0
   82344:	6c03      	ldr	r3, [r0, #64]	; 0x40
   82346:	b93b      	cbnz	r3, 82358 <prvCopyDataToQueue+0x18>
   82348:	6803      	ldr	r3, [r0, #0]
   8234a:	bb1b      	cbnz	r3, 82394 <prvCopyDataToQueue+0x54>
   8234c:	6840      	ldr	r0, [r0, #4]
   8234e:	4b13      	ldr	r3, [pc, #76]	; (8239c <prvCopyDataToQueue+0x5c>)
   82350:	4798      	blx	r3
   82352:	2300      	movs	r3, #0
   82354:	6063      	str	r3, [r4, #4]
   82356:	e01d      	b.n	82394 <prvCopyDataToQueue+0x54>
   82358:	b96a      	cbnz	r2, 82376 <prvCopyDataToQueue+0x36>
   8235a:	6880      	ldr	r0, [r0, #8]
   8235c:	461a      	mov	r2, r3
   8235e:	4b10      	ldr	r3, [pc, #64]	; (823a0 <prvCopyDataToQueue+0x60>)
   82360:	4798      	blx	r3
   82362:	68a2      	ldr	r2, [r4, #8]
   82364:	6c23      	ldr	r3, [r4, #64]	; 0x40
   82366:	4413      	add	r3, r2
   82368:	60a3      	str	r3, [r4, #8]
   8236a:	6862      	ldr	r2, [r4, #4]
   8236c:	4293      	cmp	r3, r2
   8236e:	d311      	bcc.n	82394 <prvCopyDataToQueue+0x54>
   82370:	6823      	ldr	r3, [r4, #0]
   82372:	60a3      	str	r3, [r4, #8]
   82374:	e00e      	b.n	82394 <prvCopyDataToQueue+0x54>
   82376:	68c0      	ldr	r0, [r0, #12]
   82378:	461a      	mov	r2, r3
   8237a:	4b09      	ldr	r3, [pc, #36]	; (823a0 <prvCopyDataToQueue+0x60>)
   8237c:	4798      	blx	r3
   8237e:	6c22      	ldr	r2, [r4, #64]	; 0x40
   82380:	4252      	negs	r2, r2
   82382:	68e3      	ldr	r3, [r4, #12]
   82384:	4413      	add	r3, r2
   82386:	60e3      	str	r3, [r4, #12]
   82388:	6821      	ldr	r1, [r4, #0]
   8238a:	428b      	cmp	r3, r1
   8238c:	d202      	bcs.n	82394 <prvCopyDataToQueue+0x54>
   8238e:	6863      	ldr	r3, [r4, #4]
   82390:	441a      	add	r2, r3
   82392:	60e2      	str	r2, [r4, #12]
   82394:	6ba3      	ldr	r3, [r4, #56]	; 0x38
   82396:	3301      	adds	r3, #1
   82398:	63a3      	str	r3, [r4, #56]	; 0x38
   8239a:	bd10      	pop	{r4, pc}
   8239c:	000831cd 	.word	0x000831cd
   823a0:	00083981 	.word	0x00083981

000823a4 <prvCopyDataFromQueue>:
   823a4:	b538      	push	{r3, r4, r5, lr}
   823a6:	4603      	mov	r3, r0
   823a8:	6805      	ldr	r5, [r0, #0]
   823aa:	b15d      	cbz	r5, 823c4 <prvCopyDataFromQueue+0x20>
   823ac:	6c02      	ldr	r2, [r0, #64]	; 0x40
   823ae:	68c4      	ldr	r4, [r0, #12]
   823b0:	4414      	add	r4, r2
   823b2:	60c4      	str	r4, [r0, #12]
   823b4:	6840      	ldr	r0, [r0, #4]
   823b6:	4284      	cmp	r4, r0
   823b8:	bf28      	it	cs
   823ba:	60dd      	strcs	r5, [r3, #12]
   823bc:	4608      	mov	r0, r1
   823be:	68d9      	ldr	r1, [r3, #12]
   823c0:	4b01      	ldr	r3, [pc, #4]	; (823c8 <prvCopyDataFromQueue+0x24>)
   823c2:	4798      	blx	r3
   823c4:	bd38      	pop	{r3, r4, r5, pc}
   823c6:	bf00      	nop
   823c8:	00083981 	.word	0x00083981

000823cc <prvUnlockQueue>:
   823cc:	b5f8      	push	{r3, r4, r5, r6, r7, lr}
   823ce:	4604      	mov	r4, r0
   823d0:	4b1d      	ldr	r3, [pc, #116]	; (82448 <prvUnlockQueue+0x7c>)
   823d2:	4798      	blx	r3
   823d4:	6ca3      	ldr	r3, [r4, #72]	; 0x48
   823d6:	2b00      	cmp	r3, #0
   823d8:	dd12      	ble.n	82400 <prvUnlockQueue+0x34>
   823da:	6a63      	ldr	r3, [r4, #36]	; 0x24
   823dc:	b183      	cbz	r3, 82400 <prvUnlockQueue+0x34>
   823de:	f104 0624 	add.w	r6, r4, #36	; 0x24
   823e2:	4d1a      	ldr	r5, [pc, #104]	; (8244c <prvUnlockQueue+0x80>)
   823e4:	4f1a      	ldr	r7, [pc, #104]	; (82450 <prvUnlockQueue+0x84>)
   823e6:	e001      	b.n	823ec <prvUnlockQueue+0x20>
   823e8:	6a63      	ldr	r3, [r4, #36]	; 0x24
   823ea:	b14b      	cbz	r3, 82400 <prvUnlockQueue+0x34>
   823ec:	4630      	mov	r0, r6
   823ee:	47a8      	blx	r5
   823f0:	b100      	cbz	r0, 823f4 <prvUnlockQueue+0x28>
   823f2:	47b8      	blx	r7
   823f4:	6ca3      	ldr	r3, [r4, #72]	; 0x48
   823f6:	3b01      	subs	r3, #1
   823f8:	64a3      	str	r3, [r4, #72]	; 0x48
   823fa:	6ca3      	ldr	r3, [r4, #72]	; 0x48
   823fc:	2b00      	cmp	r3, #0
   823fe:	dcf3      	bgt.n	823e8 <prvUnlockQueue+0x1c>
   82400:	f04f 33ff 	mov.w	r3, #4294967295
   82404:	64a3      	str	r3, [r4, #72]	; 0x48
   82406:	4b13      	ldr	r3, [pc, #76]	; (82454 <prvUnlockQueue+0x88>)
   82408:	4798      	blx	r3
   8240a:	4b0f      	ldr	r3, [pc, #60]	; (82448 <prvUnlockQueue+0x7c>)
   8240c:	4798      	blx	r3
   8240e:	6c63      	ldr	r3, [r4, #68]	; 0x44
   82410:	2b00      	cmp	r3, #0
   82412:	dd12      	ble.n	8243a <prvUnlockQueue+0x6e>
   82414:	6923      	ldr	r3, [r4, #16]
   82416:	b183      	cbz	r3, 8243a <prvUnlockQueue+0x6e>
   82418:	f104 0610 	add.w	r6, r4, #16
   8241c:	4d0b      	ldr	r5, [pc, #44]	; (8244c <prvUnlockQueue+0x80>)
   8241e:	4f0c      	ldr	r7, [pc, #48]	; (82450 <prvUnlockQueue+0x84>)
   82420:	e001      	b.n	82426 <prvUnlockQueue+0x5a>
   82422:	6923      	ldr	r3, [r4, #16]
   82424:	b14b      	cbz	r3, 8243a <prvUnlockQueue+0x6e>
   82426:	4630      	mov	r0, r6
   82428:	47a8      	blx	r5
   8242a:	b100      	cbz	r0, 8242e <prvUnlockQueue+0x62>
   8242c:	47b8      	blx	r7
   8242e:	6c63      	ldr	r3, [r4, #68]	; 0x44
   82430:	3b01      	subs	r3, #1
   82432:	6463      	str	r3, [r4, #68]	; 0x44
   82434:	6c63      	ldr	r3, [r4, #68]	; 0x44
   82436:	2b00      	cmp	r3, #0
   82438:	dcf3      	bgt.n	82422 <prvUnlockQueue+0x56>
   8243a:	f04f 33ff 	mov.w	r3, #4294967295
   8243e:	6463      	str	r3, [r4, #68]	; 0x44
   82440:	4b04      	ldr	r3, [pc, #16]	; (82454 <prvUnlockQueue+0x88>)
   82442:	4798      	blx	r3
   82444:	bdf8      	pop	{r3, r4, r5, r6, r7, pc}
   82446:	bf00      	nop
   82448:	000820fd 	.word	0x000820fd
   8244c:	00082fe9 	.word	0x00082fe9
   82450:	00083119 	.word	0x00083119
   82454:	0008211d 	.word	0x0008211d

00082458 <xQueueGenericReset>:
   82458:	b538      	push	{r3, r4, r5, lr}
   8245a:	460d      	mov	r5, r1
   8245c:	4604      	mov	r4, r0
   8245e:	b918      	cbnz	r0, 82468 <xQueueGenericReset+0x10>
   82460:	4b16      	ldr	r3, [pc, #88]	; (824bc <xQueueGenericReset+0x64>)
   82462:	4798      	blx	r3
   82464:	bf00      	nop
   82466:	e7fd      	b.n	82464 <xQueueGenericReset+0xc>
   82468:	4b15      	ldr	r3, [pc, #84]	; (824c0 <xQueueGenericReset+0x68>)
   8246a:	4798      	blx	r3
   8246c:	6823      	ldr	r3, [r4, #0]
   8246e:	6c22      	ldr	r2, [r4, #64]	; 0x40
   82470:	6be0      	ldr	r0, [r4, #60]	; 0x3c
   82472:	fb00 f002 	mul.w	r0, r0, r2
   82476:	1819      	adds	r1, r3, r0
   82478:	6061      	str	r1, [r4, #4]
   8247a:	2100      	movs	r1, #0
   8247c:	63a1      	str	r1, [r4, #56]	; 0x38
   8247e:	60a3      	str	r3, [r4, #8]
   82480:	1a82      	subs	r2, r0, r2
   82482:	4413      	add	r3, r2
   82484:	60e3      	str	r3, [r4, #12]
   82486:	f04f 33ff 	mov.w	r3, #4294967295
   8248a:	6463      	str	r3, [r4, #68]	; 0x44
   8248c:	64a3      	str	r3, [r4, #72]	; 0x48
   8248e:	b955      	cbnz	r5, 824a6 <xQueueGenericReset+0x4e>
   82490:	6923      	ldr	r3, [r4, #16]
   82492:	b17b      	cbz	r3, 824b4 <xQueueGenericReset+0x5c>
   82494:	f104 0010 	add.w	r0, r4, #16
   82498:	4b0a      	ldr	r3, [pc, #40]	; (824c4 <xQueueGenericReset+0x6c>)
   8249a:	4798      	blx	r3
   8249c:	2801      	cmp	r0, #1
   8249e:	d109      	bne.n	824b4 <xQueueGenericReset+0x5c>
   824a0:	4b09      	ldr	r3, [pc, #36]	; (824c8 <xQueueGenericReset+0x70>)
   824a2:	4798      	blx	r3
   824a4:	e006      	b.n	824b4 <xQueueGenericReset+0x5c>
   824a6:	f104 0010 	add.w	r0, r4, #16
   824aa:	4d08      	ldr	r5, [pc, #32]	; (824cc <xQueueGenericReset+0x74>)
   824ac:	47a8      	blx	r5
   824ae:	f104 0024 	add.w	r0, r4, #36	; 0x24
   824b2:	47a8      	blx	r5
   824b4:	4b06      	ldr	r3, [pc, #24]	; (824d0 <xQueueGenericReset+0x78>)
   824b6:	4798      	blx	r3
   824b8:	2001      	movs	r0, #1
   824ba:	bd38      	pop	{r3, r4, r5, pc}
   824bc:	000820ed 	.word	0x000820ed
   824c0:	000820fd 	.word	0x000820fd
   824c4:	00082fe9 	.word	0x00082fe9
   824c8:	000820dd 	.word	0x000820dd
   824cc:	00081fed 	.word	0x00081fed
   824d0:	0008211d 	.word	0x0008211d

000824d4 <xQueueGenericCreate>:
   824d4:	b5f8      	push	{r3, r4, r5, r6, r7, lr}
   824d6:	460d      	mov	r5, r1
   824d8:	4617      	mov	r7, r2
   824da:	4606      	mov	r6, r0
   824dc:	b188      	cbz	r0, 82502 <xQueueGenericCreate+0x2e>
   824de:	2050      	movs	r0, #80	; 0x50
   824e0:	4b0e      	ldr	r3, [pc, #56]	; (8251c <xQueueGenericCreate+0x48>)
   824e2:	4798      	blx	r3
   824e4:	4604      	mov	r4, r0
   824e6:	b160      	cbz	r0, 82502 <xQueueGenericCreate+0x2e>
   824e8:	fb05 f006 	mul.w	r0, r5, r6
   824ec:	3001      	adds	r0, #1
   824ee:	4b0b      	ldr	r3, [pc, #44]	; (8251c <xQueueGenericCreate+0x48>)
   824f0:	4798      	blx	r3
   824f2:	6020      	str	r0, [r4, #0]
   824f4:	b940      	cbnz	r0, 82508 <xQueueGenericCreate+0x34>
   824f6:	4620      	mov	r0, r4
   824f8:	4b09      	ldr	r3, [pc, #36]	; (82520 <xQueueGenericCreate+0x4c>)
   824fa:	4798      	blx	r3
   824fc:	e001      	b.n	82502 <xQueueGenericCreate+0x2e>
   824fe:	bf00      	nop
   82500:	e7fd      	b.n	824fe <xQueueGenericCreate+0x2a>
   82502:	4b08      	ldr	r3, [pc, #32]	; (82524 <xQueueGenericCreate+0x50>)
   82504:	4798      	blx	r3
   82506:	e7fa      	b.n	824fe <xQueueGenericCreate+0x2a>
   82508:	63e6      	str	r6, [r4, #60]	; 0x3c
   8250a:	6425      	str	r5, [r4, #64]	; 0x40
   8250c:	4620      	mov	r0, r4
   8250e:	2101      	movs	r1, #1
   82510:	4b05      	ldr	r3, [pc, #20]	; (82528 <xQueueGenericCreate+0x54>)
   82512:	4798      	blx	r3
   82514:	f884 704d 	strb.w	r7, [r4, #77]	; 0x4d
   82518:	4620      	mov	r0, r4
   8251a:	bdf8      	pop	{r3, r4, r5, r6, r7, pc}
   8251c:	00082249 	.word	0x00082249
   82520:	0008230d 	.word	0x0008230d
   82524:	000820ed 	.word	0x000820ed
   82528:	00082459 	.word	0x00082459

0008252c <xQueueGenericSend>:
   8252c:	e92d 4ff0 	stmdb	sp!, {r4, r5, r6, r7, r8, r9, sl, fp, lr}
   82530:	b085      	sub	sp, #20
   82532:	468a      	mov	sl, r1
   82534:	9201      	str	r2, [sp, #4]
   82536:	469b      	mov	fp, r3
   82538:	4604      	mov	r4, r0
   8253a:	b918      	cbnz	r0, 82544 <xQueueGenericSend+0x18>
   8253c:	4b36      	ldr	r3, [pc, #216]	; (82618 <xQueueGenericSend+0xec>)
   8253e:	4798      	blx	r3
   82540:	bf00      	nop
   82542:	e7fd      	b.n	82540 <xQueueGenericSend+0x14>
   82544:	b909      	cbnz	r1, 8254a <xQueueGenericSend+0x1e>
   82546:	6c03      	ldr	r3, [r0, #64]	; 0x40
   82548:	b91b      	cbnz	r3, 82552 <xQueueGenericSend+0x26>
   8254a:	2700      	movs	r7, #0
   8254c:	4e33      	ldr	r6, [pc, #204]	; (8261c <xQueueGenericSend+0xf0>)
   8254e:	4d34      	ldr	r5, [pc, #208]	; (82620 <xQueueGenericSend+0xf4>)
   82550:	e003      	b.n	8255a <xQueueGenericSend+0x2e>
   82552:	4b31      	ldr	r3, [pc, #196]	; (82618 <xQueueGenericSend+0xec>)
   82554:	4798      	blx	r3
   82556:	bf00      	nop
   82558:	e7fd      	b.n	82556 <xQueueGenericSend+0x2a>
   8255a:	47b0      	blx	r6
   8255c:	6ba2      	ldr	r2, [r4, #56]	; 0x38
   8255e:	6be3      	ldr	r3, [r4, #60]	; 0x3c
   82560:	429a      	cmp	r2, r3
   82562:	d212      	bcs.n	8258a <xQueueGenericSend+0x5e>
   82564:	4620      	mov	r0, r4
   82566:	4651      	mov	r1, sl
   82568:	465a      	mov	r2, fp
   8256a:	4b2e      	ldr	r3, [pc, #184]	; (82624 <xQueueGenericSend+0xf8>)
   8256c:	4798      	blx	r3
   8256e:	6a63      	ldr	r3, [r4, #36]	; 0x24
   82570:	b13b      	cbz	r3, 82582 <xQueueGenericSend+0x56>
   82572:	f104 0024 	add.w	r0, r4, #36	; 0x24
   82576:	4b2c      	ldr	r3, [pc, #176]	; (82628 <xQueueGenericSend+0xfc>)
   82578:	4798      	blx	r3
   8257a:	2801      	cmp	r0, #1
   8257c:	d101      	bne.n	82582 <xQueueGenericSend+0x56>
   8257e:	4b2b      	ldr	r3, [pc, #172]	; (8262c <xQueueGenericSend+0x100>)
   82580:	4798      	blx	r3
   82582:	4b27      	ldr	r3, [pc, #156]	; (82620 <xQueueGenericSend+0xf4>)
   82584:	4798      	blx	r3
   82586:	2001      	movs	r0, #1
   82588:	e043      	b.n	82612 <xQueueGenericSend+0xe6>
   8258a:	9b01      	ldr	r3, [sp, #4]
   8258c:	b91b      	cbnz	r3, 82596 <xQueueGenericSend+0x6a>
   8258e:	4b24      	ldr	r3, [pc, #144]	; (82620 <xQueueGenericSend+0xf4>)
   82590:	4798      	blx	r3
   82592:	2000      	movs	r0, #0
   82594:	e03d      	b.n	82612 <xQueueGenericSend+0xe6>
   82596:	b91f      	cbnz	r7, 825a0 <xQueueGenericSend+0x74>
   82598:	a802      	add	r0, sp, #8
   8259a:	4b25      	ldr	r3, [pc, #148]	; (82630 <xQueueGenericSend+0x104>)
   8259c:	4798      	blx	r3
   8259e:	2701      	movs	r7, #1
   825a0:	47a8      	blx	r5
   825a2:	4b24      	ldr	r3, [pc, #144]	; (82634 <xQueueGenericSend+0x108>)
   825a4:	4798      	blx	r3
   825a6:	47b0      	blx	r6
   825a8:	6c63      	ldr	r3, [r4, #68]	; 0x44
   825aa:	f1b3 3fff 	cmp.w	r3, #4294967295
   825ae:	bf04      	itt	eq
   825b0:	2300      	moveq	r3, #0
   825b2:	6463      	streq	r3, [r4, #68]	; 0x44
   825b4:	6ca3      	ldr	r3, [r4, #72]	; 0x48
   825b6:	f1b3 3fff 	cmp.w	r3, #4294967295
   825ba:	bf04      	itt	eq
   825bc:	2300      	moveq	r3, #0
   825be:	64a3      	streq	r3, [r4, #72]	; 0x48
   825c0:	47a8      	blx	r5
   825c2:	a802      	add	r0, sp, #8
   825c4:	a901      	add	r1, sp, #4
   825c6:	4b1c      	ldr	r3, [pc, #112]	; (82638 <xQueueGenericSend+0x10c>)
   825c8:	4798      	blx	r3
   825ca:	b9e0      	cbnz	r0, 82606 <xQueueGenericSend+0xda>
   825cc:	47b0      	blx	r6
   825ce:	f8d4 9038 	ldr.w	r9, [r4, #56]	; 0x38
   825d2:	f8d4 803c 	ldr.w	r8, [r4, #60]	; 0x3c
   825d6:	47a8      	blx	r5
   825d8:	45c1      	cmp	r9, r8
   825da:	d10e      	bne.n	825fa <xQueueGenericSend+0xce>
   825dc:	f104 0010 	add.w	r0, r4, #16
   825e0:	9901      	ldr	r1, [sp, #4]
   825e2:	4b16      	ldr	r3, [pc, #88]	; (8263c <xQueueGenericSend+0x110>)
   825e4:	4798      	blx	r3
   825e6:	4620      	mov	r0, r4
   825e8:	4b15      	ldr	r3, [pc, #84]	; (82640 <xQueueGenericSend+0x114>)
   825ea:	4798      	blx	r3
   825ec:	4b15      	ldr	r3, [pc, #84]	; (82644 <xQueueGenericSend+0x118>)
   825ee:	4798      	blx	r3
   825f0:	2800      	cmp	r0, #0
   825f2:	d1b2      	bne.n	8255a <xQueueGenericSend+0x2e>
   825f4:	4b0d      	ldr	r3, [pc, #52]	; (8262c <xQueueGenericSend+0x100>)
   825f6:	4798      	blx	r3
   825f8:	e7af      	b.n	8255a <xQueueGenericSend+0x2e>
   825fa:	4620      	mov	r0, r4
   825fc:	4b10      	ldr	r3, [pc, #64]	; (82640 <xQueueGenericSend+0x114>)
   825fe:	4798      	blx	r3
   82600:	4b10      	ldr	r3, [pc, #64]	; (82644 <xQueueGenericSend+0x118>)
   82602:	4798      	blx	r3
   82604:	e7a9      	b.n	8255a <xQueueGenericSend+0x2e>
   82606:	4620      	mov	r0, r4
   82608:	4b0d      	ldr	r3, [pc, #52]	; (82640 <xQueueGenericSend+0x114>)
   8260a:	4798      	blx	r3
   8260c:	4b0d      	ldr	r3, [pc, #52]	; (82644 <xQueueGenericSend+0x118>)
   8260e:	4798      	blx	r3
   82610:	2000      	movs	r0, #0
   82612:	b005      	add	sp, #20
   82614:	e8bd 8ff0 	ldmia.w	sp!, {r4, r5, r6, r7, r8, r9, sl, fp, pc}
   82618:	000820ed 	.word	0x000820ed
   8261c:	000820fd 	.word	0x000820fd
   82620:	0008211d 	.word	0x0008211d
   82624:	00082341 	.word	0x00082341
   82628:	00082fe9 	.word	0x00082fe9
   8262c:	000820dd 	.word	0x000820dd
   82630:	0008306d 	.word	0x0008306d
   82634:	00082b49 	.word	0x00082b49
   82638:	00083095 	.word	0x00083095
   8263c:	00082f45 	.word	0x00082f45
   82640:	000823cd 	.word	0x000823cd
   82644:	00082c99 	.word	0x00082c99

00082648 <xQueueGenericSendFromISR>:
   82648:	e92d 41f0 	stmdb	sp!, {r4, r5, r6, r7, r8, lr}
   8264c:	460e      	mov	r6, r1
   8264e:	4615      	mov	r5, r2
   82650:	4698      	mov	r8, r3
   82652:	4604      	mov	r4, r0
   82654:	b918      	cbnz	r0, 8265e <xQueueGenericSendFromISR+0x16>
   82656:	4b1c      	ldr	r3, [pc, #112]	; (826c8 <xQueueGenericSendFromISR+0x80>)
   82658:	4798      	blx	r3
   8265a:	bf00      	nop
   8265c:	e7fd      	b.n	8265a <xQueueGenericSendFromISR+0x12>
   8265e:	b929      	cbnz	r1, 8266c <xQueueGenericSendFromISR+0x24>
   82660:	6c03      	ldr	r3, [r0, #64]	; 0x40
   82662:	b11b      	cbz	r3, 8266c <xQueueGenericSendFromISR+0x24>
   82664:	4b18      	ldr	r3, [pc, #96]	; (826c8 <xQueueGenericSendFromISR+0x80>)
   82666:	4798      	blx	r3
   82668:	bf00      	nop
   8266a:	e7fd      	b.n	82668 <xQueueGenericSendFromISR+0x20>
   8266c:	4b16      	ldr	r3, [pc, #88]	; (826c8 <xQueueGenericSendFromISR+0x80>)
   8266e:	4798      	blx	r3
   82670:	4607      	mov	r7, r0
   82672:	6ba2      	ldr	r2, [r4, #56]	; 0x38
   82674:	6be3      	ldr	r3, [r4, #60]	; 0x3c
   82676:	429a      	cmp	r2, r3
   82678:	d218      	bcs.n	826ac <xQueueGenericSendFromISR+0x64>
   8267a:	4620      	mov	r0, r4
   8267c:	4631      	mov	r1, r6
   8267e:	4642      	mov	r2, r8
   82680:	4b12      	ldr	r3, [pc, #72]	; (826cc <xQueueGenericSendFromISR+0x84>)
   82682:	4798      	blx	r3
   82684:	6ca3      	ldr	r3, [r4, #72]	; 0x48
   82686:	f1b3 3fff 	cmp.w	r3, #4294967295
   8268a:	d10a      	bne.n	826a2 <xQueueGenericSendFromISR+0x5a>
   8268c:	6a63      	ldr	r3, [r4, #36]	; 0x24
   8268e:	b17b      	cbz	r3, 826b0 <xQueueGenericSendFromISR+0x68>
   82690:	f104 0024 	add.w	r0, r4, #36	; 0x24
   82694:	4b0e      	ldr	r3, [pc, #56]	; (826d0 <xQueueGenericSendFromISR+0x88>)
   82696:	4798      	blx	r3
   82698:	b160      	cbz	r0, 826b4 <xQueueGenericSendFromISR+0x6c>
   8269a:	b16d      	cbz	r5, 826b8 <xQueueGenericSendFromISR+0x70>
   8269c:	2401      	movs	r4, #1
   8269e:	602c      	str	r4, [r5, #0]
   826a0:	e00b      	b.n	826ba <xQueueGenericSendFromISR+0x72>
   826a2:	6ca3      	ldr	r3, [r4, #72]	; 0x48
   826a4:	3301      	adds	r3, #1
   826a6:	64a3      	str	r3, [r4, #72]	; 0x48
   826a8:	2401      	movs	r4, #1
   826aa:	e006      	b.n	826ba <xQueueGenericSendFromISR+0x72>
   826ac:	2400      	movs	r4, #0
   826ae:	e004      	b.n	826ba <xQueueGenericSendFromISR+0x72>
   826b0:	2401      	movs	r4, #1
   826b2:	e002      	b.n	826ba <xQueueGenericSendFromISR+0x72>
   826b4:	2401      	movs	r4, #1
   826b6:	e000      	b.n	826ba <xQueueGenericSendFromISR+0x72>
   826b8:	2401      	movs	r4, #1
   826ba:	4638      	mov	r0, r7
   826bc:	4b05      	ldr	r3, [pc, #20]	; (826d4 <xQueueGenericSendFromISR+0x8c>)
   826be:	4798      	blx	r3
   826c0:	4620      	mov	r0, r4
   826c2:	e8bd 81f0 	ldmia.w	sp!, {r4, r5, r6, r7, r8, pc}
   826c6:	bf00      	nop
   826c8:	000820ed 	.word	0x000820ed
   826cc:	00082341 	.word	0x00082341
   826d0:	00082fe9 	.word	0x00082fe9
   826d4:	00082115 	.word	0x00082115

000826d8 <xQueueGenericReceive>:
   826d8:	e92d 4ff0 	stmdb	sp!, {r4, r5, r6, r7, r8, r9, sl, fp, lr}
   826dc:	b085      	sub	sp, #20
   826de:	4689      	mov	r9, r1
   826e0:	9201      	str	r2, [sp, #4]
   826e2:	469a      	mov	sl, r3
   826e4:	4604      	mov	r4, r0
   826e6:	b918      	cbnz	r0, 826f0 <xQueueGenericReceive+0x18>
   826e8:	4b44      	ldr	r3, [pc, #272]	; (827fc <xQueueGenericReceive+0x124>)
   826ea:	4798      	blx	r3
   826ec:	bf00      	nop
   826ee:	e7fd      	b.n	826ec <xQueueGenericReceive+0x14>
   826f0:	b909      	cbnz	r1, 826f6 <xQueueGenericReceive+0x1e>
   826f2:	6c03      	ldr	r3, [r0, #64]	; 0x40
   826f4:	b92b      	cbnz	r3, 82702 <xQueueGenericReceive+0x2a>
   826f6:	2700      	movs	r7, #0
   826f8:	4e41      	ldr	r6, [pc, #260]	; (82800 <xQueueGenericReceive+0x128>)
   826fa:	f8df b134 	ldr.w	fp, [pc, #308]	; 82830 <xQueueGenericReceive+0x158>
   826fe:	4d41      	ldr	r5, [pc, #260]	; (82804 <xQueueGenericReceive+0x12c>)
   82700:	e003      	b.n	8270a <xQueueGenericReceive+0x32>
   82702:	4b3e      	ldr	r3, [pc, #248]	; (827fc <xQueueGenericReceive+0x124>)
   82704:	4798      	blx	r3
   82706:	bf00      	nop
   82708:	e7fd      	b.n	82706 <xQueueGenericReceive+0x2e>
   8270a:	47b0      	blx	r6
   8270c:	6ba3      	ldr	r3, [r4, #56]	; 0x38
   8270e:	2b00      	cmp	r3, #0
   82710:	d028      	beq.n	82764 <xQueueGenericReceive+0x8c>
   82712:	68e5      	ldr	r5, [r4, #12]
   82714:	4620      	mov	r0, r4
   82716:	4649      	mov	r1, r9
   82718:	4b3b      	ldr	r3, [pc, #236]	; (82808 <xQueueGenericReceive+0x130>)
   8271a:	4798      	blx	r3
   8271c:	f1ba 0f00 	cmp.w	sl, #0
   82720:	d112      	bne.n	82748 <xQueueGenericReceive+0x70>
   82722:	6ba3      	ldr	r3, [r4, #56]	; 0x38
   82724:	3b01      	subs	r3, #1
   82726:	63a3      	str	r3, [r4, #56]	; 0x38
   82728:	6823      	ldr	r3, [r4, #0]
   8272a:	b913      	cbnz	r3, 82732 <xQueueGenericReceive+0x5a>
   8272c:	4b37      	ldr	r3, [pc, #220]	; (8280c <xQueueGenericReceive+0x134>)
   8272e:	4798      	blx	r3
   82730:	6060      	str	r0, [r4, #4]
   82732:	6923      	ldr	r3, [r4, #16]
   82734:	b193      	cbz	r3, 8275c <xQueueGenericReceive+0x84>
   82736:	f104 0010 	add.w	r0, r4, #16
   8273a:	4b35      	ldr	r3, [pc, #212]	; (82810 <xQueueGenericReceive+0x138>)
   8273c:	4798      	blx	r3
   8273e:	2801      	cmp	r0, #1
   82740:	d10c      	bne.n	8275c <xQueueGenericReceive+0x84>
   82742:	4b34      	ldr	r3, [pc, #208]	; (82814 <xQueueGenericReceive+0x13c>)
   82744:	4798      	blx	r3
   82746:	e009      	b.n	8275c <xQueueGenericReceive+0x84>
   82748:	60e5      	str	r5, [r4, #12]
   8274a:	6a63      	ldr	r3, [r4, #36]	; 0x24
   8274c:	b133      	cbz	r3, 8275c <xQueueGenericReceive+0x84>
   8274e:	f104 0024 	add.w	r0, r4, #36	; 0x24
   82752:	4b2f      	ldr	r3, [pc, #188]	; (82810 <xQueueGenericReceive+0x138>)
   82754:	4798      	blx	r3
   82756:	b108      	cbz	r0, 8275c <xQueueGenericReceive+0x84>
   82758:	4b2e      	ldr	r3, [pc, #184]	; (82814 <xQueueGenericReceive+0x13c>)
   8275a:	4798      	blx	r3
   8275c:	4b29      	ldr	r3, [pc, #164]	; (82804 <xQueueGenericReceive+0x12c>)
   8275e:	4798      	blx	r3
   82760:	2001      	movs	r0, #1
   82762:	e048      	b.n	827f6 <xQueueGenericReceive+0x11e>
   82764:	9b01      	ldr	r3, [sp, #4]
   82766:	b91b      	cbnz	r3, 82770 <xQueueGenericReceive+0x98>
   82768:	4b26      	ldr	r3, [pc, #152]	; (82804 <xQueueGenericReceive+0x12c>)
   8276a:	4798      	blx	r3
   8276c:	2000      	movs	r0, #0
   8276e:	e042      	b.n	827f6 <xQueueGenericReceive+0x11e>
   82770:	b917      	cbnz	r7, 82778 <xQueueGenericReceive+0xa0>
   82772:	a802      	add	r0, sp, #8
   82774:	47d8      	blx	fp
   82776:	2701      	movs	r7, #1
   82778:	47a8      	blx	r5
   8277a:	4b27      	ldr	r3, [pc, #156]	; (82818 <xQueueGenericReceive+0x140>)
   8277c:	4798      	blx	r3
   8277e:	47b0      	blx	r6
   82780:	6c63      	ldr	r3, [r4, #68]	; 0x44
   82782:	f1b3 3fff 	cmp.w	r3, #4294967295
   82786:	bf04      	itt	eq
   82788:	2300      	moveq	r3, #0
   8278a:	6463      	streq	r3, [r4, #68]	; 0x44
   8278c:	6ca3      	ldr	r3, [r4, #72]	; 0x48
   8278e:	f1b3 3fff 	cmp.w	r3, #4294967295
   82792:	bf04      	itt	eq
   82794:	2300      	moveq	r3, #0
   82796:	64a3      	streq	r3, [r4, #72]	; 0x48
   82798:	47a8      	blx	r5
   8279a:	a802      	add	r0, sp, #8
   8279c:	a901      	add	r1, sp, #4
   8279e:	4b1f      	ldr	r3, [pc, #124]	; (8281c <xQueueGenericReceive+0x144>)
   827a0:	4798      	blx	r3
   827a2:	bb10      	cbnz	r0, 827ea <xQueueGenericReceive+0x112>
   827a4:	47b0      	blx	r6
   827a6:	f8d4 8038 	ldr.w	r8, [r4, #56]	; 0x38
   827aa:	47a8      	blx	r5
   827ac:	f1b8 0f00 	cmp.w	r8, #0
   827b0:	d115      	bne.n	827de <xQueueGenericReceive+0x106>
   827b2:	6823      	ldr	r3, [r4, #0]
   827b4:	b923      	cbnz	r3, 827c0 <xQueueGenericReceive+0xe8>
   827b6:	47b0      	blx	r6
   827b8:	6860      	ldr	r0, [r4, #4]
   827ba:	4b19      	ldr	r3, [pc, #100]	; (82820 <xQueueGenericReceive+0x148>)
   827bc:	4798      	blx	r3
   827be:	47a8      	blx	r5
   827c0:	f104 0024 	add.w	r0, r4, #36	; 0x24
   827c4:	9901      	ldr	r1, [sp, #4]
   827c6:	4b17      	ldr	r3, [pc, #92]	; (82824 <xQueueGenericReceive+0x14c>)
   827c8:	4798      	blx	r3
   827ca:	4620      	mov	r0, r4
   827cc:	4b16      	ldr	r3, [pc, #88]	; (82828 <xQueueGenericReceive+0x150>)
   827ce:	4798      	blx	r3
   827d0:	4b16      	ldr	r3, [pc, #88]	; (8282c <xQueueGenericReceive+0x154>)
   827d2:	4798      	blx	r3
   827d4:	2800      	cmp	r0, #0
   827d6:	d198      	bne.n	8270a <xQueueGenericReceive+0x32>
   827d8:	4b0e      	ldr	r3, [pc, #56]	; (82814 <xQueueGenericReceive+0x13c>)
   827da:	4798      	blx	r3
   827dc:	e795      	b.n	8270a <xQueueGenericReceive+0x32>
   827de:	4620      	mov	r0, r4
   827e0:	4b11      	ldr	r3, [pc, #68]	; (82828 <xQueueGenericReceive+0x150>)
   827e2:	4798      	blx	r3
   827e4:	4b11      	ldr	r3, [pc, #68]	; (8282c <xQueueGenericReceive+0x154>)
   827e6:	4798      	blx	r3
   827e8:	e78f      	b.n	8270a <xQueueGenericReceive+0x32>
   827ea:	4620      	mov	r0, r4
   827ec:	4b0e      	ldr	r3, [pc, #56]	; (82828 <xQueueGenericReceive+0x150>)
   827ee:	4798      	blx	r3
   827f0:	4b0e      	ldr	r3, [pc, #56]	; (8282c <xQueueGenericReceive+0x154>)
   827f2:	4798      	blx	r3
   827f4:	2000      	movs	r0, #0
   827f6:	b005      	add	sp, #20
   827f8:	e8bd 8ff0 	ldmia.w	sp!, {r4, r5, r6, r7, r8, r9, sl, fp, pc}
   827fc:	000820ed 	.word	0x000820ed
   82800:	000820fd 	.word	0x000820fd
   82804:	0008211d 	.word	0x0008211d
   82808:	000823a5 	.word	0x000823a5
   8280c:	00083125 	.word	0x00083125
   82810:	00082fe9 	.word	0x00082fe9
   82814:	000820dd 	.word	0x000820dd
   82818:	00082b49 	.word	0x00082b49
   8281c:	00083095 	.word	0x00083095
   82820:	00083151 	.word	0x00083151
   82824:	00082f45 	.word	0x00082f45
   82828:	000823cd 	.word	0x000823cd
   8282c:	00082c99 	.word	0x00082c99
   82830:	0008306d 	.word	0x0008306d

00082834 <vQueueWaitForMessageRestricted>:
   82834:	b538      	push	{r3, r4, r5, lr}
   82836:	4604      	mov	r4, r0
   82838:	460d      	mov	r5, r1
   8283a:	4b0d      	ldr	r3, [pc, #52]	; (82870 <vQueueWaitForMessageRestricted+0x3c>)
   8283c:	4798      	blx	r3
   8283e:	6c63      	ldr	r3, [r4, #68]	; 0x44
   82840:	f1b3 3fff 	cmp.w	r3, #4294967295
   82844:	bf04      	itt	eq
   82846:	2300      	moveq	r3, #0
   82848:	6463      	streq	r3, [r4, #68]	; 0x44
   8284a:	6ca3      	ldr	r3, [r4, #72]	; 0x48
   8284c:	f1b3 3fff 	cmp.w	r3, #4294967295
   82850:	bf04      	itt	eq
   82852:	2300      	moveq	r3, #0
   82854:	64a3      	streq	r3, [r4, #72]	; 0x48
   82856:	4b07      	ldr	r3, [pc, #28]	; (82874 <vQueueWaitForMessageRestricted+0x40>)
   82858:	4798      	blx	r3
   8285a:	6ba3      	ldr	r3, [r4, #56]	; 0x38
   8285c:	b923      	cbnz	r3, 82868 <vQueueWaitForMessageRestricted+0x34>
   8285e:	f104 0024 	add.w	r0, r4, #36	; 0x24
   82862:	4629      	mov	r1, r5
   82864:	4b04      	ldr	r3, [pc, #16]	; (82878 <vQueueWaitForMessageRestricted+0x44>)
   82866:	4798      	blx	r3
   82868:	4620      	mov	r0, r4
   8286a:	4b04      	ldr	r3, [pc, #16]	; (8287c <vQueueWaitForMessageRestricted+0x48>)
   8286c:	4798      	blx	r3
   8286e:	bd38      	pop	{r3, r4, r5, pc}
   82870:	000820fd 	.word	0x000820fd
   82874:	0008211d 	.word	0x0008211d
   82878:	00082fa5 	.word	0x00082fa5
   8287c:	000823cd 	.word	0x000823cd

00082880 <prvAddCurrentTaskToDelayedList>:
   82880:	b510      	push	{r4, lr}
   82882:	4604      	mov	r4, r0
   82884:	4b0e      	ldr	r3, [pc, #56]	; (828c0 <prvAddCurrentTaskToDelayedList+0x40>)
   82886:	681b      	ldr	r3, [r3, #0]
   82888:	6058      	str	r0, [r3, #4]
   8288a:	4b0e      	ldr	r3, [pc, #56]	; (828c4 <prvAddCurrentTaskToDelayedList+0x44>)
   8288c:	681b      	ldr	r3, [r3, #0]
   8288e:	4298      	cmp	r0, r3
   82890:	d207      	bcs.n	828a2 <prvAddCurrentTaskToDelayedList+0x22>
   82892:	4b0d      	ldr	r3, [pc, #52]	; (828c8 <prvAddCurrentTaskToDelayedList+0x48>)
   82894:	6818      	ldr	r0, [r3, #0]
   82896:	4b0a      	ldr	r3, [pc, #40]	; (828c0 <prvAddCurrentTaskToDelayedList+0x40>)
   82898:	6819      	ldr	r1, [r3, #0]
   8289a:	3104      	adds	r1, #4
   8289c:	4b0b      	ldr	r3, [pc, #44]	; (828cc <prvAddCurrentTaskToDelayedList+0x4c>)
   8289e:	4798      	blx	r3
   828a0:	bd10      	pop	{r4, pc}
   828a2:	4b0b      	ldr	r3, [pc, #44]	; (828d0 <prvAddCurrentTaskToDelayedList+0x50>)
   828a4:	6818      	ldr	r0, [r3, #0]
   828a6:	4b06      	ldr	r3, [pc, #24]	; (828c0 <prvAddCurrentTaskToDelayedList+0x40>)
   828a8:	6819      	ldr	r1, [r3, #0]
   828aa:	3104      	adds	r1, #4
   828ac:	4b07      	ldr	r3, [pc, #28]	; (828cc <prvAddCurrentTaskToDelayedList+0x4c>)
   828ae:	4798      	blx	r3
   828b0:	4b08      	ldr	r3, [pc, #32]	; (828d4 <prvAddCurrentTaskToDelayedList+0x54>)
   828b2:	681b      	ldr	r3, [r3, #0]
   828b4:	429c      	cmp	r4, r3
   828b6:	bf3c      	itt	cc
   828b8:	4b06      	ldrcc	r3, [pc, #24]	; (828d4 <prvAddCurrentTaskToDelayedList+0x54>)
   828ba:	601c      	strcc	r4, [r3, #0]
   828bc:	bd10      	pop	{r4, pc}
   828be:	bf00      	nop
   828c0:	2007841c 	.word	0x2007841c
   828c4:	20078438 	.word	0x20078438
   828c8:	2007843c 	.word	0x2007843c
   828cc:	00082029 	.word	0x00082029
   828d0:	2007832c 	.word	0x2007832c
   828d4:	2007014c 	.word	0x2007014c

000828d8 <xTaskGenericCreate>:
   828d8:	e92d 4ff8 	stmdb	sp!, {r3, r4, r5, r6, r7, r8, r9, sl, fp, lr}
   828dc:	460e      	mov	r6, r1
   828de:	4617      	mov	r7, r2
   828e0:	469a      	mov	sl, r3
   828e2:	9d0a      	ldr	r5, [sp, #40]	; 0x28
   828e4:	f8dd 8030 	ldr.w	r8, [sp, #48]	; 0x30
   828e8:	4681      	mov	r9, r0
   828ea:	b918      	cbnz	r0, 828f4 <xTaskGenericCreate+0x1c>
   828ec:	4b62      	ldr	r3, [pc, #392]	; (82a78 <xTaskGenericCreate+0x1a0>)
   828ee:	4798      	blx	r3
   828f0:	bf00      	nop
   828f2:	e7fd      	b.n	828f0 <xTaskGenericCreate+0x18>
   828f4:	2d08      	cmp	r5, #8
   828f6:	d903      	bls.n	82900 <xTaskGenericCreate+0x28>
   828f8:	4b5f      	ldr	r3, [pc, #380]	; (82a78 <xTaskGenericCreate+0x1a0>)
   828fa:	4798      	blx	r3
   828fc:	bf00      	nop
   828fe:	e7fd      	b.n	828fc <xTaskGenericCreate+0x24>
   82900:	204c      	movs	r0, #76	; 0x4c
   82902:	4b5e      	ldr	r3, [pc, #376]	; (82a7c <xTaskGenericCreate+0x1a4>)
   82904:	4798      	blx	r3
   82906:	4604      	mov	r4, r0
   82908:	2800      	cmp	r0, #0
   8290a:	f000 80b1 	beq.w	82a70 <xTaskGenericCreate+0x198>
   8290e:	f1b8 0f00 	cmp.w	r8, #0
   82912:	f040 80a9 	bne.w	82a68 <xTaskGenericCreate+0x190>
   82916:	00b8      	lsls	r0, r7, #2
   82918:	4b58      	ldr	r3, [pc, #352]	; (82a7c <xTaskGenericCreate+0x1a4>)
   8291a:	4798      	blx	r3
   8291c:	6320      	str	r0, [r4, #48]	; 0x30
   8291e:	b918      	cbnz	r0, 82928 <xTaskGenericCreate+0x50>
   82920:	4620      	mov	r0, r4
   82922:	4b57      	ldr	r3, [pc, #348]	; (82a80 <xTaskGenericCreate+0x1a8>)
   82924:	4798      	blx	r3
   82926:	e0a3      	b.n	82a70 <xTaskGenericCreate+0x198>
   82928:	21a5      	movs	r1, #165	; 0xa5
   8292a:	00ba      	lsls	r2, r7, #2
   8292c:	4b55      	ldr	r3, [pc, #340]	; (82a84 <xTaskGenericCreate+0x1ac>)
   8292e:	4798      	blx	r3
   82930:	f107 4780 	add.w	r7, r7, #1073741824	; 0x40000000
   82934:	3f01      	subs	r7, #1
   82936:	6b23      	ldr	r3, [r4, #48]	; 0x30
   82938:	eb03 0387 	add.w	r3, r3, r7, lsl #2
   8293c:	f023 0b07 	bic.w	fp, r3, #7
   82940:	f104 0034 	add.w	r0, r4, #52	; 0x34
   82944:	4631      	mov	r1, r6
   82946:	220a      	movs	r2, #10
   82948:	4b4f      	ldr	r3, [pc, #316]	; (82a88 <xTaskGenericCreate+0x1b0>)
   8294a:	4798      	blx	r3
   8294c:	2300      	movs	r3, #0
   8294e:	f884 303d 	strb.w	r3, [r4, #61]	; 0x3d
   82952:	2d08      	cmp	r5, #8
   82954:	bf34      	ite	cc
   82956:	462e      	movcc	r6, r5
   82958:	2608      	movcs	r6, #8
   8295a:	62e6      	str	r6, [r4, #44]	; 0x2c
   8295c:	64a6      	str	r6, [r4, #72]	; 0x48
   8295e:	1d27      	adds	r7, r4, #4
   82960:	4638      	mov	r0, r7
   82962:	f8df 8170 	ldr.w	r8, [pc, #368]	; 82ad4 <xTaskGenericCreate+0x1fc>
   82966:	47c0      	blx	r8
   82968:	f104 0018 	add.w	r0, r4, #24
   8296c:	47c0      	blx	r8
   8296e:	6124      	str	r4, [r4, #16]
   82970:	f1c6 0609 	rsb	r6, r6, #9
   82974:	61a6      	str	r6, [r4, #24]
   82976:	6264      	str	r4, [r4, #36]	; 0x24
   82978:	4658      	mov	r0, fp
   8297a:	4649      	mov	r1, r9
   8297c:	4652      	mov	r2, sl
   8297e:	4b43      	ldr	r3, [pc, #268]	; (82a8c <xTaskGenericCreate+0x1b4>)
   82980:	4798      	blx	r3
   82982:	6020      	str	r0, [r4, #0]
   82984:	f010 0f07 	tst.w	r0, #7
   82988:	d003      	beq.n	82992 <xTaskGenericCreate+0xba>
   8298a:	4b3b      	ldr	r3, [pc, #236]	; (82a78 <xTaskGenericCreate+0x1a0>)
   8298c:	4798      	blx	r3
   8298e:	bf00      	nop
   82990:	e7fd      	b.n	8298e <xTaskGenericCreate+0xb6>
   82992:	9b0b      	ldr	r3, [sp, #44]	; 0x2c
   82994:	b103      	cbz	r3, 82998 <xTaskGenericCreate+0xc0>
   82996:	601c      	str	r4, [r3, #0]
   82998:	4b3d      	ldr	r3, [pc, #244]	; (82a90 <xTaskGenericCreate+0x1b8>)
   8299a:	4798      	blx	r3
   8299c:	4b3d      	ldr	r3, [pc, #244]	; (82a94 <xTaskGenericCreate+0x1bc>)
   8299e:	681a      	ldr	r2, [r3, #0]
   829a0:	3201      	adds	r2, #1
   829a2:	601a      	str	r2, [r3, #0]
   829a4:	4b3c      	ldr	r3, [pc, #240]	; (82a98 <xTaskGenericCreate+0x1c0>)
   829a6:	681b      	ldr	r3, [r3, #0]
   829a8:	bb2b      	cbnz	r3, 829f6 <xTaskGenericCreate+0x11e>
   829aa:	4b3b      	ldr	r3, [pc, #236]	; (82a98 <xTaskGenericCreate+0x1c0>)
   829ac:	601c      	str	r4, [r3, #0]
   829ae:	4b39      	ldr	r3, [pc, #228]	; (82a94 <xTaskGenericCreate+0x1bc>)
   829b0:	681b      	ldr	r3, [r3, #0]
   829b2:	2b01      	cmp	r3, #1
   829b4:	d129      	bne.n	82a0a <xTaskGenericCreate+0x132>
   829b6:	4e39      	ldr	r6, [pc, #228]	; (82a9c <xTaskGenericCreate+0x1c4>)
   829b8:	f106 09b4 	add.w	r9, r6, #180	; 0xb4
   829bc:	f8df 80e0 	ldr.w	r8, [pc, #224]	; 82aa0 <xTaskGenericCreate+0x1c8>
   829c0:	4630      	mov	r0, r6
   829c2:	47c0      	blx	r8
   829c4:	3614      	adds	r6, #20
   829c6:	454e      	cmp	r6, r9
   829c8:	d1fa      	bne.n	829c0 <xTaskGenericCreate+0xe8>
   829ca:	f8df 910c 	ldr.w	r9, [pc, #268]	; 82ad8 <xTaskGenericCreate+0x200>
   829ce:	4648      	mov	r0, r9
   829d0:	4e33      	ldr	r6, [pc, #204]	; (82aa0 <xTaskGenericCreate+0x1c8>)
   829d2:	47b0      	blx	r6
   829d4:	f8df 8104 	ldr.w	r8, [pc, #260]	; 82adc <xTaskGenericCreate+0x204>
   829d8:	4640      	mov	r0, r8
   829da:	47b0      	blx	r6
   829dc:	4831      	ldr	r0, [pc, #196]	; (82aa4 <xTaskGenericCreate+0x1cc>)
   829de:	47b0      	blx	r6
   829e0:	4831      	ldr	r0, [pc, #196]	; (82aa8 <xTaskGenericCreate+0x1d0>)
   829e2:	47b0      	blx	r6
   829e4:	4831      	ldr	r0, [pc, #196]	; (82aac <xTaskGenericCreate+0x1d4>)
   829e6:	47b0      	blx	r6
   829e8:	4b31      	ldr	r3, [pc, #196]	; (82ab0 <xTaskGenericCreate+0x1d8>)
   829ea:	f8c3 9000 	str.w	r9, [r3]
   829ee:	4b31      	ldr	r3, [pc, #196]	; (82ab4 <xTaskGenericCreate+0x1dc>)
   829f0:	f8c3 8000 	str.w	r8, [r3]
   829f4:	e009      	b.n	82a0a <xTaskGenericCreate+0x132>
   829f6:	4b30      	ldr	r3, [pc, #192]	; (82ab8 <xTaskGenericCreate+0x1e0>)
   829f8:	681b      	ldr	r3, [r3, #0]
   829fa:	b933      	cbnz	r3, 82a0a <xTaskGenericCreate+0x132>
   829fc:	4b26      	ldr	r3, [pc, #152]	; (82a98 <xTaskGenericCreate+0x1c0>)
   829fe:	681b      	ldr	r3, [r3, #0]
   82a00:	6adb      	ldr	r3, [r3, #44]	; 0x2c
   82a02:	429d      	cmp	r5, r3
   82a04:	bf24      	itt	cs
   82a06:	4b24      	ldrcs	r3, [pc, #144]	; (82a98 <xTaskGenericCreate+0x1c0>)
   82a08:	601c      	strcs	r4, [r3, #0]
   82a0a:	6ae3      	ldr	r3, [r4, #44]	; 0x2c
   82a0c:	4a2b      	ldr	r2, [pc, #172]	; (82abc <xTaskGenericCreate+0x1e4>)
   82a0e:	6812      	ldr	r2, [r2, #0]
   82a10:	4293      	cmp	r3, r2
   82a12:	bf84      	itt	hi
   82a14:	4a29      	ldrhi	r2, [pc, #164]	; (82abc <xTaskGenericCreate+0x1e4>)
   82a16:	6013      	strhi	r3, [r2, #0]
   82a18:	4a29      	ldr	r2, [pc, #164]	; (82ac0 <xTaskGenericCreate+0x1e8>)
   82a1a:	6811      	ldr	r1, [r2, #0]
   82a1c:	6421      	str	r1, [r4, #64]	; 0x40
   82a1e:	3101      	adds	r1, #1
   82a20:	6011      	str	r1, [r2, #0]
   82a22:	4a28      	ldr	r2, [pc, #160]	; (82ac4 <xTaskGenericCreate+0x1ec>)
   82a24:	6812      	ldr	r2, [r2, #0]
   82a26:	4293      	cmp	r3, r2
   82a28:	bf84      	itt	hi
   82a2a:	4a26      	ldrhi	r2, [pc, #152]	; (82ac4 <xTaskGenericCreate+0x1ec>)
   82a2c:	6013      	strhi	r3, [r2, #0]
   82a2e:	eb03 0383 	add.w	r3, r3, r3, lsl #2
   82a32:	481a      	ldr	r0, [pc, #104]	; (82a9c <xTaskGenericCreate+0x1c4>)
   82a34:	eb00 0083 	add.w	r0, r0, r3, lsl #2
   82a38:	4639      	mov	r1, r7
   82a3a:	4b23      	ldr	r3, [pc, #140]	; (82ac8 <xTaskGenericCreate+0x1f0>)
   82a3c:	4798      	blx	r3
   82a3e:	4b23      	ldr	r3, [pc, #140]	; (82acc <xTaskGenericCreate+0x1f4>)
   82a40:	4798      	blx	r3
   82a42:	4b1d      	ldr	r3, [pc, #116]	; (82ab8 <xTaskGenericCreate+0x1e0>)
   82a44:	681b      	ldr	r3, [r3, #0]
   82a46:	b14b      	cbz	r3, 82a5c <xTaskGenericCreate+0x184>
   82a48:	4b13      	ldr	r3, [pc, #76]	; (82a98 <xTaskGenericCreate+0x1c0>)
   82a4a:	681b      	ldr	r3, [r3, #0]
   82a4c:	6adb      	ldr	r3, [r3, #44]	; 0x2c
   82a4e:	429d      	cmp	r5, r3
   82a50:	d907      	bls.n	82a62 <xTaskGenericCreate+0x18a>
   82a52:	4b1f      	ldr	r3, [pc, #124]	; (82ad0 <xTaskGenericCreate+0x1f8>)
   82a54:	4798      	blx	r3
   82a56:	2001      	movs	r0, #1
   82a58:	e8bd 8ff8 	ldmia.w	sp!, {r3, r4, r5, r6, r7, r8, r9, sl, fp, pc}
   82a5c:	2001      	movs	r0, #1
   82a5e:	e8bd 8ff8 	ldmia.w	sp!, {r3, r4, r5, r6, r7, r8, r9, sl, fp, pc}
   82a62:	2001      	movs	r0, #1
   82a64:	e8bd 8ff8 	ldmia.w	sp!, {r3, r4, r5, r6, r7, r8, r9, sl, fp, pc}
   82a68:	f8c0 8030 	str.w	r8, [r0, #48]	; 0x30
   82a6c:	4640      	mov	r0, r8
   82a6e:	e75b      	b.n	82928 <xTaskGenericCreate+0x50>
   82a70:	f04f 30ff 	mov.w	r0, #4294967295
   82a74:	e8bd 8ff8 	ldmia.w	sp!, {r3, r4, r5, r6, r7, r8, r9, sl, fp, pc}
   82a78:	000820ed 	.word	0x000820ed
   82a7c:	00082249 	.word	0x00082249
   82a80:	0008230d 	.word	0x0008230d
   82a84:	00083993 	.word	0x00083993
   82a88:	00083b05 	.word	0x00083b05
   82a8c:	000820a1 	.word	0x000820a1
   82a90:	000820fd 	.word	0x000820fd
   82a94:	2007845c 	.word	0x2007845c
   82a98:	2007841c 	.word	0x2007841c
   82a9c:	20078364 	.word	0x20078364
   82aa0:	00081fed 	.word	0x00081fed
   82aa4:	20078420 	.word	0x20078420
   82aa8:	20078338 	.word	0x20078338
   82aac:	20078318 	.word	0x20078318
   82ab0:	2007832c 	.word	0x2007832c
   82ab4:	2007843c 	.word	0x2007843c
   82ab8:	20078330 	.word	0x20078330
   82abc:	20078460 	.word	0x20078460
   82ac0:	20078440 	.word	0x20078440
   82ac4:	20078360 	.word	0x20078360
   82ac8:	0008200d 	.word	0x0008200d
   82acc:	0008211d 	.word	0x0008211d
   82ad0:	000820dd 	.word	0x000820dd
   82ad4:	00082005 	.word	0x00082005
   82ad8:	20078444 	.word	0x20078444
   82adc:	2007834c 	.word	0x2007834c

00082ae0 <vTaskStartScheduler>:
   82ae0:	b510      	push	{r4, lr}
   82ae2:	b084      	sub	sp, #16
   82ae4:	2300      	movs	r3, #0
   82ae6:	9300      	str	r3, [sp, #0]
   82ae8:	9301      	str	r3, [sp, #4]
   82aea:	9302      	str	r3, [sp, #8]
   82aec:	9303      	str	r3, [sp, #12]
   82aee:	480e      	ldr	r0, [pc, #56]	; (82b28 <vTaskStartScheduler+0x48>)
   82af0:	490e      	ldr	r1, [pc, #56]	; (82b2c <vTaskStartScheduler+0x4c>)
   82af2:	2282      	movs	r2, #130	; 0x82
   82af4:	4c0e      	ldr	r4, [pc, #56]	; (82b30 <vTaskStartScheduler+0x50>)
   82af6:	47a0      	blx	r4
   82af8:	2801      	cmp	r0, #1
   82afa:	d10e      	bne.n	82b1a <vTaskStartScheduler+0x3a>
   82afc:	4b0d      	ldr	r3, [pc, #52]	; (82b34 <vTaskStartScheduler+0x54>)
   82afe:	4798      	blx	r3
   82b00:	2801      	cmp	r0, #1
   82b02:	d10a      	bne.n	82b1a <vTaskStartScheduler+0x3a>
   82b04:	4b0c      	ldr	r3, [pc, #48]	; (82b38 <vTaskStartScheduler+0x58>)
   82b06:	4798      	blx	r3
   82b08:	2201      	movs	r2, #1
   82b0a:	4b0c      	ldr	r3, [pc, #48]	; (82b3c <vTaskStartScheduler+0x5c>)
   82b0c:	601a      	str	r2, [r3, #0]
   82b0e:	2200      	movs	r2, #0
   82b10:	4b0b      	ldr	r3, [pc, #44]	; (82b40 <vTaskStartScheduler+0x60>)
   82b12:	601a      	str	r2, [r3, #0]
   82b14:	4b0b      	ldr	r3, [pc, #44]	; (82b44 <vTaskStartScheduler+0x64>)
   82b16:	4798      	blx	r3
   82b18:	e004      	b.n	82b24 <vTaskStartScheduler+0x44>
   82b1a:	b918      	cbnz	r0, 82b24 <vTaskStartScheduler+0x44>
   82b1c:	4b06      	ldr	r3, [pc, #24]	; (82b38 <vTaskStartScheduler+0x58>)
   82b1e:	4798      	blx	r3
   82b20:	bf00      	nop
   82b22:	e7fd      	b.n	82b20 <vTaskStartScheduler+0x40>
   82b24:	b004      	add	sp, #16
   82b26:	bd10      	pop	{r4, pc}
   82b28:	00082e31 	.word	0x00082e31
   82b2c:	00086fd8 	.word	0x00086fd8
   82b30:	000828d9 	.word	0x000828d9
   82b34:	000832c5 	.word	0x000832c5
   82b38:	000820ed 	.word	0x000820ed
   82b3c:	20078330 	.word	0x20078330
   82b40:	20078438 	.word	0x20078438
   82b44:	000821b9 	.word	0x000821b9

00082b48 <vTaskSuspendAll>:
   82b48:	4b02      	ldr	r3, [pc, #8]	; (82b54 <vTaskSuspendAll+0xc>)
   82b4a:	681a      	ldr	r2, [r3, #0]
   82b4c:	3201      	adds	r2, #1
   82b4e:	601a      	str	r2, [r3, #0]
   82b50:	4770      	bx	lr
   82b52:	bf00      	nop
   82b54:	20078418 	.word	0x20078418

00082b58 <xTaskGetTickCount>:
   82b58:	b510      	push	{r4, lr}
   82b5a:	4b04      	ldr	r3, [pc, #16]	; (82b6c <xTaskGetTickCount+0x14>)
   82b5c:	4798      	blx	r3
   82b5e:	4b04      	ldr	r3, [pc, #16]	; (82b70 <xTaskGetTickCount+0x18>)
   82b60:	681c      	ldr	r4, [r3, #0]
   82b62:	4b04      	ldr	r3, [pc, #16]	; (82b74 <xTaskGetTickCount+0x1c>)
   82b64:	4798      	blx	r3
   82b66:	4620      	mov	r0, r4
   82b68:	bd10      	pop	{r4, pc}
   82b6a:	bf00      	nop
   82b6c:	000820fd 	.word	0x000820fd
   82b70:	20078438 	.word	0x20078438
   82b74:	0008211d 	.word	0x0008211d

00082b78 <vTaskIncrementTick>:
   82b78:	e92d 41f0 	stmdb	sp!, {r4, r5, r6, r7, r8, lr}
   82b7c:	4b3a      	ldr	r3, [pc, #232]	; (82c68 <vTaskIncrementTick+0xf0>)
   82b7e:	681b      	ldr	r3, [r3, #0]
   82b80:	2b00      	cmp	r3, #0
   82b82:	d16b      	bne.n	82c5c <vTaskIncrementTick+0xe4>
   82b84:	4b39      	ldr	r3, [pc, #228]	; (82c6c <vTaskIncrementTick+0xf4>)
   82b86:	681a      	ldr	r2, [r3, #0]
   82b88:	3201      	adds	r2, #1
   82b8a:	601a      	str	r2, [r3, #0]
   82b8c:	681b      	ldr	r3, [r3, #0]
   82b8e:	bb03      	cbnz	r3, 82bd2 <vTaskIncrementTick+0x5a>
   82b90:	4b37      	ldr	r3, [pc, #220]	; (82c70 <vTaskIncrementTick+0xf8>)
   82b92:	681b      	ldr	r3, [r3, #0]
   82b94:	681b      	ldr	r3, [r3, #0]
   82b96:	b11b      	cbz	r3, 82ba0 <vTaskIncrementTick+0x28>
   82b98:	4b36      	ldr	r3, [pc, #216]	; (82c74 <vTaskIncrementTick+0xfc>)
   82b9a:	4798      	blx	r3
   82b9c:	bf00      	nop
   82b9e:	e7fd      	b.n	82b9c <vTaskIncrementTick+0x24>
   82ba0:	4b33      	ldr	r3, [pc, #204]	; (82c70 <vTaskIncrementTick+0xf8>)
   82ba2:	6819      	ldr	r1, [r3, #0]
   82ba4:	4a34      	ldr	r2, [pc, #208]	; (82c78 <vTaskIncrementTick+0x100>)
   82ba6:	6810      	ldr	r0, [r2, #0]
   82ba8:	6018      	str	r0, [r3, #0]
   82baa:	6011      	str	r1, [r2, #0]
   82bac:	4a33      	ldr	r2, [pc, #204]	; (82c7c <vTaskIncrementTick+0x104>)
   82bae:	6811      	ldr	r1, [r2, #0]
   82bb0:	3101      	adds	r1, #1
   82bb2:	6011      	str	r1, [r2, #0]
   82bb4:	681b      	ldr	r3, [r3, #0]
   82bb6:	681b      	ldr	r3, [r3, #0]
   82bb8:	b923      	cbnz	r3, 82bc4 <vTaskIncrementTick+0x4c>
   82bba:	f04f 32ff 	mov.w	r2, #4294967295
   82bbe:	4b30      	ldr	r3, [pc, #192]	; (82c80 <vTaskIncrementTick+0x108>)
   82bc0:	601a      	str	r2, [r3, #0]
   82bc2:	e006      	b.n	82bd2 <vTaskIncrementTick+0x5a>
   82bc4:	4b2a      	ldr	r3, [pc, #168]	; (82c70 <vTaskIncrementTick+0xf8>)
   82bc6:	681b      	ldr	r3, [r3, #0]
   82bc8:	68db      	ldr	r3, [r3, #12]
   82bca:	68db      	ldr	r3, [r3, #12]
   82bcc:	685a      	ldr	r2, [r3, #4]
   82bce:	4b2c      	ldr	r3, [pc, #176]	; (82c80 <vTaskIncrementTick+0x108>)
   82bd0:	601a      	str	r2, [r3, #0]
   82bd2:	4b26      	ldr	r3, [pc, #152]	; (82c6c <vTaskIncrementTick+0xf4>)
   82bd4:	681a      	ldr	r2, [r3, #0]
   82bd6:	4b2a      	ldr	r3, [pc, #168]	; (82c80 <vTaskIncrementTick+0x108>)
   82bd8:	681b      	ldr	r3, [r3, #0]
   82bda:	429a      	cmp	r2, r3
   82bdc:	d342      	bcc.n	82c64 <vTaskIncrementTick+0xec>
   82bde:	4b24      	ldr	r3, [pc, #144]	; (82c70 <vTaskIncrementTick+0xf8>)
   82be0:	681b      	ldr	r3, [r3, #0]
   82be2:	681b      	ldr	r3, [r3, #0]
   82be4:	b14b      	cbz	r3, 82bfa <vTaskIncrementTick+0x82>
   82be6:	4b22      	ldr	r3, [pc, #136]	; (82c70 <vTaskIncrementTick+0xf8>)
   82be8:	681b      	ldr	r3, [r3, #0]
   82bea:	68db      	ldr	r3, [r3, #12]
   82bec:	68dc      	ldr	r4, [r3, #12]
   82bee:	6863      	ldr	r3, [r4, #4]
   82bf0:	4a1e      	ldr	r2, [pc, #120]	; (82c6c <vTaskIncrementTick+0xf4>)
   82bf2:	6812      	ldr	r2, [r2, #0]
   82bf4:	4293      	cmp	r3, r2
   82bf6:	d913      	bls.n	82c20 <vTaskIncrementTick+0xa8>
   82bf8:	e00e      	b.n	82c18 <vTaskIncrementTick+0xa0>
   82bfa:	f04f 32ff 	mov.w	r2, #4294967295
   82bfe:	4b20      	ldr	r3, [pc, #128]	; (82c80 <vTaskIncrementTick+0x108>)
   82c00:	601a      	str	r2, [r3, #0]
   82c02:	e8bd 81f0 	ldmia.w	sp!, {r4, r5, r6, r7, r8, pc}
   82c06:	4b1a      	ldr	r3, [pc, #104]	; (82c70 <vTaskIncrementTick+0xf8>)
   82c08:	681b      	ldr	r3, [r3, #0]
   82c0a:	68db      	ldr	r3, [r3, #12]
   82c0c:	68dc      	ldr	r4, [r3, #12]
   82c0e:	6863      	ldr	r3, [r4, #4]
   82c10:	4a16      	ldr	r2, [pc, #88]	; (82c6c <vTaskIncrementTick+0xf4>)
   82c12:	6812      	ldr	r2, [r2, #0]
   82c14:	4293      	cmp	r3, r2
   82c16:	d907      	bls.n	82c28 <vTaskIncrementTick+0xb0>
   82c18:	4a19      	ldr	r2, [pc, #100]	; (82c80 <vTaskIncrementTick+0x108>)
   82c1a:	6013      	str	r3, [r2, #0]
   82c1c:	e8bd 81f0 	ldmia.w	sp!, {r4, r5, r6, r7, r8, pc}
   82c20:	4e18      	ldr	r6, [pc, #96]	; (82c84 <vTaskIncrementTick+0x10c>)
   82c22:	4f19      	ldr	r7, [pc, #100]	; (82c88 <vTaskIncrementTick+0x110>)
   82c24:	f8df 806c 	ldr.w	r8, [pc, #108]	; 82c94 <vTaskIncrementTick+0x11c>
   82c28:	1d25      	adds	r5, r4, #4
   82c2a:	4628      	mov	r0, r5
   82c2c:	47b0      	blx	r6
   82c2e:	6aa3      	ldr	r3, [r4, #40]	; 0x28
   82c30:	b113      	cbz	r3, 82c38 <vTaskIncrementTick+0xc0>
   82c32:	f104 0018 	add.w	r0, r4, #24
   82c36:	47b0      	blx	r6
   82c38:	6ae3      	ldr	r3, [r4, #44]	; 0x2c
   82c3a:	683a      	ldr	r2, [r7, #0]
   82c3c:	4293      	cmp	r3, r2
   82c3e:	bf88      	it	hi
   82c40:	603b      	strhi	r3, [r7, #0]
   82c42:	eb03 0083 	add.w	r0, r3, r3, lsl #2
   82c46:	eb08 0080 	add.w	r0, r8, r0, lsl #2
   82c4a:	4629      	mov	r1, r5
   82c4c:	4b0f      	ldr	r3, [pc, #60]	; (82c8c <vTaskIncrementTick+0x114>)
   82c4e:	4798      	blx	r3
   82c50:	4b07      	ldr	r3, [pc, #28]	; (82c70 <vTaskIncrementTick+0xf8>)
   82c52:	681b      	ldr	r3, [r3, #0]
   82c54:	681b      	ldr	r3, [r3, #0]
   82c56:	2b00      	cmp	r3, #0
   82c58:	d1d5      	bne.n	82c06 <vTaskIncrementTick+0x8e>
   82c5a:	e7ce      	b.n	82bfa <vTaskIncrementTick+0x82>
   82c5c:	4b0c      	ldr	r3, [pc, #48]	; (82c90 <vTaskIncrementTick+0x118>)
   82c5e:	681a      	ldr	r2, [r3, #0]
   82c60:	3201      	adds	r2, #1
   82c62:	601a      	str	r2, [r3, #0]
   82c64:	e8bd 81f0 	ldmia.w	sp!, {r4, r5, r6, r7, r8, pc}
   82c68:	20078418 	.word	0x20078418
   82c6c:	20078438 	.word	0x20078438
   82c70:	2007832c 	.word	0x2007832c
   82c74:	000820ed 	.word	0x000820ed
   82c78:	2007843c 	.word	0x2007843c
   82c7c:	20078434 	.word	0x20078434
   82c80:	2007014c 	.word	0x2007014c
   82c84:	00082065 	.word	0x00082065
   82c88:	20078360 	.word	0x20078360
   82c8c:	0008200d 	.word	0x0008200d
   82c90:	20078314 	.word	0x20078314
   82c94:	20078364 	.word	0x20078364

00082c98 <xTaskResumeAll>:
   82c98:	e92d 43f8 	stmdb	sp!, {r3, r4, r5, r6, r7, r8, r9, lr}
   82c9c:	4b31      	ldr	r3, [pc, #196]	; (82d64 <xTaskResumeAll+0xcc>)
   82c9e:	681b      	ldr	r3, [r3, #0]
   82ca0:	b91b      	cbnz	r3, 82caa <xTaskResumeAll+0x12>
   82ca2:	4b31      	ldr	r3, [pc, #196]	; (82d68 <xTaskResumeAll+0xd0>)
   82ca4:	4798      	blx	r3
   82ca6:	bf00      	nop
   82ca8:	e7fd      	b.n	82ca6 <xTaskResumeAll+0xe>
   82caa:	4b30      	ldr	r3, [pc, #192]	; (82d6c <xTaskResumeAll+0xd4>)
   82cac:	4798      	blx	r3
   82cae:	4b2d      	ldr	r3, [pc, #180]	; (82d64 <xTaskResumeAll+0xcc>)
   82cb0:	681a      	ldr	r2, [r3, #0]
   82cb2:	3a01      	subs	r2, #1
   82cb4:	601a      	str	r2, [r3, #0]
   82cb6:	681b      	ldr	r3, [r3, #0]
   82cb8:	2b00      	cmp	r3, #0
   82cba:	d148      	bne.n	82d4e <xTaskResumeAll+0xb6>
   82cbc:	4b2c      	ldr	r3, [pc, #176]	; (82d70 <xTaskResumeAll+0xd8>)
   82cbe:	681b      	ldr	r3, [r3, #0]
   82cc0:	2b00      	cmp	r3, #0
   82cc2:	d046      	beq.n	82d52 <xTaskResumeAll+0xba>
   82cc4:	2500      	movs	r5, #0
   82cc6:	f8df 80d4 	ldr.w	r8, [pc, #212]	; 82d9c <xTaskResumeAll+0x104>
   82cca:	4f2a      	ldr	r7, [pc, #168]	; (82d74 <xTaskResumeAll+0xdc>)
   82ccc:	4e2a      	ldr	r6, [pc, #168]	; (82d78 <xTaskResumeAll+0xe0>)
   82cce:	e01d      	b.n	82d0c <xTaskResumeAll+0x74>
   82cd0:	f8d8 300c 	ldr.w	r3, [r8, #12]
   82cd4:	68dc      	ldr	r4, [r3, #12]
   82cd6:	f104 0018 	add.w	r0, r4, #24
   82cda:	47b8      	blx	r7
   82cdc:	f104 0904 	add.w	r9, r4, #4
   82ce0:	4648      	mov	r0, r9
   82ce2:	47b8      	blx	r7
   82ce4:	6ae3      	ldr	r3, [r4, #44]	; 0x2c
   82ce6:	6832      	ldr	r2, [r6, #0]
   82ce8:	4293      	cmp	r3, r2
   82cea:	bf88      	it	hi
   82cec:	6033      	strhi	r3, [r6, #0]
   82cee:	eb03 0383 	add.w	r3, r3, r3, lsl #2
   82cf2:	4822      	ldr	r0, [pc, #136]	; (82d7c <xTaskResumeAll+0xe4>)
   82cf4:	eb00 0083 	add.w	r0, r0, r3, lsl #2
   82cf8:	4649      	mov	r1, r9
   82cfa:	4b21      	ldr	r3, [pc, #132]	; (82d80 <xTaskResumeAll+0xe8>)
   82cfc:	4798      	blx	r3
   82cfe:	4b21      	ldr	r3, [pc, #132]	; (82d84 <xTaskResumeAll+0xec>)
   82d00:	681b      	ldr	r3, [r3, #0]
   82d02:	6ae2      	ldr	r2, [r4, #44]	; 0x2c
   82d04:	6adb      	ldr	r3, [r3, #44]	; 0x2c
   82d06:	429a      	cmp	r2, r3
   82d08:	bf28      	it	cs
   82d0a:	2501      	movcs	r5, #1
   82d0c:	f8d8 3000 	ldr.w	r3, [r8]
   82d10:	2b00      	cmp	r3, #0
   82d12:	d1dd      	bne.n	82cd0 <xTaskResumeAll+0x38>
   82d14:	4b1c      	ldr	r3, [pc, #112]	; (82d88 <xTaskResumeAll+0xf0>)
   82d16:	681b      	ldr	r3, [r3, #0]
   82d18:	b163      	cbz	r3, 82d34 <xTaskResumeAll+0x9c>
   82d1a:	4b1b      	ldr	r3, [pc, #108]	; (82d88 <xTaskResumeAll+0xf0>)
   82d1c:	681b      	ldr	r3, [r3, #0]
   82d1e:	b17b      	cbz	r3, 82d40 <xTaskResumeAll+0xa8>
   82d20:	4d1a      	ldr	r5, [pc, #104]	; (82d8c <xTaskResumeAll+0xf4>)
   82d22:	4c19      	ldr	r4, [pc, #100]	; (82d88 <xTaskResumeAll+0xf0>)
   82d24:	47a8      	blx	r5
   82d26:	6823      	ldr	r3, [r4, #0]
   82d28:	3b01      	subs	r3, #1
   82d2a:	6023      	str	r3, [r4, #0]
   82d2c:	6823      	ldr	r3, [r4, #0]
   82d2e:	2b00      	cmp	r3, #0
   82d30:	d1f8      	bne.n	82d24 <xTaskResumeAll+0x8c>
   82d32:	e005      	b.n	82d40 <xTaskResumeAll+0xa8>
   82d34:	2d01      	cmp	r5, #1
   82d36:	d003      	beq.n	82d40 <xTaskResumeAll+0xa8>
   82d38:	4b15      	ldr	r3, [pc, #84]	; (82d90 <xTaskResumeAll+0xf8>)
   82d3a:	681b      	ldr	r3, [r3, #0]
   82d3c:	2b01      	cmp	r3, #1
   82d3e:	d10a      	bne.n	82d56 <xTaskResumeAll+0xbe>
   82d40:	2200      	movs	r2, #0
   82d42:	4b13      	ldr	r3, [pc, #76]	; (82d90 <xTaskResumeAll+0xf8>)
   82d44:	601a      	str	r2, [r3, #0]
   82d46:	4b13      	ldr	r3, [pc, #76]	; (82d94 <xTaskResumeAll+0xfc>)
   82d48:	4798      	blx	r3
   82d4a:	2401      	movs	r4, #1
   82d4c:	e004      	b.n	82d58 <xTaskResumeAll+0xc0>
   82d4e:	2400      	movs	r4, #0
   82d50:	e002      	b.n	82d58 <xTaskResumeAll+0xc0>
   82d52:	2400      	movs	r4, #0
   82d54:	e000      	b.n	82d58 <xTaskResumeAll+0xc0>
   82d56:	2400      	movs	r4, #0
   82d58:	4b0f      	ldr	r3, [pc, #60]	; (82d98 <xTaskResumeAll+0x100>)
   82d5a:	4798      	blx	r3
   82d5c:	4620      	mov	r0, r4
   82d5e:	e8bd 83f8 	ldmia.w	sp!, {r3, r4, r5, r6, r7, r8, r9, pc}
   82d62:	bf00      	nop
   82d64:	20078418 	.word	0x20078418
   82d68:	000820ed 	.word	0x000820ed
   82d6c:	000820fd 	.word	0x000820fd
   82d70:	2007845c 	.word	0x2007845c
   82d74:	00082065 	.word	0x00082065
   82d78:	20078360 	.word	0x20078360
   82d7c:	20078364 	.word	0x20078364
   82d80:	0008200d 	.word	0x0008200d
   82d84:	2007841c 	.word	0x2007841c
   82d88:	20078314 	.word	0x20078314
   82d8c:	00082b79 	.word	0x00082b79
   82d90:	20078458 	.word	0x20078458
   82d94:	000820dd 	.word	0x000820dd
   82d98:	0008211d 	.word	0x0008211d
   82d9c:	20078420 	.word	0x20078420

00082da0 <vTaskDelayUntil>:
   82da0:	b538      	push	{r3, r4, r5, lr}
   82da2:	460c      	mov	r4, r1
   82da4:	4605      	mov	r5, r0
   82da6:	b918      	cbnz	r0, 82db0 <vTaskDelayUntil+0x10>
   82da8:	4b19      	ldr	r3, [pc, #100]	; (82e10 <vTaskDelayUntil+0x70>)
   82daa:	4798      	blx	r3
   82dac:	bf00      	nop
   82dae:	e7fd      	b.n	82dac <vTaskDelayUntil+0xc>
   82db0:	b919      	cbnz	r1, 82dba <vTaskDelayUntil+0x1a>
   82db2:	4b17      	ldr	r3, [pc, #92]	; (82e10 <vTaskDelayUntil+0x70>)
   82db4:	4798      	blx	r3
   82db6:	bf00      	nop
   82db8:	e7fd      	b.n	82db6 <vTaskDelayUntil+0x16>
   82dba:	4b16      	ldr	r3, [pc, #88]	; (82e14 <vTaskDelayUntil+0x74>)
   82dbc:	4798      	blx	r3
   82dbe:	682b      	ldr	r3, [r5, #0]
   82dc0:	441c      	add	r4, r3
   82dc2:	4a15      	ldr	r2, [pc, #84]	; (82e18 <vTaskDelayUntil+0x78>)
   82dc4:	6812      	ldr	r2, [r2, #0]
   82dc6:	4293      	cmp	r3, r2
   82dc8:	d907      	bls.n	82dda <vTaskDelayUntil+0x3a>
   82dca:	42a3      	cmp	r3, r4
   82dcc:	d91c      	bls.n	82e08 <vTaskDelayUntil+0x68>
   82dce:	4b12      	ldr	r3, [pc, #72]	; (82e18 <vTaskDelayUntil+0x78>)
   82dd0:	681b      	ldr	r3, [r3, #0]
   82dd2:	602c      	str	r4, [r5, #0]
   82dd4:	429c      	cmp	r4, r3
   82dd6:	d90f      	bls.n	82df8 <vTaskDelayUntil+0x58>
   82dd8:	e006      	b.n	82de8 <vTaskDelayUntil+0x48>
   82dda:	42a3      	cmp	r3, r4
   82ddc:	d812      	bhi.n	82e04 <vTaskDelayUntil+0x64>
   82dde:	4b0e      	ldr	r3, [pc, #56]	; (82e18 <vTaskDelayUntil+0x78>)
   82de0:	681b      	ldr	r3, [r3, #0]
   82de2:	429c      	cmp	r4, r3
   82de4:	d80e      	bhi.n	82e04 <vTaskDelayUntil+0x64>
   82de6:	e00f      	b.n	82e08 <vTaskDelayUntil+0x68>
   82de8:	4b0c      	ldr	r3, [pc, #48]	; (82e1c <vTaskDelayUntil+0x7c>)
   82dea:	6818      	ldr	r0, [r3, #0]
   82dec:	3004      	adds	r0, #4
   82dee:	4b0c      	ldr	r3, [pc, #48]	; (82e20 <vTaskDelayUntil+0x80>)
   82df0:	4798      	blx	r3
   82df2:	4620      	mov	r0, r4
   82df4:	4b0b      	ldr	r3, [pc, #44]	; (82e24 <vTaskDelayUntil+0x84>)
   82df6:	4798      	blx	r3
   82df8:	4b0b      	ldr	r3, [pc, #44]	; (82e28 <vTaskDelayUntil+0x88>)
   82dfa:	4798      	blx	r3
   82dfc:	b930      	cbnz	r0, 82e0c <vTaskDelayUntil+0x6c>
   82dfe:	4b0b      	ldr	r3, [pc, #44]	; (82e2c <vTaskDelayUntil+0x8c>)
   82e00:	4798      	blx	r3
   82e02:	bd38      	pop	{r3, r4, r5, pc}
   82e04:	602c      	str	r4, [r5, #0]
   82e06:	e7ef      	b.n	82de8 <vTaskDelayUntil+0x48>
   82e08:	602c      	str	r4, [r5, #0]
   82e0a:	e7f5      	b.n	82df8 <vTaskDelayUntil+0x58>
   82e0c:	bd38      	pop	{r3, r4, r5, pc}
   82e0e:	bf00      	nop
   82e10:	000820ed 	.word	0x000820ed
   82e14:	00082b49 	.word	0x00082b49
   82e18:	20078438 	.word	0x20078438
   82e1c:	2007841c 	.word	0x2007841c
   82e20:	00082065 	.word	0x00082065
   82e24:	00082881 	.word	0x00082881
   82e28:	00082c99 	.word	0x00082c99
   82e2c:	000820dd 	.word	0x000820dd

00082e30 <prvIdleTask>:
   82e30:	b580      	push	{r7, lr}
   82e32:	4d15      	ldr	r5, [pc, #84]	; (82e88 <prvIdleTask+0x58>)
   82e34:	4e15      	ldr	r6, [pc, #84]	; (82e8c <prvIdleTask+0x5c>)
   82e36:	f8df 8078 	ldr.w	r8, [pc, #120]	; 82eb0 <prvIdleTask+0x80>
   82e3a:	e01c      	b.n	82e76 <prvIdleTask+0x46>
   82e3c:	4b14      	ldr	r3, [pc, #80]	; (82e90 <prvIdleTask+0x60>)
   82e3e:	4798      	blx	r3
   82e40:	4b14      	ldr	r3, [pc, #80]	; (82e94 <prvIdleTask+0x64>)
   82e42:	681c      	ldr	r4, [r3, #0]
   82e44:	4b14      	ldr	r3, [pc, #80]	; (82e98 <prvIdleTask+0x68>)
   82e46:	4798      	blx	r3
   82e48:	b1ac      	cbz	r4, 82e76 <prvIdleTask+0x46>
   82e4a:	4b14      	ldr	r3, [pc, #80]	; (82e9c <prvIdleTask+0x6c>)
   82e4c:	4798      	blx	r3
   82e4e:	4b11      	ldr	r3, [pc, #68]	; (82e94 <prvIdleTask+0x64>)
   82e50:	68db      	ldr	r3, [r3, #12]
   82e52:	68dc      	ldr	r4, [r3, #12]
   82e54:	1d20      	adds	r0, r4, #4
   82e56:	4b12      	ldr	r3, [pc, #72]	; (82ea0 <prvIdleTask+0x70>)
   82e58:	4798      	blx	r3
   82e5a:	4b12      	ldr	r3, [pc, #72]	; (82ea4 <prvIdleTask+0x74>)
   82e5c:	681a      	ldr	r2, [r3, #0]
   82e5e:	3a01      	subs	r2, #1
   82e60:	601a      	str	r2, [r3, #0]
   82e62:	682b      	ldr	r3, [r5, #0]
   82e64:	3b01      	subs	r3, #1
   82e66:	602b      	str	r3, [r5, #0]
   82e68:	4b0f      	ldr	r3, [pc, #60]	; (82ea8 <prvIdleTask+0x78>)
   82e6a:	4798      	blx	r3
   82e6c:	6b20      	ldr	r0, [r4, #48]	; 0x30
   82e6e:	4f0f      	ldr	r7, [pc, #60]	; (82eac <prvIdleTask+0x7c>)
   82e70:	47b8      	blx	r7
   82e72:	4620      	mov	r0, r4
   82e74:	47b8      	blx	r7
   82e76:	682b      	ldr	r3, [r5, #0]
   82e78:	2b00      	cmp	r3, #0
   82e7a:	d1df      	bne.n	82e3c <prvIdleTask+0xc>
   82e7c:	6833      	ldr	r3, [r6, #0]
   82e7e:	2b01      	cmp	r3, #1
   82e80:	d9f9      	bls.n	82e76 <prvIdleTask+0x46>
   82e82:	47c0      	blx	r8
   82e84:	e7f7      	b.n	82e76 <prvIdleTask+0x46>
   82e86:	bf00      	nop
   82e88:	20078334 	.word	0x20078334
   82e8c:	20078364 	.word	0x20078364
   82e90:	00082b49 	.word	0x00082b49
   82e94:	20078338 	.word	0x20078338
   82e98:	00082c99 	.word	0x00082c99
   82e9c:	000820fd 	.word	0x000820fd
   82ea0:	00082065 	.word	0x00082065
   82ea4:	2007845c 	.word	0x2007845c
   82ea8:	0008211d 	.word	0x0008211d
   82eac:	0008230d 	.word	0x0008230d
   82eb0:	000820dd 	.word	0x000820dd

00082eb4 <vTaskSwitchContext>:
   82eb4:	b508      	push	{r3, lr}
   82eb6:	4b1d      	ldr	r3, [pc, #116]	; (82f2c <vTaskSwitchContext+0x78>)
   82eb8:	681b      	ldr	r3, [r3, #0]
   82eba:	b95b      	cbnz	r3, 82ed4 <vTaskSwitchContext+0x20>
   82ebc:	4b1c      	ldr	r3, [pc, #112]	; (82f30 <vTaskSwitchContext+0x7c>)
   82ebe:	681b      	ldr	r3, [r3, #0]
   82ec0:	eb03 0383 	add.w	r3, r3, r3, lsl #2
   82ec4:	009b      	lsls	r3, r3, #2
   82ec6:	4a1b      	ldr	r2, [pc, #108]	; (82f34 <vTaskSwitchContext+0x80>)
   82ec8:	58d3      	ldr	r3, [r2, r3]
   82eca:	b9cb      	cbnz	r3, 82f00 <vTaskSwitchContext+0x4c>
   82ecc:	4b18      	ldr	r3, [pc, #96]	; (82f30 <vTaskSwitchContext+0x7c>)
   82ece:	681b      	ldr	r3, [r3, #0]
   82ed0:	b953      	cbnz	r3, 82ee8 <vTaskSwitchContext+0x34>
   82ed2:	e005      	b.n	82ee0 <vTaskSwitchContext+0x2c>
   82ed4:	2201      	movs	r2, #1
   82ed6:	4b18      	ldr	r3, [pc, #96]	; (82f38 <vTaskSwitchContext+0x84>)
   82ed8:	601a      	str	r2, [r3, #0]
   82eda:	bd08      	pop	{r3, pc}
   82edc:	681a      	ldr	r2, [r3, #0]
   82ede:	b92a      	cbnz	r2, 82eec <vTaskSwitchContext+0x38>
   82ee0:	4b16      	ldr	r3, [pc, #88]	; (82f3c <vTaskSwitchContext+0x88>)
   82ee2:	4798      	blx	r3
   82ee4:	bf00      	nop
   82ee6:	e7fd      	b.n	82ee4 <vTaskSwitchContext+0x30>
   82ee8:	4b11      	ldr	r3, [pc, #68]	; (82f30 <vTaskSwitchContext+0x7c>)
   82eea:	4912      	ldr	r1, [pc, #72]	; (82f34 <vTaskSwitchContext+0x80>)
   82eec:	681a      	ldr	r2, [r3, #0]
   82eee:	3a01      	subs	r2, #1
   82ef0:	601a      	str	r2, [r3, #0]
   82ef2:	681a      	ldr	r2, [r3, #0]
   82ef4:	eb02 0282 	add.w	r2, r2, r2, lsl #2
   82ef8:	f851 2022 	ldr.w	r2, [r1, r2, lsl #2]
   82efc:	2a00      	cmp	r2, #0
   82efe:	d0ed      	beq.n	82edc <vTaskSwitchContext+0x28>
   82f00:	4b0b      	ldr	r3, [pc, #44]	; (82f30 <vTaskSwitchContext+0x7c>)
   82f02:	681b      	ldr	r3, [r3, #0]
   82f04:	eb03 0383 	add.w	r3, r3, r3, lsl #2
   82f08:	4a0a      	ldr	r2, [pc, #40]	; (82f34 <vTaskSwitchContext+0x80>)
   82f0a:	eb02 0383 	add.w	r3, r2, r3, lsl #2
   82f0e:	685a      	ldr	r2, [r3, #4]
   82f10:	6852      	ldr	r2, [r2, #4]
   82f12:	605a      	str	r2, [r3, #4]
   82f14:	f103 0108 	add.w	r1, r3, #8
   82f18:	428a      	cmp	r2, r1
   82f1a:	bf04      	itt	eq
   82f1c:	6852      	ldreq	r2, [r2, #4]
   82f1e:	605a      	streq	r2, [r3, #4]
   82f20:	685b      	ldr	r3, [r3, #4]
   82f22:	68da      	ldr	r2, [r3, #12]
   82f24:	4b06      	ldr	r3, [pc, #24]	; (82f40 <vTaskSwitchContext+0x8c>)
   82f26:	601a      	str	r2, [r3, #0]
   82f28:	bd08      	pop	{r3, pc}
   82f2a:	bf00      	nop
   82f2c:	20078418 	.word	0x20078418
   82f30:	20078360 	.word	0x20078360
   82f34:	20078364 	.word	0x20078364
   82f38:	20078458 	.word	0x20078458
   82f3c:	000820ed 	.word	0x000820ed
   82f40:	2007841c 	.word	0x2007841c

00082f44 <vTaskPlaceOnEventList>:
   82f44:	b538      	push	{r3, r4, r5, lr}
   82f46:	460c      	mov	r4, r1
   82f48:	b918      	cbnz	r0, 82f52 <vTaskPlaceOnEventList+0xe>
   82f4a:	4b0e      	ldr	r3, [pc, #56]	; (82f84 <vTaskPlaceOnEventList+0x40>)
   82f4c:	4798      	blx	r3
   82f4e:	bf00      	nop
   82f50:	e7fd      	b.n	82f4e <vTaskPlaceOnEventList+0xa>
   82f52:	4d0d      	ldr	r5, [pc, #52]	; (82f88 <vTaskPlaceOnEventList+0x44>)
   82f54:	6829      	ldr	r1, [r5, #0]
   82f56:	3118      	adds	r1, #24
   82f58:	4b0c      	ldr	r3, [pc, #48]	; (82f8c <vTaskPlaceOnEventList+0x48>)
   82f5a:	4798      	blx	r3
   82f5c:	6828      	ldr	r0, [r5, #0]
   82f5e:	3004      	adds	r0, #4
   82f60:	4b0b      	ldr	r3, [pc, #44]	; (82f90 <vTaskPlaceOnEventList+0x4c>)
   82f62:	4798      	blx	r3
   82f64:	f1b4 3fff 	cmp.w	r4, #4294967295
   82f68:	d105      	bne.n	82f76 <vTaskPlaceOnEventList+0x32>
   82f6a:	6829      	ldr	r1, [r5, #0]
   82f6c:	4809      	ldr	r0, [pc, #36]	; (82f94 <vTaskPlaceOnEventList+0x50>)
   82f6e:	3104      	adds	r1, #4
   82f70:	4b09      	ldr	r3, [pc, #36]	; (82f98 <vTaskPlaceOnEventList+0x54>)
   82f72:	4798      	blx	r3
   82f74:	bd38      	pop	{r3, r4, r5, pc}
   82f76:	4b09      	ldr	r3, [pc, #36]	; (82f9c <vTaskPlaceOnEventList+0x58>)
   82f78:	6818      	ldr	r0, [r3, #0]
   82f7a:	4420      	add	r0, r4
   82f7c:	4b08      	ldr	r3, [pc, #32]	; (82fa0 <vTaskPlaceOnEventList+0x5c>)
   82f7e:	4798      	blx	r3
   82f80:	bd38      	pop	{r3, r4, r5, pc}
   82f82:	bf00      	nop
   82f84:	000820ed 	.word	0x000820ed
   82f88:	2007841c 	.word	0x2007841c
   82f8c:	00082029 	.word	0x00082029
   82f90:	00082065 	.word	0x00082065
   82f94:	20078318 	.word	0x20078318
   82f98:	0008200d 	.word	0x0008200d
   82f9c:	20078438 	.word	0x20078438
   82fa0:	00082881 	.word	0x00082881

00082fa4 <vTaskPlaceOnEventListRestricted>:
   82fa4:	b538      	push	{r3, r4, r5, lr}
   82fa6:	460d      	mov	r5, r1
   82fa8:	b918      	cbnz	r0, 82fb2 <vTaskPlaceOnEventListRestricted+0xe>
   82faa:	4b09      	ldr	r3, [pc, #36]	; (82fd0 <vTaskPlaceOnEventListRestricted+0x2c>)
   82fac:	4798      	blx	r3
   82fae:	bf00      	nop
   82fb0:	e7fd      	b.n	82fae <vTaskPlaceOnEventListRestricted+0xa>
   82fb2:	4c08      	ldr	r4, [pc, #32]	; (82fd4 <vTaskPlaceOnEventListRestricted+0x30>)
   82fb4:	6821      	ldr	r1, [r4, #0]
   82fb6:	3118      	adds	r1, #24
   82fb8:	4b07      	ldr	r3, [pc, #28]	; (82fd8 <vTaskPlaceOnEventListRestricted+0x34>)
   82fba:	4798      	blx	r3
   82fbc:	6820      	ldr	r0, [r4, #0]
   82fbe:	3004      	adds	r0, #4
   82fc0:	4b06      	ldr	r3, [pc, #24]	; (82fdc <vTaskPlaceOnEventListRestricted+0x38>)
   82fc2:	4798      	blx	r3
   82fc4:	4b06      	ldr	r3, [pc, #24]	; (82fe0 <vTaskPlaceOnEventListRestricted+0x3c>)
   82fc6:	6818      	ldr	r0, [r3, #0]
   82fc8:	4428      	add	r0, r5
   82fca:	4b06      	ldr	r3, [pc, #24]	; (82fe4 <vTaskPlaceOnEventListRestricted+0x40>)
   82fcc:	4798      	blx	r3
   82fce:	bd38      	pop	{r3, r4, r5, pc}
   82fd0:	000820ed 	.word	0x000820ed
   82fd4:	2007841c 	.word	0x2007841c
   82fd8:	0008200d 	.word	0x0008200d
   82fdc:	00082065 	.word	0x00082065
   82fe0:	20078438 	.word	0x20078438
   82fe4:	00082881 	.word	0x00082881

00082fe8 <xTaskRemoveFromEventList>:
   82fe8:	b538      	push	{r3, r4, r5, lr}
   82fea:	68c3      	ldr	r3, [r0, #12]
   82fec:	68dc      	ldr	r4, [r3, #12]
   82fee:	b91c      	cbnz	r4, 82ff8 <xTaskRemoveFromEventList+0x10>
   82ff0:	4b16      	ldr	r3, [pc, #88]	; (8304c <xTaskRemoveFromEventList+0x64>)
   82ff2:	4798      	blx	r3
   82ff4:	bf00      	nop
   82ff6:	e7fd      	b.n	82ff4 <xTaskRemoveFromEventList+0xc>
   82ff8:	f104 0518 	add.w	r5, r4, #24
   82ffc:	4628      	mov	r0, r5
   82ffe:	4b14      	ldr	r3, [pc, #80]	; (83050 <xTaskRemoveFromEventList+0x68>)
   83000:	4798      	blx	r3
   83002:	4b14      	ldr	r3, [pc, #80]	; (83054 <xTaskRemoveFromEventList+0x6c>)
   83004:	681b      	ldr	r3, [r3, #0]
   83006:	b99b      	cbnz	r3, 83030 <xTaskRemoveFromEventList+0x48>
   83008:	1d25      	adds	r5, r4, #4
   8300a:	4628      	mov	r0, r5
   8300c:	4b10      	ldr	r3, [pc, #64]	; (83050 <xTaskRemoveFromEventList+0x68>)
   8300e:	4798      	blx	r3
   83010:	6ae3      	ldr	r3, [r4, #44]	; 0x2c
   83012:	4a11      	ldr	r2, [pc, #68]	; (83058 <xTaskRemoveFromEventList+0x70>)
   83014:	6812      	ldr	r2, [r2, #0]
   83016:	4293      	cmp	r3, r2
   83018:	bf84      	itt	hi
   8301a:	4a0f      	ldrhi	r2, [pc, #60]	; (83058 <xTaskRemoveFromEventList+0x70>)
   8301c:	6013      	strhi	r3, [r2, #0]
   8301e:	eb03 0383 	add.w	r3, r3, r3, lsl #2
   83022:	480e      	ldr	r0, [pc, #56]	; (8305c <xTaskRemoveFromEventList+0x74>)
   83024:	eb00 0083 	add.w	r0, r0, r3, lsl #2
   83028:	4629      	mov	r1, r5
   8302a:	4b0d      	ldr	r3, [pc, #52]	; (83060 <xTaskRemoveFromEventList+0x78>)
   8302c:	4798      	blx	r3
   8302e:	e003      	b.n	83038 <xTaskRemoveFromEventList+0x50>
   83030:	480c      	ldr	r0, [pc, #48]	; (83064 <xTaskRemoveFromEventList+0x7c>)
   83032:	4629      	mov	r1, r5
   83034:	4b0a      	ldr	r3, [pc, #40]	; (83060 <xTaskRemoveFromEventList+0x78>)
   83036:	4798      	blx	r3
   83038:	4b0b      	ldr	r3, [pc, #44]	; (83068 <xTaskRemoveFromEventList+0x80>)
   8303a:	681b      	ldr	r3, [r3, #0]
   8303c:	6ae0      	ldr	r0, [r4, #44]	; 0x2c
   8303e:	6adb      	ldr	r3, [r3, #44]	; 0x2c
   83040:	4298      	cmp	r0, r3
   83042:	bf34      	ite	cc
   83044:	2000      	movcc	r0, #0
   83046:	2001      	movcs	r0, #1
   83048:	bd38      	pop	{r3, r4, r5, pc}
   8304a:	bf00      	nop
   8304c:	000820ed 	.word	0x000820ed
   83050:	00082065 	.word	0x00082065
   83054:	20078418 	.word	0x20078418
   83058:	20078360 	.word	0x20078360
   8305c:	20078364 	.word	0x20078364
   83060:	0008200d 	.word	0x0008200d
   83064:	20078420 	.word	0x20078420
   83068:	2007841c 	.word	0x2007841c

0008306c <vTaskSetTimeOutState>:
   8306c:	b508      	push	{r3, lr}
   8306e:	b918      	cbnz	r0, 83078 <vTaskSetTimeOutState+0xc>
   83070:	4b05      	ldr	r3, [pc, #20]	; (83088 <vTaskSetTimeOutState+0x1c>)
   83072:	4798      	blx	r3
   83074:	bf00      	nop
   83076:	e7fd      	b.n	83074 <vTaskSetTimeOutState+0x8>
   83078:	4a04      	ldr	r2, [pc, #16]	; (8308c <vTaskSetTimeOutState+0x20>)
   8307a:	6812      	ldr	r2, [r2, #0]
   8307c:	6002      	str	r2, [r0, #0]
   8307e:	4a04      	ldr	r2, [pc, #16]	; (83090 <vTaskSetTimeOutState+0x24>)
   83080:	6812      	ldr	r2, [r2, #0]
   83082:	6042      	str	r2, [r0, #4]
   83084:	bd08      	pop	{r3, pc}
   83086:	bf00      	nop
   83088:	000820ed 	.word	0x000820ed
   8308c:	20078434 	.word	0x20078434
   83090:	20078438 	.word	0x20078438

00083094 <xTaskCheckForTimeOut>:
   83094:	b538      	push	{r3, r4, r5, lr}
   83096:	460d      	mov	r5, r1
   83098:	4604      	mov	r4, r0
   8309a:	b918      	cbnz	r0, 830a4 <xTaskCheckForTimeOut+0x10>
   8309c:	4b18      	ldr	r3, [pc, #96]	; (83100 <xTaskCheckForTimeOut+0x6c>)
   8309e:	4798      	blx	r3
   830a0:	bf00      	nop
   830a2:	e7fd      	b.n	830a0 <xTaskCheckForTimeOut+0xc>
   830a4:	b919      	cbnz	r1, 830ae <xTaskCheckForTimeOut+0x1a>
   830a6:	4b16      	ldr	r3, [pc, #88]	; (83100 <xTaskCheckForTimeOut+0x6c>)
   830a8:	4798      	blx	r3
   830aa:	bf00      	nop
   830ac:	e7fd      	b.n	830aa <xTaskCheckForTimeOut+0x16>
   830ae:	4b15      	ldr	r3, [pc, #84]	; (83104 <xTaskCheckForTimeOut+0x70>)
   830b0:	4798      	blx	r3
   830b2:	682b      	ldr	r3, [r5, #0]
   830b4:	f1b3 3fff 	cmp.w	r3, #4294967295
   830b8:	d019      	beq.n	830ee <xTaskCheckForTimeOut+0x5a>
   830ba:	4a13      	ldr	r2, [pc, #76]	; (83108 <xTaskCheckForTimeOut+0x74>)
   830bc:	6811      	ldr	r1, [r2, #0]
   830be:	6822      	ldr	r2, [r4, #0]
   830c0:	428a      	cmp	r2, r1
   830c2:	d004      	beq.n	830ce <xTaskCheckForTimeOut+0x3a>
   830c4:	4a11      	ldr	r2, [pc, #68]	; (8310c <xTaskCheckForTimeOut+0x78>)
   830c6:	6811      	ldr	r1, [r2, #0]
   830c8:	6862      	ldr	r2, [r4, #4]
   830ca:	428a      	cmp	r2, r1
   830cc:	d911      	bls.n	830f2 <xTaskCheckForTimeOut+0x5e>
   830ce:	4a0f      	ldr	r2, [pc, #60]	; (8310c <xTaskCheckForTimeOut+0x78>)
   830d0:	6811      	ldr	r1, [r2, #0]
   830d2:	6862      	ldr	r2, [r4, #4]
   830d4:	1a89      	subs	r1, r1, r2
   830d6:	428b      	cmp	r3, r1
   830d8:	d90d      	bls.n	830f6 <xTaskCheckForTimeOut+0x62>
   830da:	490c      	ldr	r1, [pc, #48]	; (8310c <xTaskCheckForTimeOut+0x78>)
   830dc:	6809      	ldr	r1, [r1, #0]
   830de:	1a52      	subs	r2, r2, r1
   830e0:	4413      	add	r3, r2
   830e2:	602b      	str	r3, [r5, #0]
   830e4:	4620      	mov	r0, r4
   830e6:	4b0a      	ldr	r3, [pc, #40]	; (83110 <xTaskCheckForTimeOut+0x7c>)
   830e8:	4798      	blx	r3
   830ea:	2400      	movs	r4, #0
   830ec:	e004      	b.n	830f8 <xTaskCheckForTimeOut+0x64>
   830ee:	2400      	movs	r4, #0
   830f0:	e002      	b.n	830f8 <xTaskCheckForTimeOut+0x64>
   830f2:	2401      	movs	r4, #1
   830f4:	e000      	b.n	830f8 <xTaskCheckForTimeOut+0x64>
   830f6:	2401      	movs	r4, #1
   830f8:	4b06      	ldr	r3, [pc, #24]	; (83114 <xTaskCheckForTimeOut+0x80>)
   830fa:	4798      	blx	r3
   830fc:	4620      	mov	r0, r4
   830fe:	bd38      	pop	{r3, r4, r5, pc}
   83100:	000820ed 	.word	0x000820ed
   83104:	000820fd 	.word	0x000820fd
   83108:	20078434 	.word	0x20078434
   8310c:	20078438 	.word	0x20078438
   83110:	0008306d 	.word	0x0008306d
   83114:	0008211d 	.word	0x0008211d

00083118 <vTaskMissedYield>:
   83118:	2201      	movs	r2, #1
   8311a:	4b01      	ldr	r3, [pc, #4]	; (83120 <vTaskMissedYield+0x8>)
   8311c:	601a      	str	r2, [r3, #0]
   8311e:	4770      	bx	lr
   83120:	20078458 	.word	0x20078458

00083124 <xTaskGetCurrentTaskHandle>:
   83124:	4b01      	ldr	r3, [pc, #4]	; (8312c <xTaskGetCurrentTaskHandle+0x8>)
   83126:	6818      	ldr	r0, [r3, #0]
   83128:	4770      	bx	lr
   8312a:	bf00      	nop
   8312c:	2007841c 	.word	0x2007841c

00083130 <xTaskGetSchedulerState>:
   83130:	4b05      	ldr	r3, [pc, #20]	; (83148 <xTaskGetSchedulerState+0x18>)
   83132:	681b      	ldr	r3, [r3, #0]
   83134:	b133      	cbz	r3, 83144 <xTaskGetSchedulerState+0x14>
   83136:	4b05      	ldr	r3, [pc, #20]	; (8314c <xTaskGetSchedulerState+0x1c>)
   83138:	681b      	ldr	r3, [r3, #0]
   8313a:	2b00      	cmp	r3, #0
   8313c:	bf14      	ite	ne
   8313e:	2002      	movne	r0, #2
   83140:	2001      	moveq	r0, #1
   83142:	4770      	bx	lr
   83144:	2000      	movs	r0, #0
   83146:	4770      	bx	lr
   83148:	20078330 	.word	0x20078330
   8314c:	20078418 	.word	0x20078418

00083150 <vTaskPriorityInherit>:
   83150:	b538      	push	{r3, r4, r5, lr}
   83152:	4604      	mov	r4, r0
   83154:	2800      	cmp	r0, #0
   83156:	d02e      	beq.n	831b6 <vTaskPriorityInherit+0x66>
   83158:	6ac3      	ldr	r3, [r0, #44]	; 0x2c
   8315a:	4a17      	ldr	r2, [pc, #92]	; (831b8 <vTaskPriorityInherit+0x68>)
   8315c:	6812      	ldr	r2, [r2, #0]
   8315e:	6ad2      	ldr	r2, [r2, #44]	; 0x2c
   83160:	4293      	cmp	r3, r2
   83162:	d228      	bcs.n	831b6 <vTaskPriorityInherit+0x66>
   83164:	4a14      	ldr	r2, [pc, #80]	; (831b8 <vTaskPriorityInherit+0x68>)
   83166:	6812      	ldr	r2, [r2, #0]
   83168:	6ad2      	ldr	r2, [r2, #44]	; 0x2c
   8316a:	f1c2 0209 	rsb	r2, r2, #9
   8316e:	6182      	str	r2, [r0, #24]
   83170:	eb03 0383 	add.w	r3, r3, r3, lsl #2
   83174:	4a11      	ldr	r2, [pc, #68]	; (831bc <vTaskPriorityInherit+0x6c>)
   83176:	eb02 0383 	add.w	r3, r2, r3, lsl #2
   8317a:	6942      	ldr	r2, [r0, #20]
   8317c:	429a      	cmp	r2, r3
   8317e:	d116      	bne.n	831ae <vTaskPriorityInherit+0x5e>
   83180:	1d05      	adds	r5, r0, #4
   83182:	4628      	mov	r0, r5
   83184:	4b0e      	ldr	r3, [pc, #56]	; (831c0 <vTaskPriorityInherit+0x70>)
   83186:	4798      	blx	r3
   83188:	4b0b      	ldr	r3, [pc, #44]	; (831b8 <vTaskPriorityInherit+0x68>)
   8318a:	681b      	ldr	r3, [r3, #0]
   8318c:	6adb      	ldr	r3, [r3, #44]	; 0x2c
   8318e:	62e3      	str	r3, [r4, #44]	; 0x2c
   83190:	4a0c      	ldr	r2, [pc, #48]	; (831c4 <vTaskPriorityInherit+0x74>)
   83192:	6812      	ldr	r2, [r2, #0]
   83194:	4293      	cmp	r3, r2
   83196:	bf84      	itt	hi
   83198:	4a0a      	ldrhi	r2, [pc, #40]	; (831c4 <vTaskPriorityInherit+0x74>)
   8319a:	6013      	strhi	r3, [r2, #0]
   8319c:	eb03 0383 	add.w	r3, r3, r3, lsl #2
   831a0:	4806      	ldr	r0, [pc, #24]	; (831bc <vTaskPriorityInherit+0x6c>)
   831a2:	eb00 0083 	add.w	r0, r0, r3, lsl #2
   831a6:	4629      	mov	r1, r5
   831a8:	4b07      	ldr	r3, [pc, #28]	; (831c8 <vTaskPriorityInherit+0x78>)
   831aa:	4798      	blx	r3
   831ac:	bd38      	pop	{r3, r4, r5, pc}
   831ae:	4b02      	ldr	r3, [pc, #8]	; (831b8 <vTaskPriorityInherit+0x68>)
   831b0:	681b      	ldr	r3, [r3, #0]
   831b2:	6adb      	ldr	r3, [r3, #44]	; 0x2c
   831b4:	62c3      	str	r3, [r0, #44]	; 0x2c
   831b6:	bd38      	pop	{r3, r4, r5, pc}
   831b8:	2007841c 	.word	0x2007841c
   831bc:	20078364 	.word	0x20078364
   831c0:	00082065 	.word	0x00082065
   831c4:	20078360 	.word	0x20078360
   831c8:	0008200d 	.word	0x0008200d

000831cc <vTaskPriorityDisinherit>:
   831cc:	b538      	push	{r3, r4, r5, lr}
   831ce:	4604      	mov	r4, r0
   831d0:	b1d0      	cbz	r0, 83208 <vTaskPriorityDisinherit+0x3c>
   831d2:	6ac2      	ldr	r2, [r0, #44]	; 0x2c
   831d4:	6c83      	ldr	r3, [r0, #72]	; 0x48
   831d6:	429a      	cmp	r2, r3
   831d8:	d016      	beq.n	83208 <vTaskPriorityDisinherit+0x3c>
   831da:	1d05      	adds	r5, r0, #4
   831dc:	4628      	mov	r0, r5
   831de:	4b0b      	ldr	r3, [pc, #44]	; (8320c <vTaskPriorityDisinherit+0x40>)
   831e0:	4798      	blx	r3
   831e2:	6ca3      	ldr	r3, [r4, #72]	; 0x48
   831e4:	62e3      	str	r3, [r4, #44]	; 0x2c
   831e6:	f1c3 0209 	rsb	r2, r3, #9
   831ea:	61a2      	str	r2, [r4, #24]
   831ec:	4a08      	ldr	r2, [pc, #32]	; (83210 <vTaskPriorityDisinherit+0x44>)
   831ee:	6812      	ldr	r2, [r2, #0]
   831f0:	4293      	cmp	r3, r2
   831f2:	bf84      	itt	hi
   831f4:	4a06      	ldrhi	r2, [pc, #24]	; (83210 <vTaskPriorityDisinherit+0x44>)
   831f6:	6013      	strhi	r3, [r2, #0]
   831f8:	eb03 0383 	add.w	r3, r3, r3, lsl #2
   831fc:	4805      	ldr	r0, [pc, #20]	; (83214 <vTaskPriorityDisinherit+0x48>)
   831fe:	eb00 0083 	add.w	r0, r0, r3, lsl #2
   83202:	4629      	mov	r1, r5
   83204:	4b04      	ldr	r3, [pc, #16]	; (83218 <vTaskPriorityDisinherit+0x4c>)
   83206:	4798      	blx	r3
   83208:	bd38      	pop	{r3, r4, r5, pc}
   8320a:	bf00      	nop
   8320c:	00082065 	.word	0x00082065
   83210:	20078360 	.word	0x20078360
   83214:	20078364 	.word	0x20078364
   83218:	0008200d 	.word	0x0008200d

0008321c <prvInsertTimerInActiveList>:
   8321c:	b510      	push	{r4, lr}
   8321e:	4604      	mov	r4, r0
   83220:	6041      	str	r1, [r0, #4]
   83222:	6120      	str	r0, [r4, #16]
   83224:	4291      	cmp	r1, r2
   83226:	d80a      	bhi.n	8323e <prvInsertTimerInActiveList+0x22>
   83228:	1ad2      	subs	r2, r2, r3
   8322a:	6981      	ldr	r1, [r0, #24]
   8322c:	428a      	cmp	r2, r1
   8322e:	d211      	bcs.n	83254 <prvInsertTimerInActiveList+0x38>
   83230:	4b0a      	ldr	r3, [pc, #40]	; (8325c <prvInsertTimerInActiveList+0x40>)
   83232:	6818      	ldr	r0, [r3, #0]
   83234:	1d21      	adds	r1, r4, #4
   83236:	4b0a      	ldr	r3, [pc, #40]	; (83260 <prvInsertTimerInActiveList+0x44>)
   83238:	4798      	blx	r3
   8323a:	2000      	movs	r0, #0
   8323c:	bd10      	pop	{r4, pc}
   8323e:	429a      	cmp	r2, r3
   83240:	d201      	bcs.n	83246 <prvInsertTimerInActiveList+0x2a>
   83242:	4299      	cmp	r1, r3
   83244:	d208      	bcs.n	83258 <prvInsertTimerInActiveList+0x3c>
   83246:	4b07      	ldr	r3, [pc, #28]	; (83264 <prvInsertTimerInActiveList+0x48>)
   83248:	6818      	ldr	r0, [r3, #0]
   8324a:	1d21      	adds	r1, r4, #4
   8324c:	4b04      	ldr	r3, [pc, #16]	; (83260 <prvInsertTimerInActiveList+0x44>)
   8324e:	4798      	blx	r3
   83250:	2000      	movs	r0, #0
   83252:	bd10      	pop	{r4, pc}
   83254:	2001      	movs	r0, #1
   83256:	bd10      	pop	{r4, pc}
   83258:	2001      	movs	r0, #1
   8325a:	bd10      	pop	{r4, pc}
   8325c:	20078498 	.word	0x20078498
   83260:	00082029 	.word	0x00082029
   83264:	20078464 	.word	0x20078464

00083268 <prvCheckForValidListAndQueue>:
   83268:	b570      	push	{r4, r5, r6, lr}
   8326a:	4b0d      	ldr	r3, [pc, #52]	; (832a0 <prvCheckForValidListAndQueue+0x38>)
   8326c:	4798      	blx	r3
   8326e:	4b0d      	ldr	r3, [pc, #52]	; (832a4 <prvCheckForValidListAndQueue+0x3c>)
   83270:	681b      	ldr	r3, [r3, #0]
   83272:	b98b      	cbnz	r3, 83298 <prvCheckForValidListAndQueue+0x30>
   83274:	4d0c      	ldr	r5, [pc, #48]	; (832a8 <prvCheckForValidListAndQueue+0x40>)
   83276:	4628      	mov	r0, r5
   83278:	4e0c      	ldr	r6, [pc, #48]	; (832ac <prvCheckForValidListAndQueue+0x44>)
   8327a:	47b0      	blx	r6
   8327c:	4c0c      	ldr	r4, [pc, #48]	; (832b0 <prvCheckForValidListAndQueue+0x48>)
   8327e:	4620      	mov	r0, r4
   83280:	47b0      	blx	r6
   83282:	4b0c      	ldr	r3, [pc, #48]	; (832b4 <prvCheckForValidListAndQueue+0x4c>)
   83284:	601d      	str	r5, [r3, #0]
   83286:	4b0c      	ldr	r3, [pc, #48]	; (832b8 <prvCheckForValidListAndQueue+0x50>)
   83288:	601c      	str	r4, [r3, #0]
   8328a:	2005      	movs	r0, #5
   8328c:	210c      	movs	r1, #12
   8328e:	2200      	movs	r2, #0
   83290:	4b0a      	ldr	r3, [pc, #40]	; (832bc <prvCheckForValidListAndQueue+0x54>)
   83292:	4798      	blx	r3
   83294:	4b03      	ldr	r3, [pc, #12]	; (832a4 <prvCheckForValidListAndQueue+0x3c>)
   83296:	6018      	str	r0, [r3, #0]
   83298:	4b09      	ldr	r3, [pc, #36]	; (832c0 <prvCheckForValidListAndQueue+0x58>)
   8329a:	4798      	blx	r3
   8329c:	bd70      	pop	{r4, r5, r6, pc}
   8329e:	bf00      	nop
   832a0:	000820fd 	.word	0x000820fd
   832a4:	20078494 	.word	0x20078494
   832a8:	20078468 	.word	0x20078468
   832ac:	00081fed 	.word	0x00081fed
   832b0:	2007847c 	.word	0x2007847c
   832b4:	20078464 	.word	0x20078464
   832b8:	20078498 	.word	0x20078498
   832bc:	000824d5 	.word	0x000824d5
   832c0:	0008211d 	.word	0x0008211d

000832c4 <xTimerCreateTimerTask>:
   832c4:	b510      	push	{r4, lr}
   832c6:	b084      	sub	sp, #16
   832c8:	4b0b      	ldr	r3, [pc, #44]	; (832f8 <xTimerCreateTimerTask+0x34>)
   832ca:	4798      	blx	r3
   832cc:	4b0b      	ldr	r3, [pc, #44]	; (832fc <xTimerCreateTimerTask+0x38>)
   832ce:	681b      	ldr	r3, [r3, #0]
   832d0:	b163      	cbz	r3, 832ec <xTimerCreateTimerTask+0x28>
   832d2:	2308      	movs	r3, #8
   832d4:	9300      	str	r3, [sp, #0]
   832d6:	2300      	movs	r3, #0
   832d8:	9301      	str	r3, [sp, #4]
   832da:	9302      	str	r3, [sp, #8]
   832dc:	9303      	str	r3, [sp, #12]
   832de:	4808      	ldr	r0, [pc, #32]	; (83300 <xTimerCreateTimerTask+0x3c>)
   832e0:	4908      	ldr	r1, [pc, #32]	; (83304 <xTimerCreateTimerTask+0x40>)
   832e2:	f44f 7282 	mov.w	r2, #260	; 0x104
   832e6:	4c08      	ldr	r4, [pc, #32]	; (83308 <xTimerCreateTimerTask+0x44>)
   832e8:	47a0      	blx	r4
   832ea:	b918      	cbnz	r0, 832f4 <xTimerCreateTimerTask+0x30>
   832ec:	4b07      	ldr	r3, [pc, #28]	; (8330c <xTimerCreateTimerTask+0x48>)
   832ee:	4798      	blx	r3
   832f0:	bf00      	nop
   832f2:	e7fd      	b.n	832f0 <xTimerCreateTimerTask+0x2c>
   832f4:	b004      	add	sp, #16
   832f6:	bd10      	pop	{r4, pc}
   832f8:	00083269 	.word	0x00083269
   832fc:	20078494 	.word	0x20078494
   83300:	00083419 	.word	0x00083419
   83304:	00086fe4 	.word	0x00086fe4
   83308:	000828d9 	.word	0x000828d9
   8330c:	000820ed 	.word	0x000820ed

00083310 <xTimerGenericCommand>:
   83310:	b510      	push	{r4, lr}
   83312:	b084      	sub	sp, #16
   83314:	4c0f      	ldr	r4, [pc, #60]	; (83354 <xTimerGenericCommand+0x44>)
   83316:	6824      	ldr	r4, [r4, #0]
   83318:	b1c4      	cbz	r4, 8334c <xTimerGenericCommand+0x3c>
   8331a:	9101      	str	r1, [sp, #4]
   8331c:	9202      	str	r2, [sp, #8]
   8331e:	9003      	str	r0, [sp, #12]
   83320:	b96b      	cbnz	r3, 8333e <xTimerGenericCommand+0x2e>
   83322:	4b0d      	ldr	r3, [pc, #52]	; (83358 <xTimerGenericCommand+0x48>)
   83324:	4798      	blx	r3
   83326:	2801      	cmp	r0, #1
   83328:	4b0a      	ldr	r3, [pc, #40]	; (83354 <xTimerGenericCommand+0x44>)
   8332a:	6818      	ldr	r0, [r3, #0]
   8332c:	a901      	add	r1, sp, #4
   8332e:	bf07      	ittee	eq
   83330:	9a06      	ldreq	r2, [sp, #24]
   83332:	2300      	moveq	r3, #0
   83334:	2200      	movne	r2, #0
   83336:	4613      	movne	r3, r2
   83338:	4c08      	ldr	r4, [pc, #32]	; (8335c <xTimerGenericCommand+0x4c>)
   8333a:	47a0      	blx	r4
   8333c:	e007      	b.n	8334e <xTimerGenericCommand+0x3e>
   8333e:	4620      	mov	r0, r4
   83340:	a901      	add	r1, sp, #4
   83342:	461a      	mov	r2, r3
   83344:	2300      	movs	r3, #0
   83346:	4c06      	ldr	r4, [pc, #24]	; (83360 <xTimerGenericCommand+0x50>)
   83348:	47a0      	blx	r4
   8334a:	e000      	b.n	8334e <xTimerGenericCommand+0x3e>
   8334c:	2000      	movs	r0, #0
   8334e:	b004      	add	sp, #16
   83350:	bd10      	pop	{r4, pc}
   83352:	bf00      	nop
   83354:	20078494 	.word	0x20078494
   83358:	00083131 	.word	0x00083131
   8335c:	0008252d 	.word	0x0008252d
   83360:	00082649 	.word	0x00082649

00083364 <prvSampleTimeNow>:
   83364:	e92d 47f0 	stmdb	sp!, {r4, r5, r6, r7, r8, r9, sl, lr}
   83368:	b082      	sub	sp, #8
   8336a:	4681      	mov	r9, r0
   8336c:	4b22      	ldr	r3, [pc, #136]	; (833f8 <prvSampleTimeNow+0x94>)
   8336e:	4798      	blx	r3
   83370:	4680      	mov	r8, r0
   83372:	4b22      	ldr	r3, [pc, #136]	; (833fc <prvSampleTimeNow+0x98>)
   83374:	681b      	ldr	r3, [r3, #0]
   83376:	4298      	cmp	r0, r3
   83378:	d234      	bcs.n	833e4 <prvSampleTimeNow+0x80>
   8337a:	4e21      	ldr	r6, [pc, #132]	; (83400 <prvSampleTimeNow+0x9c>)
   8337c:	4f21      	ldr	r7, [pc, #132]	; (83404 <prvSampleTimeNow+0xa0>)
   8337e:	e024      	b.n	833ca <prvSampleTimeNow+0x66>
   83380:	68da      	ldr	r2, [r3, #12]
   83382:	f8d2 a000 	ldr.w	sl, [r2]
   83386:	68db      	ldr	r3, [r3, #12]
   83388:	68dc      	ldr	r4, [r3, #12]
   8338a:	1d25      	adds	r5, r4, #4
   8338c:	4628      	mov	r0, r5
   8338e:	47b8      	blx	r7
   83390:	6a63      	ldr	r3, [r4, #36]	; 0x24
   83392:	4620      	mov	r0, r4
   83394:	4798      	blx	r3
   83396:	69e3      	ldr	r3, [r4, #28]
   83398:	2b01      	cmp	r3, #1
   8339a:	d116      	bne.n	833ca <prvSampleTimeNow+0x66>
   8339c:	69a3      	ldr	r3, [r4, #24]
   8339e:	4453      	add	r3, sl
   833a0:	4553      	cmp	r3, sl
   833a2:	d906      	bls.n	833b2 <prvSampleTimeNow+0x4e>
   833a4:	6063      	str	r3, [r4, #4]
   833a6:	6124      	str	r4, [r4, #16]
   833a8:	6830      	ldr	r0, [r6, #0]
   833aa:	4629      	mov	r1, r5
   833ac:	4b16      	ldr	r3, [pc, #88]	; (83408 <prvSampleTimeNow+0xa4>)
   833ae:	4798      	blx	r3
   833b0:	e00b      	b.n	833ca <prvSampleTimeNow+0x66>
   833b2:	2300      	movs	r3, #0
   833b4:	9300      	str	r3, [sp, #0]
   833b6:	4620      	mov	r0, r4
   833b8:	4619      	mov	r1, r3
   833ba:	4652      	mov	r2, sl
   833bc:	4c13      	ldr	r4, [pc, #76]	; (8340c <prvSampleTimeNow+0xa8>)
   833be:	47a0      	blx	r4
   833c0:	b918      	cbnz	r0, 833ca <prvSampleTimeNow+0x66>
   833c2:	4b13      	ldr	r3, [pc, #76]	; (83410 <prvSampleTimeNow+0xac>)
   833c4:	4798      	blx	r3
   833c6:	bf00      	nop
   833c8:	e7fd      	b.n	833c6 <prvSampleTimeNow+0x62>
   833ca:	6833      	ldr	r3, [r6, #0]
   833cc:	681a      	ldr	r2, [r3, #0]
   833ce:	2a00      	cmp	r2, #0
   833d0:	d1d6      	bne.n	83380 <prvSampleTimeNow+0x1c>
   833d2:	4a10      	ldr	r2, [pc, #64]	; (83414 <prvSampleTimeNow+0xb0>)
   833d4:	6811      	ldr	r1, [r2, #0]
   833d6:	480a      	ldr	r0, [pc, #40]	; (83400 <prvSampleTimeNow+0x9c>)
   833d8:	6001      	str	r1, [r0, #0]
   833da:	6013      	str	r3, [r2, #0]
   833dc:	2301      	movs	r3, #1
   833de:	f8c9 3000 	str.w	r3, [r9]
   833e2:	e002      	b.n	833ea <prvSampleTimeNow+0x86>
   833e4:	2300      	movs	r3, #0
   833e6:	f8c9 3000 	str.w	r3, [r9]
   833ea:	4b04      	ldr	r3, [pc, #16]	; (833fc <prvSampleTimeNow+0x98>)
   833ec:	f8c3 8000 	str.w	r8, [r3]
   833f0:	4640      	mov	r0, r8
   833f2:	b002      	add	sp, #8
   833f4:	e8bd 87f0 	ldmia.w	sp!, {r4, r5, r6, r7, r8, r9, sl, pc}
   833f8:	00082b59 	.word	0x00082b59
   833fc:	20078490 	.word	0x20078490
   83400:	20078464 	.word	0x20078464
   83404:	00082065 	.word	0x00082065
   83408:	00082029 	.word	0x00082029
   8340c:	00083311 	.word	0x00083311
   83410:	000820ed 	.word	0x000820ed
   83414:	20078498 	.word	0x20078498

00083418 <prvTimerTask>:
   83418:	e92d 43f0 	stmdb	sp!, {r4, r5, r6, r7, r8, r9, lr}
   8341c:	b087      	sub	sp, #28
   8341e:	4d4d      	ldr	r5, [pc, #308]	; (83554 <prvTimerTask+0x13c>)
   83420:	f8df 8160 	ldr.w	r8, [pc, #352]	; 83584 <prvTimerTask+0x16c>
   83424:	4b4c      	ldr	r3, [pc, #304]	; (83558 <prvTimerTask+0x140>)
   83426:	681b      	ldr	r3, [r3, #0]
   83428:	681a      	ldr	r2, [r3, #0]
   8342a:	2a00      	cmp	r2, #0
   8342c:	f000 8087 	beq.w	8353e <prvTimerTask+0x126>
   83430:	68db      	ldr	r3, [r3, #12]
   83432:	681e      	ldr	r6, [r3, #0]
   83434:	4b49      	ldr	r3, [pc, #292]	; (8355c <prvTimerTask+0x144>)
   83436:	4798      	blx	r3
   83438:	a803      	add	r0, sp, #12
   8343a:	4b49      	ldr	r3, [pc, #292]	; (83560 <prvTimerTask+0x148>)
   8343c:	4798      	blx	r3
   8343e:	4607      	mov	r7, r0
   83440:	9b03      	ldr	r3, [sp, #12]
   83442:	2b00      	cmp	r3, #0
   83444:	d130      	bne.n	834a8 <prvTimerTask+0x90>
   83446:	4286      	cmp	r6, r0
   83448:	d824      	bhi.n	83494 <prvTimerTask+0x7c>
   8344a:	4b46      	ldr	r3, [pc, #280]	; (83564 <prvTimerTask+0x14c>)
   8344c:	4798      	blx	r3
   8344e:	4b42      	ldr	r3, [pc, #264]	; (83558 <prvTimerTask+0x140>)
   83450:	681b      	ldr	r3, [r3, #0]
   83452:	68db      	ldr	r3, [r3, #12]
   83454:	68dc      	ldr	r4, [r3, #12]
   83456:	1d20      	adds	r0, r4, #4
   83458:	47c0      	blx	r8
   8345a:	69e3      	ldr	r3, [r4, #28]
   8345c:	2b01      	cmp	r3, #1
   8345e:	d114      	bne.n	8348a <prvTimerTask+0x72>
   83460:	69a1      	ldr	r1, [r4, #24]
   83462:	4620      	mov	r0, r4
   83464:	4431      	add	r1, r6
   83466:	463a      	mov	r2, r7
   83468:	4633      	mov	r3, r6
   8346a:	4f3f      	ldr	r7, [pc, #252]	; (83568 <prvTimerTask+0x150>)
   8346c:	47b8      	blx	r7
   8346e:	2801      	cmp	r0, #1
   83470:	d10b      	bne.n	8348a <prvTimerTask+0x72>
   83472:	2300      	movs	r3, #0
   83474:	9300      	str	r3, [sp, #0]
   83476:	4620      	mov	r0, r4
   83478:	4619      	mov	r1, r3
   8347a:	4632      	mov	r2, r6
   8347c:	4e3b      	ldr	r6, [pc, #236]	; (8356c <prvTimerTask+0x154>)
   8347e:	47b0      	blx	r6
   83480:	b918      	cbnz	r0, 8348a <prvTimerTask+0x72>
   83482:	4b3b      	ldr	r3, [pc, #236]	; (83570 <prvTimerTask+0x158>)
   83484:	4798      	blx	r3
   83486:	bf00      	nop
   83488:	e7fd      	b.n	83486 <prvTimerTask+0x6e>
   8348a:	6a63      	ldr	r3, [r4, #36]	; 0x24
   8348c:	4620      	mov	r0, r4
   8348e:	4798      	blx	r3
   83490:	e00c      	b.n	834ac <prvTimerTask+0x94>
   83492:	2600      	movs	r6, #0
   83494:	6828      	ldr	r0, [r5, #0]
   83496:	1bf1      	subs	r1, r6, r7
   83498:	4b36      	ldr	r3, [pc, #216]	; (83574 <prvTimerTask+0x15c>)
   8349a:	4798      	blx	r3
   8349c:	4b31      	ldr	r3, [pc, #196]	; (83564 <prvTimerTask+0x14c>)
   8349e:	4798      	blx	r3
   834a0:	b920      	cbnz	r0, 834ac <prvTimerTask+0x94>
   834a2:	4b35      	ldr	r3, [pc, #212]	; (83578 <prvTimerTask+0x160>)
   834a4:	4798      	blx	r3
   834a6:	e001      	b.n	834ac <prvTimerTask+0x94>
   834a8:	4b2e      	ldr	r3, [pc, #184]	; (83564 <prvTimerTask+0x14c>)
   834aa:	4798      	blx	r3
   834ac:	a802      	add	r0, sp, #8
   834ae:	4b2c      	ldr	r3, [pc, #176]	; (83560 <prvTimerTask+0x148>)
   834b0:	4798      	blx	r3
   834b2:	4607      	mov	r7, r0
   834b4:	4e31      	ldr	r6, [pc, #196]	; (8357c <prvTimerTask+0x164>)
   834b6:	f8df 90b0 	ldr.w	r9, [pc, #176]	; 83568 <prvTimerTask+0x150>
   834ba:	e038      	b.n	8352e <prvTimerTask+0x116>
   834bc:	9c05      	ldr	r4, [sp, #20]
   834be:	b11c      	cbz	r4, 834c8 <prvTimerTask+0xb0>
   834c0:	6961      	ldr	r1, [r4, #20]
   834c2:	b109      	cbz	r1, 834c8 <prvTimerTask+0xb0>
   834c4:	1d20      	adds	r0, r4, #4
   834c6:	47c0      	blx	r8
   834c8:	9903      	ldr	r1, [sp, #12]
   834ca:	2902      	cmp	r1, #2
   834cc:	d01f      	beq.n	8350e <prvTimerTask+0xf6>
   834ce:	2903      	cmp	r1, #3
   834d0:	d02a      	beq.n	83528 <prvTimerTask+0x110>
   834d2:	2900      	cmp	r1, #0
   834d4:	d12b      	bne.n	8352e <prvTimerTask+0x116>
   834d6:	9b04      	ldr	r3, [sp, #16]
   834d8:	69a1      	ldr	r1, [r4, #24]
   834da:	4620      	mov	r0, r4
   834dc:	4419      	add	r1, r3
   834de:	463a      	mov	r2, r7
   834e0:	47c8      	blx	r9
   834e2:	2801      	cmp	r0, #1
   834e4:	d123      	bne.n	8352e <prvTimerTask+0x116>
   834e6:	6a63      	ldr	r3, [r4, #36]	; 0x24
   834e8:	4620      	mov	r0, r4
   834ea:	4798      	blx	r3
   834ec:	69e3      	ldr	r3, [r4, #28]
   834ee:	2b01      	cmp	r3, #1
   834f0:	d11d      	bne.n	8352e <prvTimerTask+0x116>
   834f2:	69a2      	ldr	r2, [r4, #24]
   834f4:	2300      	movs	r3, #0
   834f6:	9300      	str	r3, [sp, #0]
   834f8:	4620      	mov	r0, r4
   834fa:	4619      	mov	r1, r3
   834fc:	9c04      	ldr	r4, [sp, #16]
   834fe:	4422      	add	r2, r4
   83500:	4c1a      	ldr	r4, [pc, #104]	; (8356c <prvTimerTask+0x154>)
   83502:	47a0      	blx	r4
   83504:	b998      	cbnz	r0, 8352e <prvTimerTask+0x116>
   83506:	4b1a      	ldr	r3, [pc, #104]	; (83570 <prvTimerTask+0x158>)
   83508:	4798      	blx	r3
   8350a:	bf00      	nop
   8350c:	e7fd      	b.n	8350a <prvTimerTask+0xf2>
   8350e:	9904      	ldr	r1, [sp, #16]
   83510:	61a1      	str	r1, [r4, #24]
   83512:	b919      	cbnz	r1, 8351c <prvTimerTask+0x104>
   83514:	4b16      	ldr	r3, [pc, #88]	; (83570 <prvTimerTask+0x158>)
   83516:	4798      	blx	r3
   83518:	bf00      	nop
   8351a:	e7fd      	b.n	83518 <prvTimerTask+0x100>
   8351c:	4620      	mov	r0, r4
   8351e:	4439      	add	r1, r7
   83520:	463a      	mov	r2, r7
   83522:	463b      	mov	r3, r7
   83524:	47c8      	blx	r9
   83526:	e002      	b.n	8352e <prvTimerTask+0x116>
   83528:	4620      	mov	r0, r4
   8352a:	4b15      	ldr	r3, [pc, #84]	; (83580 <prvTimerTask+0x168>)
   8352c:	4798      	blx	r3
   8352e:	6828      	ldr	r0, [r5, #0]
   83530:	a903      	add	r1, sp, #12
   83532:	2200      	movs	r2, #0
   83534:	4613      	mov	r3, r2
   83536:	47b0      	blx	r6
   83538:	2800      	cmp	r0, #0
   8353a:	d1bf      	bne.n	834bc <prvTimerTask+0xa4>
   8353c:	e772      	b.n	83424 <prvTimerTask+0xc>
   8353e:	4b07      	ldr	r3, [pc, #28]	; (8355c <prvTimerTask+0x144>)
   83540:	4798      	blx	r3
   83542:	a803      	add	r0, sp, #12
   83544:	4b06      	ldr	r3, [pc, #24]	; (83560 <prvTimerTask+0x148>)
   83546:	4798      	blx	r3
   83548:	4607      	mov	r7, r0
   8354a:	9b03      	ldr	r3, [sp, #12]
   8354c:	2b00      	cmp	r3, #0
   8354e:	d0a0      	beq.n	83492 <prvTimerTask+0x7a>
   83550:	e7aa      	b.n	834a8 <prvTimerTask+0x90>
   83552:	bf00      	nop
   83554:	20078494 	.word	0x20078494
   83558:	20078464 	.word	0x20078464
   8355c:	00082b49 	.word	0x00082b49
   83560:	00083365 	.word	0x00083365
   83564:	00082c99 	.word	0x00082c99
   83568:	0008321d 	.word	0x0008321d
   8356c:	00083311 	.word	0x00083311
   83570:	000820ed 	.word	0x000820ed
   83574:	00082835 	.word	0x00082835
   83578:	000820dd 	.word	0x000820dd
   8357c:	000826d9 	.word	0x000826d9
   83580:	0008230d 	.word	0x0008230d
   83584:	00082065 	.word	0x00082065

00083588 <USART0_Handler>:
   83588:	b500      	push	{lr}
   8358a:	b083      	sub	sp, #12
   8358c:	4813      	ldr	r0, [pc, #76]	; (835dc <USART0_Handler+0x54>)
   8358e:	f10d 0107 	add.w	r1, sp, #7
   83592:	2201      	movs	r2, #1
   83594:	4b12      	ldr	r3, [pc, #72]	; (835e0 <USART0_Handler+0x58>)
   83596:	4798      	blx	r3
   83598:	b672      	cpsid	i
   8359a:	f3bf 8f5f 	dmb	sy
   8359e:	2200      	movs	r2, #0
   835a0:	4b10      	ldr	r3, [pc, #64]	; (835e4 <USART0_Handler+0x5c>)
   835a2:	701a      	strb	r2, [r3, #0]
   835a4:	4b10      	ldr	r3, [pc, #64]	; (835e8 <USART0_Handler+0x60>)
   835a6:	781a      	ldrb	r2, [r3, #0]
   835a8:	3201      	adds	r2, #1
   835aa:	701a      	strb	r2, [r3, #0]
   835ac:	4b0f      	ldr	r3, [pc, #60]	; (835ec <USART0_Handler+0x64>)
   835ae:	781b      	ldrb	r3, [r3, #0]
   835b0:	f89d 1007 	ldrb.w	r1, [sp, #7]
   835b4:	4a0e      	ldr	r2, [pc, #56]	; (835f0 <USART0_Handler+0x68>)
   835b6:	54d1      	strb	r1, [r2, r3]
   835b8:	2b9b      	cmp	r3, #155	; 0x9b
   835ba:	d103      	bne.n	835c4 <USART0_Handler+0x3c>
   835bc:	2200      	movs	r2, #0
   835be:	4b0b      	ldr	r3, [pc, #44]	; (835ec <USART0_Handler+0x64>)
   835c0:	701a      	strb	r2, [r3, #0]
   835c2:	e002      	b.n	835ca <USART0_Handler+0x42>
   835c4:	3301      	adds	r3, #1
   835c6:	4a09      	ldr	r2, [pc, #36]	; (835ec <USART0_Handler+0x64>)
   835c8:	7013      	strb	r3, [r2, #0]
   835ca:	2201      	movs	r2, #1
   835cc:	4b05      	ldr	r3, [pc, #20]	; (835e4 <USART0_Handler+0x5c>)
   835ce:	701a      	strb	r2, [r3, #0]
   835d0:	f3bf 8f5f 	dmb	sy
   835d4:	b662      	cpsie	i
   835d6:	b003      	add	sp, #12
   835d8:	f85d fb04 	ldr.w	pc, [sp], #4
   835dc:	40098000 	.word	0x40098000
   835e0:	000813dd 	.word	0x000813dd
   835e4:	2007013c 	.word	0x2007013c
   835e8:	20078539 	.word	0x20078539
   835ec:	20078538 	.word	0x20078538
   835f0:	2007849c 	.word	0x2007849c

000835f4 <usart_serial_getchar>:
 * \param p_usart   Base address of the USART instance.
 * \param data   Data to read
 *
 */
static inline void usart_serial_getchar(usart_if p_usart, uint8_t *data)
{
   835f4:	b5f0      	push	{r4, r5, r6, r7, lr}
   835f6:	b083      	sub	sp, #12
   835f8:	4604      	mov	r4, r0
   835fa:	460d      	mov	r5, r1
	uint32_t val = 0;
   835fc:	2300      	movs	r3, #0
   835fe:	9301      	str	r3, [sp, #4]

	/* Avoid Cppcheck Warning */
	UNUSED(val);

#ifdef UART
	if (UART == (Uart*)p_usart) {
   83600:	4b1f      	ldr	r3, [pc, #124]	; (83680 <usart_serial_getchar+0x8c>)
   83602:	4298      	cmp	r0, r3
   83604:	d107      	bne.n	83616 <usart_serial_getchar+0x22>
		while (uart_read((Uart*)p_usart, data));
   83606:	461f      	mov	r7, r3
   83608:	4e1e      	ldr	r6, [pc, #120]	; (83684 <usart_serial_getchar+0x90>)
   8360a:	4638      	mov	r0, r7
   8360c:	4629      	mov	r1, r5
   8360e:	47b0      	blx	r6
   83610:	2800      	cmp	r0, #0
   83612:	d1fa      	bne.n	8360a <usart_serial_getchar+0x16>
   83614:	e019      	b.n	8364a <usart_serial_getchar+0x56>
		while (usart_read(p_usart, &val));
		*data = (uint8_t)(val & 0xFF);
	}
#else
# ifdef USART0
	if (USART0 == p_usart) {
   83616:	4b1c      	ldr	r3, [pc, #112]	; (83688 <usart_serial_getchar+0x94>)
   83618:	4298      	cmp	r0, r3
   8361a:	d109      	bne.n	83630 <usart_serial_getchar+0x3c>
		while (usart_read(p_usart, &val));
   8361c:	461f      	mov	r7, r3
   8361e:	4e1b      	ldr	r6, [pc, #108]	; (8368c <usart_serial_getchar+0x98>)
   83620:	4638      	mov	r0, r7
   83622:	a901      	add	r1, sp, #4
   83624:	47b0      	blx	r6
   83626:	2800      	cmp	r0, #0
   83628:	d1fa      	bne.n	83620 <usart_serial_getchar+0x2c>
		*data = (uint8_t)(val & 0xFF);
   8362a:	9b01      	ldr	r3, [sp, #4]
   8362c:	702b      	strb	r3, [r5, #0]
   8362e:	e019      	b.n	83664 <usart_serial_getchar+0x70>
	}
# endif
# ifdef USART1
	if (USART1 == p_usart) {
   83630:	4b17      	ldr	r3, [pc, #92]	; (83690 <usart_serial_getchar+0x9c>)
   83632:	4298      	cmp	r0, r3
   83634:	d109      	bne.n	8364a <usart_serial_getchar+0x56>
		while (usart_read(p_usart, &val));
   83636:	461e      	mov	r6, r3
   83638:	4c14      	ldr	r4, [pc, #80]	; (8368c <usart_serial_getchar+0x98>)
   8363a:	4630      	mov	r0, r6
   8363c:	a901      	add	r1, sp, #4
   8363e:	47a0      	blx	r4
   83640:	2800      	cmp	r0, #0
   83642:	d1fa      	bne.n	8363a <usart_serial_getchar+0x46>
		*data = (uint8_t)(val & 0xFF);
   83644:	9b01      	ldr	r3, [sp, #4]
   83646:	702b      	strb	r3, [r5, #0]
   83648:	e018      	b.n	8367c <usart_serial_getchar+0x88>
	}
# endif
# ifdef USART2
	if (USART2 == p_usart) {
   8364a:	4b12      	ldr	r3, [pc, #72]	; (83694 <usart_serial_getchar+0xa0>)
   8364c:	429c      	cmp	r4, r3
   8364e:	d109      	bne.n	83664 <usart_serial_getchar+0x70>
		while (usart_read(p_usart, &val));
   83650:	461e      	mov	r6, r3
   83652:	4c0e      	ldr	r4, [pc, #56]	; (8368c <usart_serial_getchar+0x98>)
   83654:	4630      	mov	r0, r6
   83656:	a901      	add	r1, sp, #4
   83658:	47a0      	blx	r4
   8365a:	2800      	cmp	r0, #0
   8365c:	d1fa      	bne.n	83654 <usart_serial_getchar+0x60>
		*data = (uint8_t)(val & 0xFF);
   8365e:	9b01      	ldr	r3, [sp, #4]
   83660:	702b      	strb	r3, [r5, #0]
   83662:	e00b      	b.n	8367c <usart_serial_getchar+0x88>
	}
# endif
# ifdef USART3
	if (USART3 == p_usart) {
   83664:	4b0c      	ldr	r3, [pc, #48]	; (83698 <usart_serial_getchar+0xa4>)
   83666:	429c      	cmp	r4, r3
   83668:	d108      	bne.n	8367c <usart_serial_getchar+0x88>
		while (usart_read(p_usart, &val));
   8366a:	461e      	mov	r6, r3
   8366c:	4c07      	ldr	r4, [pc, #28]	; (8368c <usart_serial_getchar+0x98>)
   8366e:	4630      	mov	r0, r6
   83670:	a901      	add	r1, sp, #4
   83672:	47a0      	blx	r4
   83674:	2800      	cmp	r0, #0
   83676:	d1fa      	bne.n	8366e <usart_serial_getchar+0x7a>
		*data = (uint8_t)(val & 0xFF);
   83678:	9b01      	ldr	r3, [sp, #4]
   8367a:	702b      	strb	r3, [r5, #0]
		*data = (uint8_t)(val & 0xFF);
	}
# endif
#endif /* ifdef USART */

}
   8367c:	b003      	add	sp, #12
   8367e:	bdf0      	pop	{r4, r5, r6, r7, pc}
   83680:	400e0800 	.word	0x400e0800
   83684:	00081d8d 	.word	0x00081d8d
   83688:	40098000 	.word	0x40098000
   8368c:	00081db5 	.word	0x00081db5
   83690:	4009c000 	.word	0x4009c000
   83694:	400a0000 	.word	0x400a0000
   83698:	400a4000 	.word	0x400a4000

0008369c <usart_serial_putchar>:
 *   \retval 1  The character was written.
 *   \retval 0  The function timed out before the USART transmitter became
 * ready to send.
 */
static inline int usart_serial_putchar(usart_if p_usart, const uint8_t c)
{
   8369c:	b570      	push	{r4, r5, r6, lr}
   8369e:	460c      	mov	r4, r1
#ifdef UART
	if (UART == (Uart*)p_usart) {
   836a0:	4b21      	ldr	r3, [pc, #132]	; (83728 <usart_serial_putchar+0x8c>)
   836a2:	4298      	cmp	r0, r3
   836a4:	d107      	bne.n	836b6 <usart_serial_putchar+0x1a>
		while (uart_write((Uart*)p_usart, c)!=0);
   836a6:	461e      	mov	r6, r3
   836a8:	4d20      	ldr	r5, [pc, #128]	; (8372c <usart_serial_putchar+0x90>)
   836aa:	4630      	mov	r0, r6
   836ac:	4621      	mov	r1, r4
   836ae:	47a8      	blx	r5
   836b0:	2800      	cmp	r0, #0
   836b2:	d1fa      	bne.n	836aa <usart_serial_putchar+0xe>
   836b4:	e02b      	b.n	8370e <usart_serial_putchar+0x72>
		while (usart_write(p_usart, c)!=0);
		return 1;
	}
#else
# ifdef USART0
	if (USART0 == p_usart) {
   836b6:	4b1e      	ldr	r3, [pc, #120]	; (83730 <usart_serial_putchar+0x94>)
   836b8:	4298      	cmp	r0, r3
   836ba:	d107      	bne.n	836cc <usart_serial_putchar+0x30>
		while (usart_write(p_usart, c)!=0);
   836bc:	461e      	mov	r6, r3
   836be:	4d1d      	ldr	r5, [pc, #116]	; (83734 <usart_serial_putchar+0x98>)
   836c0:	4630      	mov	r0, r6
   836c2:	4621      	mov	r1, r4
   836c4:	47a8      	blx	r5
   836c6:	2800      	cmp	r0, #0
   836c8:	d1fa      	bne.n	836c0 <usart_serial_putchar+0x24>
   836ca:	e022      	b.n	83712 <usart_serial_putchar+0x76>
		return 1;
	}
# endif
# ifdef USART1
	if (USART1 == p_usart) {
   836cc:	4b1a      	ldr	r3, [pc, #104]	; (83738 <usart_serial_putchar+0x9c>)
   836ce:	4298      	cmp	r0, r3
   836d0:	d107      	bne.n	836e2 <usart_serial_putchar+0x46>
		while (usart_write(p_usart, c)!=0);
   836d2:	461e      	mov	r6, r3
   836d4:	4d17      	ldr	r5, [pc, #92]	; (83734 <usart_serial_putchar+0x98>)
   836d6:	4630      	mov	r0, r6
   836d8:	4621      	mov	r1, r4
   836da:	47a8      	blx	r5
   836dc:	2800      	cmp	r0, #0
   836de:	d1fa      	bne.n	836d6 <usart_serial_putchar+0x3a>
   836e0:	e019      	b.n	83716 <usart_serial_putchar+0x7a>
		return 1;
	}
# endif
# ifdef USART2
	if (USART2 == p_usart) {
   836e2:	4b16      	ldr	r3, [pc, #88]	; (8373c <usart_serial_putchar+0xa0>)
   836e4:	4298      	cmp	r0, r3
   836e6:	d107      	bne.n	836f8 <usart_serial_putchar+0x5c>
		while (usart_write(p_usart, c)!=0);
   836e8:	461e      	mov	r6, r3
   836ea:	4d12      	ldr	r5, [pc, #72]	; (83734 <usart_serial_putchar+0x98>)
   836ec:	4630      	mov	r0, r6
   836ee:	4621      	mov	r1, r4
   836f0:	47a8      	blx	r5
   836f2:	2800      	cmp	r0, #0
   836f4:	d1fa      	bne.n	836ec <usart_serial_putchar+0x50>
   836f6:	e010      	b.n	8371a <usart_serial_putchar+0x7e>
		return 1;
	}
# endif
# ifdef USART3
	if (USART3 == p_usart) {
   836f8:	4b11      	ldr	r3, [pc, #68]	; (83740 <usart_serial_putchar+0xa4>)
   836fa:	4298      	cmp	r0, r3
   836fc:	d10f      	bne.n	8371e <usart_serial_putchar+0x82>
		while (usart_write(p_usart, c)!=0);
   836fe:	461e      	mov	r6, r3
   83700:	4d0c      	ldr	r5, [pc, #48]	; (83734 <usart_serial_putchar+0x98>)
   83702:	4630      	mov	r0, r6
   83704:	4621      	mov	r1, r4
   83706:	47a8      	blx	r5
   83708:	2800      	cmp	r0, #0
   8370a:	d1fa      	bne.n	83702 <usart_serial_putchar+0x66>
   8370c:	e009      	b.n	83722 <usart_serial_putchar+0x86>
static inline int usart_serial_putchar(usart_if p_usart, const uint8_t c)
{
#ifdef UART
	if (UART == (Uart*)p_usart) {
		while (uart_write((Uart*)p_usart, c)!=0);
		return 1;
   8370e:	2001      	movs	r0, #1
   83710:	bd70      	pop	{r4, r5, r6, pc}
	}
#else
# ifdef USART0
	if (USART0 == p_usart) {
		while (usart_write(p_usart, c)!=0);
		return 1;
   83712:	2001      	movs	r0, #1
   83714:	bd70      	pop	{r4, r5, r6, pc}
	}
# endif
# ifdef USART1
	if (USART1 == p_usart) {
		while (usart_write(p_usart, c)!=0);
		return 1;
   83716:	2001      	movs	r0, #1
   83718:	bd70      	pop	{r4, r5, r6, pc}
	}
# endif
# ifdef USART2
	if (USART2 == p_usart) {
		while (usart_write(p_usart, c)!=0);
		return 1;
   8371a:	2001      	movs	r0, #1
   8371c:	bd70      	pop	{r4, r5, r6, pc}
		return 1;
	}
# endif
#endif /* ifdef USART */

	return 0;
   8371e:	2000      	movs	r0, #0
   83720:	bd70      	pop	{r4, r5, r6, pc}
	}
# endif
# ifdef USART3
	if (USART3 == p_usart) {
		while (usart_write(p_usart, c)!=0);
		return 1;
   83722:	2001      	movs	r0, #1
	}
# endif
#endif /* ifdef USART */

	return 0;
}
   83724:	bd70      	pop	{r4, r5, r6, pc}
   83726:	bf00      	nop
   83728:	400e0800 	.word	0x400e0800
   8372c:	00081d7d 	.word	0x00081d7d
   83730:	40098000 	.word	0x40098000
   83734:	00081da1 	.word	0x00081da1
   83738:	4009c000 	.word	0x4009c000
   8373c:	400a0000 	.word	0x400a0000
   83740:	400a4000 	.word	0x400a4000

00083744 <configureConsole>:
#include "Tasks/TaskPIDRight.h"
#include "PWMFunctions/PWMFunctions.h"

int configureConsole(void)
/* Enables feedback through the USB-cable back to terminal within Atmel Studio */
{
   83744:	b530      	push	{r4, r5, lr}
   83746:	b085      	sub	sp, #20
 *
 * \param ul_id Id (number) of the peripheral clock.
 */
static inline void sysclk_enable_peripheral_clock(uint32_t ul_id)
{
	pmc_enable_periph_clk(ul_id);
   83748:	2008      	movs	r0, #8
   8374a:	4d13      	ldr	r5, [pc, #76]	; (83798 <configureConsole+0x54>)
   8374c:	47a8      	blx	r5
 * \param opt         Options needed to set up RS232 communication (see \ref usart_options_t).
 *
 */
static inline void stdio_serial_init(volatile void *usart, const usart_serial_options_t *opt)
{
	stdio_base = (void *)usart;
   8374e:	4c13      	ldr	r4, [pc, #76]	; (8379c <configureConsole+0x58>)
   83750:	4b13      	ldr	r3, [pc, #76]	; (837a0 <configureConsole+0x5c>)
   83752:	601c      	str	r4, [r3, #0]
	ptr_put = (int (*)(void volatile*,char))&usart_serial_putchar;
   83754:	4a13      	ldr	r2, [pc, #76]	; (837a4 <configureConsole+0x60>)
   83756:	4b14      	ldr	r3, [pc, #80]	; (837a8 <configureConsole+0x64>)
   83758:	601a      	str	r2, [r3, #0]
	ptr_get = (void (*)(void volatile*,char*))&usart_serial_getchar;
   8375a:	4a14      	ldr	r2, [pc, #80]	; (837ac <configureConsole+0x68>)
   8375c:	4b14      	ldr	r3, [pc, #80]	; (837b0 <configureConsole+0x6c>)
   8375e:	601a      	str	r2, [r3, #0]
static inline void usart_serial_init(usart_if p_usart,
		usart_serial_options_t *opt)
{
#if ((!SAM4L) && (!SAMG55))
	sam_uart_opt_t uart_settings;
	uart_settings.ul_mck = sysclk_get_peripheral_hz();
   83760:	4b14      	ldr	r3, [pc, #80]	; (837b4 <configureConsole+0x70>)
   83762:	9301      	str	r3, [sp, #4]
	uart_settings.ul_baudrate = opt->baudrate;
   83764:	f44f 33e1 	mov.w	r3, #115200	; 0x1c200
   83768:	9302      	str	r3, [sp, #8]
	uart_settings.ul_mode = opt->paritytype;
   8376a:	f44f 6300 	mov.w	r3, #2048	; 0x800
   8376e:	9303      	str	r3, [sp, #12]
   83770:	2008      	movs	r0, #8
   83772:	47a8      	blx	r5
	
#ifdef UART
	if (UART == (Uart*)p_usart) {
		sysclk_enable_peripheral_clock(ID_UART);
		/* Configure UART */
		uart_init((Uart*)p_usart, &uart_settings);
   83774:	4620      	mov	r0, r4
   83776:	a901      	add	r1, sp, #4
   83778:	4b0f      	ldr	r3, [pc, #60]	; (837b8 <configureConsole+0x74>)
   8377a:	4798      	blx	r3
	fdevopen((int (*)(char, FILE*))(_write),(int (*)(FILE*))(_read));
#  endif
#  if UC3 || SAM
	// For AVR32 and SAM GCC
	// Specify that stdout and stdin should not be buffered.
	setbuf(stdout, NULL);
   8377c:	4d0f      	ldr	r5, [pc, #60]	; (837bc <configureConsole+0x78>)
   8377e:	682b      	ldr	r3, [r5, #0]
   83780:	6898      	ldr	r0, [r3, #8]
   83782:	2100      	movs	r1, #0
   83784:	4c0e      	ldr	r4, [pc, #56]	; (837c0 <configureConsole+0x7c>)
   83786:	47a0      	blx	r4
	setbuf(stdin, NULL);
   83788:	682b      	ldr	r3, [r5, #0]
   8378a:	6858      	ldr	r0, [r3, #4]
   8378c:	2100      	movs	r1, #0
   8378e:	47a0      	blx	r4
	sysclk_enable_peripheral_clock(CONSOLE_UART_ID);
	stdio_serial_init(CONF_UART, &uart_serial_options);

	/* printf("Console ready\n"); */
	return 0;
}
   83790:	2000      	movs	r0, #0
   83792:	b005      	add	sp, #20
   83794:	bd30      	pop	{r4, r5, pc}
   83796:	bf00      	nop
   83798:	00081af1 	.word	0x00081af1
   8379c:	400e0800 	.word	0x400e0800
   837a0:	200785c4 	.word	0x200785c4
   837a4:	0008369d 	.word	0x0008369d
   837a8:	200785c0 	.word	0x200785c0
   837ac:	000835f5 	.word	0x000835f5
   837b0:	200785bc 	.word	0x200785bc
   837b4:	0501bd00 	.word	0x0501bd00
   837b8:	00081d45 	.word	0x00081d45
   837bc:	200701b0 	.word	0x200701b0
   837c0:	000839d5 	.word	0x000839d5

000837c4 <main>:

int main (void)
{
   837c4:	b510      	push	{r4, lr}
   837c6:	b084      	sub	sp, #16
	// Insert system clock initialization code here (sysclk_init()).
	sysclk_init();
   837c8:	4b40      	ldr	r3, [pc, #256]	; (838cc <main+0x108>)
   837ca:	4798      	blx	r3
	board_init();
   837cc:	4b40      	ldr	r3, [pc, #256]	; (838d0 <main+0x10c>)
   837ce:	4798      	blx	r3
	analogInit();
   837d0:	4b40      	ldr	r3, [pc, #256]	; (838d4 <main+0x110>)
   837d2:	4798      	blx	r3
	setupUART();
   837d4:	4b40      	ldr	r3, [pc, #256]	; (838d8 <main+0x114>)
   837d6:	4798      	blx	r3
	configureConsole();
   837d8:	4b40      	ldr	r3, [pc, #256]	; (838dc <main+0x118>)
   837da:	4798      	blx	r3
	delayInit();	
   837dc:	4b40      	ldr	r3, [pc, #256]	; (838e0 <main+0x11c>)
   837de:	4798      	blx	r3
	configure_tc_LeftWheel();
   837e0:	4b40      	ldr	r3, [pc, #256]	; (838e4 <main+0x120>)
   837e2:	4798      	blx	r3
	configure_tc_RightWheel();
   837e4:	4b40      	ldr	r3, [pc, #256]	; (838e8 <main+0x124>)
   837e6:	4798      	blx	r3
	configure_interrupt_pio_LeftWheel();
   837e8:	4b40      	ldr	r3, [pc, #256]	; (838ec <main+0x128>)
   837ea:	4798      	blx	r3
	configure_interrupt_pio_RightWheel();
   837ec:	4b40      	ldr	r3, [pc, #256]	; (838f0 <main+0x12c>)
   837ee:	4798      	blx	r3
	PWMInit();
   837f0:	4b40      	ldr	r3, [pc, #256]	; (838f4 <main+0x130>)
   837f2:	4798      	blx	r3
			}
			}
	
	*/

	if (xTaskCreate(TaskDriveLeftRight, (const signed char * const) "TaskDriveLeftRight", 1024, NULL, 3, NULL) != pdPASS){
   837f4:	2303      	movs	r3, #3
   837f6:	9300      	str	r3, [sp, #0]
   837f8:	2300      	movs	r3, #0
   837fa:	9301      	str	r3, [sp, #4]
   837fc:	9302      	str	r3, [sp, #8]
   837fe:	9303      	str	r3, [sp, #12]
   83800:	483d      	ldr	r0, [pc, #244]	; (838f8 <main+0x134>)
   83802:	493e      	ldr	r1, [pc, #248]	; (838fc <main+0x138>)
   83804:	f44f 6280 	mov.w	r2, #1024	; 0x400
   83808:	4c3d      	ldr	r4, [pc, #244]	; (83900 <main+0x13c>)
   8380a:	47a0      	blx	r4
   8380c:	2801      	cmp	r0, #1
   8380e:	d002      	beq.n	83816 <main+0x52>
		printf("Failed to create TaskDriveLeftRight\n");
   83810:	483c      	ldr	r0, [pc, #240]	; (83904 <main+0x140>)
   83812:	4b3d      	ldr	r3, [pc, #244]	; (83908 <main+0x144>)
   83814:	4798      	blx	r3
	}
	if (xTaskCreate(TaskMatLab, (const signed char * const) "TaskDriveForward", 1024, NULL, 1, NULL) != pdPASS){
   83816:	2301      	movs	r3, #1
   83818:	9300      	str	r3, [sp, #0]
   8381a:	2300      	movs	r3, #0
   8381c:	9301      	str	r3, [sp, #4]
   8381e:	9302      	str	r3, [sp, #8]
   83820:	9303      	str	r3, [sp, #12]
   83822:	483a      	ldr	r0, [pc, #232]	; (8390c <main+0x148>)
   83824:	493a      	ldr	r1, [pc, #232]	; (83910 <main+0x14c>)
   83826:	f44f 6280 	mov.w	r2, #1024	; 0x400
   8382a:	4c35      	ldr	r4, [pc, #212]	; (83900 <main+0x13c>)
   8382c:	47a0      	blx	r4
   8382e:	2801      	cmp	r0, #1
   83830:	d002      	beq.n	83838 <main+0x74>
		printf("Failed to create TaskDriveForward\n");
   83832:	4838      	ldr	r0, [pc, #224]	; (83914 <main+0x150>)
   83834:	4b34      	ldr	r3, [pc, #208]	; (83908 <main+0x144>)
   83836:	4798      	blx	r3
	}
	if (xTaskCreate(TaskPIDLeft, (const signed char * const) "TaskDriveForward", 1024, NULL, 5, NULL) != pdPASS){
   83838:	2305      	movs	r3, #5
   8383a:	9300      	str	r3, [sp, #0]
   8383c:	2300      	movs	r3, #0
   8383e:	9301      	str	r3, [sp, #4]
   83840:	9302      	str	r3, [sp, #8]
   83842:	9303      	str	r3, [sp, #12]
   83844:	4834      	ldr	r0, [pc, #208]	; (83918 <main+0x154>)
   83846:	4932      	ldr	r1, [pc, #200]	; (83910 <main+0x14c>)
   83848:	f44f 6280 	mov.w	r2, #1024	; 0x400
   8384c:	4c2c      	ldr	r4, [pc, #176]	; (83900 <main+0x13c>)
   8384e:	47a0      	blx	r4
   83850:	2801      	cmp	r0, #1
   83852:	d002      	beq.n	8385a <main+0x96>
		printf("Failed to create TaskDriveForward\n");
   83854:	482f      	ldr	r0, [pc, #188]	; (83914 <main+0x150>)
   83856:	4b2c      	ldr	r3, [pc, #176]	; (83908 <main+0x144>)
   83858:	4798      	blx	r3
	}
	if (xTaskCreate(TaskPIDRight, (const signed char * const) "TaskDriveForward", 1024, NULL, 2, NULL) != pdPASS){
   8385a:	2302      	movs	r3, #2
   8385c:	9300      	str	r3, [sp, #0]
   8385e:	2300      	movs	r3, #0
   83860:	9301      	str	r3, [sp, #4]
   83862:	9302      	str	r3, [sp, #8]
   83864:	9303      	str	r3, [sp, #12]
   83866:	482d      	ldr	r0, [pc, #180]	; (8391c <main+0x158>)
   83868:	4929      	ldr	r1, [pc, #164]	; (83910 <main+0x14c>)
   8386a:	f44f 6280 	mov.w	r2, #1024	; 0x400
   8386e:	4c24      	ldr	r4, [pc, #144]	; (83900 <main+0x13c>)
   83870:	47a0      	blx	r4
   83872:	2801      	cmp	r0, #1
   83874:	d002      	beq.n	8387c <main+0xb8>
		printf("Failed to create TaskDriveForward\n");
   83876:	4827      	ldr	r0, [pc, #156]	; (83914 <main+0x150>)
   83878:	4b23      	ldr	r3, [pc, #140]	; (83908 <main+0x144>)
   8387a:	4798      	blx	r3
	}
	if (xTaskCreate(TaskCalculateLeftWheel, (const signed char * const) "TaskCal", 1024, NULL, 4, NULL) != pdPASS){
   8387c:	2304      	movs	r3, #4
   8387e:	9300      	str	r3, [sp, #0]
   83880:	2300      	movs	r3, #0
   83882:	9301      	str	r3, [sp, #4]
   83884:	9302      	str	r3, [sp, #8]
   83886:	9303      	str	r3, [sp, #12]
   83888:	4825      	ldr	r0, [pc, #148]	; (83920 <main+0x15c>)
   8388a:	4926      	ldr	r1, [pc, #152]	; (83924 <main+0x160>)
   8388c:	f44f 6280 	mov.w	r2, #1024	; 0x400
   83890:	4c1b      	ldr	r4, [pc, #108]	; (83900 <main+0x13c>)
   83892:	47a0      	blx	r4
   83894:	2801      	cmp	r0, #1
   83896:	d002      	beq.n	8389e <main+0xda>
		printf("Failed to create TaskCalculateLeftWheel\n");
   83898:	4823      	ldr	r0, [pc, #140]	; (83928 <main+0x164>)
   8389a:	4b1b      	ldr	r3, [pc, #108]	; (83908 <main+0x144>)
   8389c:	4798      	blx	r3
	}
	if (xTaskCreate(TaskCalculateRightWheel, (const signed char * const) "TaskCal", 1024, NULL, 5, NULL) != pdPASS){
   8389e:	2305      	movs	r3, #5
   838a0:	9300      	str	r3, [sp, #0]
   838a2:	2300      	movs	r3, #0
   838a4:	9301      	str	r3, [sp, #4]
   838a6:	9302      	str	r3, [sp, #8]
   838a8:	9303      	str	r3, [sp, #12]
   838aa:	4820      	ldr	r0, [pc, #128]	; (8392c <main+0x168>)
   838ac:	491d      	ldr	r1, [pc, #116]	; (83924 <main+0x160>)
   838ae:	f44f 6280 	mov.w	r2, #1024	; 0x400
   838b2:	4c13      	ldr	r4, [pc, #76]	; (83900 <main+0x13c>)
   838b4:	47a0      	blx	r4
   838b6:	2801      	cmp	r0, #1
   838b8:	d002      	beq.n	838c0 <main+0xfc>
		printf("Failed to create TaskCalculateLeftWheel\n");
   838ba:	481b      	ldr	r0, [pc, #108]	; (83928 <main+0x164>)
   838bc:	4b12      	ldr	r3, [pc, #72]	; (83908 <main+0x144>)
   838be:	4798      	blx	r3
	}
	
	vTaskStartScheduler();
   838c0:	4b1b      	ldr	r3, [pc, #108]	; (83930 <main+0x16c>)
   838c2:	4798      	blx	r3
}
   838c4:	2000      	movs	r0, #0
   838c6:	b004      	add	sp, #16
   838c8:	bd10      	pop	{r4, pc}
   838ca:	bf00      	nop
   838cc:	00081379 	.word	0x00081379
   838d0:	00081535 	.word	0x00081535
   838d4:	000812c9 	.word	0x000812c9
   838d8:	00080411 	.word	0x00080411
   838dc:	00083745 	.word	0x00083745
   838e0:	000809a9 	.word	0x000809a9
   838e4:	00080181 	.word	0x00080181
   838e8:	0008024d 	.word	0x0008024d
   838ec:	000801b9 	.word	0x000801b9
   838f0:	00080285 	.word	0x00080285
   838f4:	0008037d 	.word	0x0008037d
   838f8:	00080bb5 	.word	0x00080bb5
   838fc:	00086fec 	.word	0x00086fec
   83900:	000828d9 	.word	0x000828d9
   83904:	00087000 	.word	0x00087000
   83908:	000839a5 	.word	0x000839a5
   8390c:	00080479 	.word	0x00080479
   83910:	00087028 	.word	0x00087028
   83914:	0008703c 	.word	0x0008703c
   83918:	00081161 	.word	0x00081161
   8391c:	000807e9 	.word	0x000807e9
   83920:	000809ed 	.word	0x000809ed
   83924:	00087060 	.word	0x00087060
   83928:	00087068 	.word	0x00087068
   8392c:	00080ad1 	.word	0x00080ad1
   83930:	00082ae1 	.word	0x00082ae1

00083934 <__libc_init_array>:
   83934:	b570      	push	{r4, r5, r6, lr}
   83936:	4b0e      	ldr	r3, [pc, #56]	; (83970 <__libc_init_array+0x3c>)
   83938:	4d0e      	ldr	r5, [pc, #56]	; (83974 <__libc_init_array+0x40>)
   8393a:	2400      	movs	r4, #0
   8393c:	1aed      	subs	r5, r5, r3
   8393e:	10ad      	asrs	r5, r5, #2
   83940:	461e      	mov	r6, r3
   83942:	42ac      	cmp	r4, r5
   83944:	d004      	beq.n	83950 <__libc_init_array+0x1c>
   83946:	f856 2024 	ldr.w	r2, [r6, r4, lsl #2]
   8394a:	4790      	blx	r2
   8394c:	3401      	adds	r4, #1
   8394e:	e7f8      	b.n	83942 <__libc_init_array+0xe>
   83950:	f003 fc80 	bl	87254 <_init>
   83954:	4d08      	ldr	r5, [pc, #32]	; (83978 <__libc_init_array+0x44>)
   83956:	4b09      	ldr	r3, [pc, #36]	; (8397c <__libc_init_array+0x48>)
   83958:	2400      	movs	r4, #0
   8395a:	1aed      	subs	r5, r5, r3
   8395c:	10ad      	asrs	r5, r5, #2
   8395e:	461e      	mov	r6, r3
   83960:	42ac      	cmp	r4, r5
   83962:	d004      	beq.n	8396e <__libc_init_array+0x3a>
   83964:	f856 2024 	ldr.w	r2, [r6, r4, lsl #2]
   83968:	4790      	blx	r2
   8396a:	3401      	adds	r4, #1
   8396c:	e7f8      	b.n	83960 <__libc_init_array+0x2c>
   8396e:	bd70      	pop	{r4, r5, r6, pc}
   83970:	00087260 	.word	0x00087260
   83974:	00087260 	.word	0x00087260
   83978:	00087264 	.word	0x00087264
   8397c:	00087260 	.word	0x00087260

00083980 <memcpy>:
   83980:	b510      	push	{r4, lr}
   83982:	2300      	movs	r3, #0
   83984:	4293      	cmp	r3, r2
   83986:	d003      	beq.n	83990 <memcpy+0x10>
   83988:	5ccc      	ldrb	r4, [r1, r3]
   8398a:	54c4      	strb	r4, [r0, r3]
   8398c:	3301      	adds	r3, #1
   8398e:	e7f9      	b.n	83984 <memcpy+0x4>
   83990:	bd10      	pop	{r4, pc}

00083992 <memset>:
   83992:	4402      	add	r2, r0
   83994:	4603      	mov	r3, r0
   83996:	4293      	cmp	r3, r2
   83998:	d002      	beq.n	839a0 <memset+0xe>
   8399a:	f803 1b01 	strb.w	r1, [r3], #1
   8399e:	e7fa      	b.n	83996 <memset+0x4>
   839a0:	4770      	bx	lr
	...

000839a4 <iprintf>:
   839a4:	b40f      	push	{r0, r1, r2, r3}
   839a6:	4b0a      	ldr	r3, [pc, #40]	; (839d0 <iprintf+0x2c>)
   839a8:	b513      	push	{r0, r1, r4, lr}
   839aa:	681c      	ldr	r4, [r3, #0]
   839ac:	b124      	cbz	r4, 839b8 <iprintf+0x14>
   839ae:	69a3      	ldr	r3, [r4, #24]
   839b0:	b913      	cbnz	r3, 839b8 <iprintf+0x14>
   839b2:	4620      	mov	r0, r4
   839b4:	f001 fe22 	bl	855fc <__sinit>
   839b8:	ab05      	add	r3, sp, #20
   839ba:	4620      	mov	r0, r4
   839bc:	68a1      	ldr	r1, [r4, #8]
   839be:	9a04      	ldr	r2, [sp, #16]
   839c0:	9301      	str	r3, [sp, #4]
   839c2:	f000 f8d9 	bl	83b78 <_vfiprintf_r>
   839c6:	b002      	add	sp, #8
   839c8:	e8bd 4010 	ldmia.w	sp!, {r4, lr}
   839cc:	b004      	add	sp, #16
   839ce:	4770      	bx	lr
   839d0:	200701b0 	.word	0x200701b0

000839d4 <setbuf>:
   839d4:	2900      	cmp	r1, #0
   839d6:	bf0c      	ite	eq
   839d8:	2202      	moveq	r2, #2
   839da:	2200      	movne	r2, #0
   839dc:	f44f 6380 	mov.w	r3, #1024	; 0x400
   839e0:	f000 b800 	b.w	839e4 <setvbuf>

000839e4 <setvbuf>:
   839e4:	e92d 41f0 	stmdb	sp!, {r4, r5, r6, r7, r8, lr}
   839e8:	461e      	mov	r6, r3
   839ea:	4b3d      	ldr	r3, [pc, #244]	; (83ae0 <setvbuf+0xfc>)
   839ec:	4604      	mov	r4, r0
   839ee:	681d      	ldr	r5, [r3, #0]
   839f0:	460f      	mov	r7, r1
   839f2:	4690      	mov	r8, r2
   839f4:	b125      	cbz	r5, 83a00 <setvbuf+0x1c>
   839f6:	69ab      	ldr	r3, [r5, #24]
   839f8:	b913      	cbnz	r3, 83a00 <setvbuf+0x1c>
   839fa:	4628      	mov	r0, r5
   839fc:	f001 fdfe 	bl	855fc <__sinit>
   83a00:	4b38      	ldr	r3, [pc, #224]	; (83ae4 <setvbuf+0x100>)
   83a02:	429c      	cmp	r4, r3
   83a04:	d101      	bne.n	83a0a <setvbuf+0x26>
   83a06:	686c      	ldr	r4, [r5, #4]
   83a08:	e008      	b.n	83a1c <setvbuf+0x38>
   83a0a:	4b37      	ldr	r3, [pc, #220]	; (83ae8 <setvbuf+0x104>)
   83a0c:	429c      	cmp	r4, r3
   83a0e:	d101      	bne.n	83a14 <setvbuf+0x30>
   83a10:	68ac      	ldr	r4, [r5, #8]
   83a12:	e003      	b.n	83a1c <setvbuf+0x38>
   83a14:	4b35      	ldr	r3, [pc, #212]	; (83aec <setvbuf+0x108>)
   83a16:	429c      	cmp	r4, r3
   83a18:	bf08      	it	eq
   83a1a:	68ec      	ldreq	r4, [r5, #12]
   83a1c:	f1b8 0f02 	cmp.w	r8, #2
   83a20:	d859      	bhi.n	83ad6 <setvbuf+0xf2>
   83a22:	2e00      	cmp	r6, #0
   83a24:	db57      	blt.n	83ad6 <setvbuf+0xf2>
   83a26:	4628      	mov	r0, r5
   83a28:	4621      	mov	r1, r4
   83a2a:	f001 fd69 	bl	85500 <_fflush_r>
   83a2e:	2300      	movs	r3, #0
   83a30:	6063      	str	r3, [r4, #4]
   83a32:	61a3      	str	r3, [r4, #24]
   83a34:	89a3      	ldrh	r3, [r4, #12]
   83a36:	061b      	lsls	r3, r3, #24
   83a38:	d503      	bpl.n	83a42 <setvbuf+0x5e>
   83a3a:	4628      	mov	r0, r5
   83a3c:	6921      	ldr	r1, [r4, #16]
   83a3e:	f002 f99f 	bl	85d80 <_free_r>
   83a42:	89a3      	ldrh	r3, [r4, #12]
   83a44:	f1b8 0f02 	cmp.w	r8, #2
   83a48:	f023 0383 	bic.w	r3, r3, #131	; 0x83
   83a4c:	81a3      	strh	r3, [r4, #12]
   83a4e:	d012      	beq.n	83a76 <setvbuf+0x92>
   83a50:	bb37      	cbnz	r7, 83aa0 <setvbuf+0xbc>
   83a52:	2e00      	cmp	r6, #0
   83a54:	bf08      	it	eq
   83a56:	f44f 6680 	moveq.w	r6, #1024	; 0x400
   83a5a:	4630      	mov	r0, r6
   83a5c:	f001 fe88 	bl	85770 <malloc>
   83a60:	4607      	mov	r7, r0
   83a62:	b9c8      	cbnz	r0, 83a98 <setvbuf+0xb4>
   83a64:	f44f 6080 	mov.w	r0, #1024	; 0x400
   83a68:	f001 fe82 	bl	85770 <malloc>
   83a6c:	4607      	mov	r7, r0
   83a6e:	b988      	cbnz	r0, 83a94 <setvbuf+0xb0>
   83a70:	f04f 30ff 	mov.w	r0, #4294967295
   83a74:	e000      	b.n	83a78 <setvbuf+0x94>
   83a76:	2000      	movs	r0, #0
   83a78:	89a3      	ldrh	r3, [r4, #12]
   83a7a:	f043 0302 	orr.w	r3, r3, #2
   83a7e:	81a3      	strh	r3, [r4, #12]
   83a80:	2300      	movs	r3, #0
   83a82:	60a3      	str	r3, [r4, #8]
   83a84:	f104 0347 	add.w	r3, r4, #71	; 0x47
   83a88:	6023      	str	r3, [r4, #0]
   83a8a:	6123      	str	r3, [r4, #16]
   83a8c:	2301      	movs	r3, #1
   83a8e:	6163      	str	r3, [r4, #20]
   83a90:	e8bd 81f0 	ldmia.w	sp!, {r4, r5, r6, r7, r8, pc}
   83a94:	f44f 6680 	mov.w	r6, #1024	; 0x400
   83a98:	89a3      	ldrh	r3, [r4, #12]
   83a9a:	f043 0380 	orr.w	r3, r3, #128	; 0x80
   83a9e:	81a3      	strh	r3, [r4, #12]
   83aa0:	f1b8 0f01 	cmp.w	r8, #1
   83aa4:	d105      	bne.n	83ab2 <setvbuf+0xce>
   83aa6:	89a3      	ldrh	r3, [r4, #12]
   83aa8:	f043 0301 	orr.w	r3, r3, #1
   83aac:	81a3      	strh	r3, [r4, #12]
   83aae:	4273      	negs	r3, r6
   83ab0:	61a3      	str	r3, [r4, #24]
   83ab2:	4b0f      	ldr	r3, [pc, #60]	; (83af0 <setvbuf+0x10c>)
   83ab4:	62ab      	str	r3, [r5, #40]	; 0x28
   83ab6:	89a3      	ldrh	r3, [r4, #12]
   83ab8:	6027      	str	r7, [r4, #0]
   83aba:	f003 0008 	and.w	r0, r3, #8
   83abe:	b280      	uxth	r0, r0
   83ac0:	6127      	str	r7, [r4, #16]
   83ac2:	6166      	str	r6, [r4, #20]
   83ac4:	b148      	cbz	r0, 83ada <setvbuf+0xf6>
   83ac6:	f013 0f03 	tst.w	r3, #3
   83aca:	bf18      	it	ne
   83acc:	2600      	movne	r6, #0
   83ace:	60a6      	str	r6, [r4, #8]
   83ad0:	2000      	movs	r0, #0
   83ad2:	e8bd 81f0 	ldmia.w	sp!, {r4, r5, r6, r7, r8, pc}
   83ad6:	f04f 30ff 	mov.w	r0, #4294967295
   83ada:	e8bd 81f0 	ldmia.w	sp!, {r4, r5, r6, r7, r8, pc}
   83ade:	bf00      	nop
   83ae0:	200701b0 	.word	0x200701b0
   83ae4:	000870f0 	.word	0x000870f0
   83ae8:	00087110 	.word	0x00087110
   83aec:	00087130 	.word	0x00087130
   83af0:	00085555 	.word	0x00085555

00083af4 <strlen>:
   83af4:	4603      	mov	r3, r0
   83af6:	f813 2b01 	ldrb.w	r2, [r3], #1
   83afa:	2a00      	cmp	r2, #0
   83afc:	d1fb      	bne.n	83af6 <strlen+0x2>
   83afe:	1a18      	subs	r0, r3, r0
   83b00:	3801      	subs	r0, #1
   83b02:	4770      	bx	lr

00083b04 <strncpy>:
   83b04:	b510      	push	{r4, lr}
   83b06:	4603      	mov	r3, r0
   83b08:	b132      	cbz	r2, 83b18 <strncpy+0x14>
   83b0a:	f811 4b01 	ldrb.w	r4, [r1], #1
   83b0e:	3a01      	subs	r2, #1
   83b10:	f803 4b01 	strb.w	r4, [r3], #1
   83b14:	2c00      	cmp	r4, #0
   83b16:	d1f7      	bne.n	83b08 <strncpy+0x4>
   83b18:	441a      	add	r2, r3
   83b1a:	4293      	cmp	r3, r2
   83b1c:	d003      	beq.n	83b26 <strncpy+0x22>
   83b1e:	2100      	movs	r1, #0
   83b20:	f803 1b01 	strb.w	r1, [r3], #1
   83b24:	e7f9      	b.n	83b1a <strncpy+0x16>
   83b26:	bd10      	pop	{r4, pc}

00083b28 <__sfputc_r>:
   83b28:	6893      	ldr	r3, [r2, #8]
   83b2a:	b510      	push	{r4, lr}
   83b2c:	3b01      	subs	r3, #1
   83b2e:	2b00      	cmp	r3, #0
   83b30:	6093      	str	r3, [r2, #8]
   83b32:	da05      	bge.n	83b40 <__sfputc_r+0x18>
   83b34:	6994      	ldr	r4, [r2, #24]
   83b36:	42a3      	cmp	r3, r4
   83b38:	db08      	blt.n	83b4c <__sfputc_r+0x24>
   83b3a:	b2cb      	uxtb	r3, r1
   83b3c:	2b0a      	cmp	r3, #10
   83b3e:	d005      	beq.n	83b4c <__sfputc_r+0x24>
   83b40:	6813      	ldr	r3, [r2, #0]
   83b42:	1c58      	adds	r0, r3, #1
   83b44:	6010      	str	r0, [r2, #0]
   83b46:	7019      	strb	r1, [r3, #0]
   83b48:	b2c8      	uxtb	r0, r1
   83b4a:	bd10      	pop	{r4, pc}
   83b4c:	e8bd 4010 	ldmia.w	sp!, {r4, lr}
   83b50:	f000 bd3e 	b.w	845d0 <__swbuf_r>

00083b54 <__sfputs_r>:
   83b54:	b5f8      	push	{r3, r4, r5, r6, r7, lr}
   83b56:	4605      	mov	r5, r0
   83b58:	460e      	mov	r6, r1
   83b5a:	4614      	mov	r4, r2
   83b5c:	18d7      	adds	r7, r2, r3
   83b5e:	42bc      	cmp	r4, r7
   83b60:	d008      	beq.n	83b74 <__sfputs_r+0x20>
   83b62:	4628      	mov	r0, r5
   83b64:	f814 1b01 	ldrb.w	r1, [r4], #1
   83b68:	4632      	mov	r2, r6
   83b6a:	f7ff ffdd 	bl	83b28 <__sfputc_r>
   83b6e:	1c43      	adds	r3, r0, #1
   83b70:	d1f5      	bne.n	83b5e <__sfputs_r+0xa>
   83b72:	e000      	b.n	83b76 <__sfputs_r+0x22>
   83b74:	2000      	movs	r0, #0
   83b76:	bdf8      	pop	{r3, r4, r5, r6, r7, pc}

00083b78 <_vfiprintf_r>:
   83b78:	e92d 43f0 	stmdb	sp!, {r4, r5, r6, r7, r8, r9, lr}
   83b7c:	b09d      	sub	sp, #116	; 0x74
   83b7e:	460d      	mov	r5, r1
   83b80:	4617      	mov	r7, r2
   83b82:	9303      	str	r3, [sp, #12]
   83b84:	4606      	mov	r6, r0
   83b86:	b118      	cbz	r0, 83b90 <_vfiprintf_r+0x18>
   83b88:	6983      	ldr	r3, [r0, #24]
   83b8a:	b90b      	cbnz	r3, 83b90 <_vfiprintf_r+0x18>
   83b8c:	f001 fd36 	bl	855fc <__sinit>
   83b90:	4b73      	ldr	r3, [pc, #460]	; (83d60 <_vfiprintf_r+0x1e8>)
   83b92:	429d      	cmp	r5, r3
   83b94:	d101      	bne.n	83b9a <_vfiprintf_r+0x22>
   83b96:	6875      	ldr	r5, [r6, #4]
   83b98:	e008      	b.n	83bac <_vfiprintf_r+0x34>
   83b9a:	4b72      	ldr	r3, [pc, #456]	; (83d64 <_vfiprintf_r+0x1ec>)
   83b9c:	429d      	cmp	r5, r3
   83b9e:	d101      	bne.n	83ba4 <_vfiprintf_r+0x2c>
   83ba0:	68b5      	ldr	r5, [r6, #8]
   83ba2:	e003      	b.n	83bac <_vfiprintf_r+0x34>
   83ba4:	4b70      	ldr	r3, [pc, #448]	; (83d68 <_vfiprintf_r+0x1f0>)
   83ba6:	429d      	cmp	r5, r3
   83ba8:	bf08      	it	eq
   83baa:	68f5      	ldreq	r5, [r6, #12]
   83bac:	89ab      	ldrh	r3, [r5, #12]
   83bae:	0718      	lsls	r0, r3, #28
   83bb0:	d50a      	bpl.n	83bc8 <_vfiprintf_r+0x50>
   83bb2:	692b      	ldr	r3, [r5, #16]
   83bb4:	b143      	cbz	r3, 83bc8 <_vfiprintf_r+0x50>
   83bb6:	2300      	movs	r3, #0
   83bb8:	9309      	str	r3, [sp, #36]	; 0x24
   83bba:	2320      	movs	r3, #32
   83bbc:	f88d 3029 	strb.w	r3, [sp, #41]	; 0x29
   83bc0:	2330      	movs	r3, #48	; 0x30
   83bc2:	f88d 302a 	strb.w	r3, [sp, #42]	; 0x2a
   83bc6:	e038      	b.n	83c3a <_vfiprintf_r+0xc2>
   83bc8:	4630      	mov	r0, r6
   83bca:	4629      	mov	r1, r5
   83bcc:	f000 fd54 	bl	84678 <__swsetup_r>
   83bd0:	2800      	cmp	r0, #0
   83bd2:	d0f0      	beq.n	83bb6 <_vfiprintf_r+0x3e>
   83bd4:	f04f 30ff 	mov.w	r0, #4294967295
   83bd8:	e0be      	b.n	83d58 <_vfiprintf_r+0x1e0>
   83bda:	9a03      	ldr	r2, [sp, #12]
   83bdc:	1d11      	adds	r1, r2, #4
   83bde:	6812      	ldr	r2, [r2, #0]
   83be0:	9103      	str	r1, [sp, #12]
   83be2:	2a00      	cmp	r2, #0
   83be4:	db70      	blt.n	83cc8 <_vfiprintf_r+0x150>
   83be6:	9207      	str	r2, [sp, #28]
   83be8:	3401      	adds	r4, #1
   83bea:	7823      	ldrb	r3, [r4, #0]
   83bec:	2b2e      	cmp	r3, #46	; 0x2e
   83bee:	d07d      	beq.n	83cec <_vfiprintf_r+0x174>
   83bf0:	4f5e      	ldr	r7, [pc, #376]	; (83d6c <_vfiprintf_r+0x1f4>)
   83bf2:	7821      	ldrb	r1, [r4, #0]
   83bf4:	4638      	mov	r0, r7
   83bf6:	2203      	movs	r2, #3
   83bf8:	f001 fdc2 	bl	85780 <memchr>
   83bfc:	b130      	cbz	r0, 83c0c <_vfiprintf_r+0x94>
   83bfe:	1bc7      	subs	r7, r0, r7
   83c00:	2040      	movs	r0, #64	; 0x40
   83c02:	40b8      	lsls	r0, r7
   83c04:	9b04      	ldr	r3, [sp, #16]
   83c06:	3401      	adds	r4, #1
   83c08:	4303      	orrs	r3, r0
   83c0a:	9304      	str	r3, [sp, #16]
   83c0c:	7821      	ldrb	r1, [r4, #0]
   83c0e:	4858      	ldr	r0, [pc, #352]	; (83d70 <_vfiprintf_r+0x1f8>)
   83c10:	2206      	movs	r2, #6
   83c12:	1c67      	adds	r7, r4, #1
   83c14:	f88d 1028 	strb.w	r1, [sp, #40]	; 0x28
   83c18:	f001 fdb2 	bl	85780 <memchr>
   83c1c:	2800      	cmp	r0, #0
   83c1e:	f000 8089 	beq.w	83d34 <_vfiprintf_r+0x1bc>
   83c22:	4b54      	ldr	r3, [pc, #336]	; (83d74 <_vfiprintf_r+0x1fc>)
   83c24:	2b00      	cmp	r3, #0
   83c26:	d17c      	bne.n	83d22 <_vfiprintf_r+0x1aa>
   83c28:	9b03      	ldr	r3, [sp, #12]
   83c2a:	3307      	adds	r3, #7
   83c2c:	f023 0307 	bic.w	r3, r3, #7
   83c30:	3308      	adds	r3, #8
   83c32:	9303      	str	r3, [sp, #12]
   83c34:	9b09      	ldr	r3, [sp, #36]	; 0x24
   83c36:	4443      	add	r3, r8
   83c38:	9309      	str	r3, [sp, #36]	; 0x24
   83c3a:	463b      	mov	r3, r7
   83c3c:	461c      	mov	r4, r3
   83c3e:	f813 2b01 	ldrb.w	r2, [r3], #1
   83c42:	b91a      	cbnz	r2, 83c4c <_vfiprintf_r+0xd4>
   83c44:	ebb4 0907 	subs.w	r9, r4, r7
   83c48:	d00e      	beq.n	83c68 <_vfiprintf_r+0xf0>
   83c4a:	e002      	b.n	83c52 <_vfiprintf_r+0xda>
   83c4c:	2a25      	cmp	r2, #37	; 0x25
   83c4e:	d1f5      	bne.n	83c3c <_vfiprintf_r+0xc4>
   83c50:	e7f8      	b.n	83c44 <_vfiprintf_r+0xcc>
   83c52:	4630      	mov	r0, r6
   83c54:	4629      	mov	r1, r5
   83c56:	463a      	mov	r2, r7
   83c58:	464b      	mov	r3, r9
   83c5a:	f7ff ff7b 	bl	83b54 <__sfputs_r>
   83c5e:	3001      	adds	r0, #1
   83c60:	d075      	beq.n	83d4e <_vfiprintf_r+0x1d6>
   83c62:	9b09      	ldr	r3, [sp, #36]	; 0x24
   83c64:	444b      	add	r3, r9
   83c66:	9309      	str	r3, [sp, #36]	; 0x24
   83c68:	7823      	ldrb	r3, [r4, #0]
   83c6a:	2b00      	cmp	r3, #0
   83c6c:	d06f      	beq.n	83d4e <_vfiprintf_r+0x1d6>
   83c6e:	2300      	movs	r3, #0
   83c70:	f04f 32ff 	mov.w	r2, #4294967295
   83c74:	9304      	str	r3, [sp, #16]
   83c76:	9307      	str	r3, [sp, #28]
   83c78:	9205      	str	r2, [sp, #20]
   83c7a:	9306      	str	r3, [sp, #24]
   83c7c:	f88d 3053 	strb.w	r3, [sp, #83]	; 0x53
   83c80:	931a      	str	r3, [sp, #104]	; 0x68
   83c82:	f104 0901 	add.w	r9, r4, #1
   83c86:	4f3c      	ldr	r7, [pc, #240]	; (83d78 <_vfiprintf_r+0x200>)
   83c88:	464c      	mov	r4, r9
   83c8a:	4638      	mov	r0, r7
   83c8c:	7821      	ldrb	r1, [r4, #0]
   83c8e:	2205      	movs	r2, #5
   83c90:	f001 fd76 	bl	85780 <memchr>
   83c94:	f109 0901 	add.w	r9, r9, #1
   83c98:	9b04      	ldr	r3, [sp, #16]
   83c9a:	b128      	cbz	r0, 83ca8 <_vfiprintf_r+0x130>
   83c9c:	1bc7      	subs	r7, r0, r7
   83c9e:	2001      	movs	r0, #1
   83ca0:	40b8      	lsls	r0, r7
   83ca2:	4303      	orrs	r3, r0
   83ca4:	9304      	str	r3, [sp, #16]
   83ca6:	e7ee      	b.n	83c86 <_vfiprintf_r+0x10e>
   83ca8:	06d9      	lsls	r1, r3, #27
   83caa:	bf44      	itt	mi
   83cac:	2220      	movmi	r2, #32
   83cae:	f88d 2053 	strbmi.w	r2, [sp, #83]	; 0x53
   83cb2:	071a      	lsls	r2, r3, #28
   83cb4:	bf44      	itt	mi
   83cb6:	222b      	movmi	r2, #43	; 0x2b
   83cb8:	f88d 2053 	strbmi.w	r2, [sp, #83]	; 0x53
   83cbc:	7822      	ldrb	r2, [r4, #0]
   83cbe:	2a2a      	cmp	r2, #42	; 0x2a
   83cc0:	d08b      	beq.n	83bda <_vfiprintf_r+0x62>
   83cc2:	9b07      	ldr	r3, [sp, #28]
   83cc4:	4621      	mov	r1, r4
   83cc6:	e005      	b.n	83cd4 <_vfiprintf_r+0x15c>
   83cc8:	4252      	negs	r2, r2
   83cca:	f043 0302 	orr.w	r3, r3, #2
   83cce:	9207      	str	r2, [sp, #28]
   83cd0:	9304      	str	r3, [sp, #16]
   83cd2:	e789      	b.n	83be8 <_vfiprintf_r+0x70>
   83cd4:	460c      	mov	r4, r1
   83cd6:	7822      	ldrb	r2, [r4, #0]
   83cd8:	3101      	adds	r1, #1
   83cda:	3a30      	subs	r2, #48	; 0x30
   83cdc:	2a09      	cmp	r2, #9
   83cde:	d803      	bhi.n	83ce8 <_vfiprintf_r+0x170>
   83ce0:	200a      	movs	r0, #10
   83ce2:	fb00 2303 	mla	r3, r0, r3, r2
   83ce6:	e7f5      	b.n	83cd4 <_vfiprintf_r+0x15c>
   83ce8:	9307      	str	r3, [sp, #28]
   83cea:	e77e      	b.n	83bea <_vfiprintf_r+0x72>
   83cec:	7863      	ldrb	r3, [r4, #1]
   83cee:	2b2a      	cmp	r3, #42	; 0x2a
   83cf0:	d109      	bne.n	83d06 <_vfiprintf_r+0x18e>
   83cf2:	9b03      	ldr	r3, [sp, #12]
   83cf4:	3402      	adds	r4, #2
   83cf6:	1d1a      	adds	r2, r3, #4
   83cf8:	681b      	ldr	r3, [r3, #0]
   83cfa:	9203      	str	r2, [sp, #12]
   83cfc:	2b00      	cmp	r3, #0
   83cfe:	bfb8      	it	lt
   83d00:	f04f 33ff 	movlt.w	r3, #4294967295
   83d04:	e00b      	b.n	83d1e <_vfiprintf_r+0x1a6>
   83d06:	1c61      	adds	r1, r4, #1
   83d08:	2300      	movs	r3, #0
   83d0a:	460c      	mov	r4, r1
   83d0c:	7822      	ldrb	r2, [r4, #0]
   83d0e:	3101      	adds	r1, #1
   83d10:	3a30      	subs	r2, #48	; 0x30
   83d12:	2a09      	cmp	r2, #9
   83d14:	d803      	bhi.n	83d1e <_vfiprintf_r+0x1a6>
   83d16:	200a      	movs	r0, #10
   83d18:	fb00 2303 	mla	r3, r0, r3, r2
   83d1c:	e7f5      	b.n	83d0a <_vfiprintf_r+0x192>
   83d1e:	9305      	str	r3, [sp, #20]
   83d20:	e766      	b.n	83bf0 <_vfiprintf_r+0x78>
   83d22:	ab03      	add	r3, sp, #12
   83d24:	9300      	str	r3, [sp, #0]
   83d26:	4630      	mov	r0, r6
   83d28:	a904      	add	r1, sp, #16
   83d2a:	462a      	mov	r2, r5
   83d2c:	4b13      	ldr	r3, [pc, #76]	; (83d7c <_vfiprintf_r+0x204>)
   83d2e:	f000 f8bb 	bl	83ea8 <_printf_float>
   83d32:	e007      	b.n	83d44 <_vfiprintf_r+0x1cc>
   83d34:	ab03      	add	r3, sp, #12
   83d36:	9300      	str	r3, [sp, #0]
   83d38:	4630      	mov	r0, r6
   83d3a:	a904      	add	r1, sp, #16
   83d3c:	462a      	mov	r2, r5
   83d3e:	4b0f      	ldr	r3, [pc, #60]	; (83d7c <_vfiprintf_r+0x204>)
   83d40:	f000 fb32 	bl	843a8 <_printf_i>
   83d44:	f1b0 3fff 	cmp.w	r0, #4294967295
   83d48:	4680      	mov	r8, r0
   83d4a:	f47f af73 	bne.w	83c34 <_vfiprintf_r+0xbc>
   83d4e:	89ab      	ldrh	r3, [r5, #12]
   83d50:	065b      	lsls	r3, r3, #25
   83d52:	f53f af3f 	bmi.w	83bd4 <_vfiprintf_r+0x5c>
   83d56:	9809      	ldr	r0, [sp, #36]	; 0x24
   83d58:	b01d      	add	sp, #116	; 0x74
   83d5a:	e8bd 83f0 	ldmia.w	sp!, {r4, r5, r6, r7, r8, r9, pc}
   83d5e:	bf00      	nop
   83d60:	000870f0 	.word	0x000870f0
   83d64:	00087110 	.word	0x00087110
   83d68:	00087130 	.word	0x00087130
   83d6c:	000870a2 	.word	0x000870a2
   83d70:	000870a6 	.word	0x000870a6
   83d74:	00083ea9 	.word	0x00083ea9
   83d78:	0008709c 	.word	0x0008709c
   83d7c:	00083b55 	.word	0x00083b55

00083d80 <__cvt>:
   83d80:	e92d 47f0 	stmdb	sp!, {r4, r5, r6, r7, r8, r9, sl, lr}
   83d84:	2b00      	cmp	r3, #0
   83d86:	b088      	sub	sp, #32
   83d88:	4614      	mov	r4, r2
   83d8a:	461d      	mov	r5, r3
   83d8c:	9e10      	ldr	r6, [sp, #64]	; 0x40
   83d8e:	9912      	ldr	r1, [sp, #72]	; 0x48
   83d90:	9f13      	ldr	r7, [sp, #76]	; 0x4c
   83d92:	da05      	bge.n	83da0 <__cvt+0x20>
   83d94:	f105 4300 	add.w	r3, r5, #2147483648	; 0x80000000
   83d98:	461d      	mov	r5, r3
   83d9a:	4614      	mov	r4, r2
   83d9c:	232d      	movs	r3, #45	; 0x2d
   83d9e:	e000      	b.n	83da2 <__cvt+0x22>
   83da0:	2300      	movs	r3, #0
   83da2:	700b      	strb	r3, [r1, #0]
   83da4:	9b14      	ldr	r3, [sp, #80]	; 0x50
   83da6:	f023 0a20 	bic.w	sl, r3, #32
   83daa:	f1ba 0f46 	cmp.w	sl, #70	; 0x46
   83dae:	d004      	beq.n	83dba <__cvt+0x3a>
   83db0:	f1ba 0f45 	cmp.w	sl, #69	; 0x45
   83db4:	d103      	bne.n	83dbe <__cvt+0x3e>
   83db6:	3601      	adds	r6, #1
   83db8:	e001      	b.n	83dbe <__cvt+0x3e>
   83dba:	2303      	movs	r3, #3
   83dbc:	e000      	b.n	83dc0 <__cvt+0x40>
   83dbe:	2302      	movs	r3, #2
   83dc0:	e88d 00c8 	stmia.w	sp, {r3, r6, r7}
   83dc4:	ab06      	add	r3, sp, #24
   83dc6:	9303      	str	r3, [sp, #12]
   83dc8:	ab07      	add	r3, sp, #28
   83dca:	9304      	str	r3, [sp, #16]
   83dcc:	4622      	mov	r2, r4
   83dce:	462b      	mov	r3, r5
   83dd0:	f000 fd52 	bl	84878 <_dtoa_r>
   83dd4:	f1ba 0f47 	cmp.w	sl, #71	; 0x47
   83dd8:	4680      	mov	r8, r0
   83dda:	d102      	bne.n	83de2 <__cvt+0x62>
   83ddc:	9b11      	ldr	r3, [sp, #68]	; 0x44
   83dde:	07db      	lsls	r3, r3, #31
   83de0:	d525      	bpl.n	83e2e <__cvt+0xae>
   83de2:	f1ba 0f46 	cmp.w	sl, #70	; 0x46
   83de6:	eb08 0906 	add.w	r9, r8, r6
   83dea:	d10f      	bne.n	83e0c <__cvt+0x8c>
   83dec:	f898 3000 	ldrb.w	r3, [r8]
   83df0:	2b30      	cmp	r3, #48	; 0x30
   83df2:	d109      	bne.n	83e08 <__cvt+0x88>
   83df4:	4620      	mov	r0, r4
   83df6:	4629      	mov	r1, r5
   83df8:	2200      	movs	r2, #0
   83dfa:	2300      	movs	r3, #0
   83dfc:	f002 fd56 	bl	868ac <__aeabi_dcmpeq>
   83e00:	b910      	cbnz	r0, 83e08 <__cvt+0x88>
   83e02:	f1c6 0601 	rsb	r6, r6, #1
   83e06:	603e      	str	r6, [r7, #0]
   83e08:	683b      	ldr	r3, [r7, #0]
   83e0a:	4499      	add	r9, r3
   83e0c:	4620      	mov	r0, r4
   83e0e:	4629      	mov	r1, r5
   83e10:	2200      	movs	r2, #0
   83e12:	2300      	movs	r3, #0
   83e14:	f002 fd4a 	bl	868ac <__aeabi_dcmpeq>
   83e18:	b108      	cbz	r0, 83e1e <__cvt+0x9e>
   83e1a:	f8cd 901c 	str.w	r9, [sp, #28]
   83e1e:	9b07      	ldr	r3, [sp, #28]
   83e20:	454b      	cmp	r3, r9
   83e22:	d204      	bcs.n	83e2e <__cvt+0xae>
   83e24:	1c5a      	adds	r2, r3, #1
   83e26:	9207      	str	r2, [sp, #28]
   83e28:	2230      	movs	r2, #48	; 0x30
   83e2a:	701a      	strb	r2, [r3, #0]
   83e2c:	e7f7      	b.n	83e1e <__cvt+0x9e>
   83e2e:	9b07      	ldr	r3, [sp, #28]
   83e30:	4640      	mov	r0, r8
   83e32:	ebc8 0203 	rsb	r2, r8, r3
   83e36:	9b15      	ldr	r3, [sp, #84]	; 0x54
   83e38:	601a      	str	r2, [r3, #0]
   83e3a:	b008      	add	sp, #32
   83e3c:	e8bd 87f0 	ldmia.w	sp!, {r4, r5, r6, r7, r8, r9, sl, pc}

00083e40 <__exponent>:
   83e40:	b573      	push	{r0, r1, r4, r5, r6, lr}
   83e42:	4603      	mov	r3, r0
   83e44:	2900      	cmp	r1, #0
   83e46:	f803 2b02 	strb.w	r2, [r3], #2
   83e4a:	da03      	bge.n	83e54 <__exponent+0x14>
   83e4c:	4249      	negs	r1, r1
   83e4e:	461a      	mov	r2, r3
   83e50:	242d      	movs	r4, #45	; 0x2d
   83e52:	e001      	b.n	83e58 <__exponent+0x18>
   83e54:	461a      	mov	r2, r3
   83e56:	242b      	movs	r4, #43	; 0x2b
   83e58:	2909      	cmp	r1, #9
   83e5a:	7044      	strb	r4, [r0, #1]
   83e5c:	dd1b      	ble.n	83e96 <__exponent+0x56>
   83e5e:	f10d 0406 	add.w	r4, sp, #6
   83e62:	260a      	movs	r6, #10
   83e64:	fb91 f5f6 	sdiv	r5, r1, r6
   83e68:	fb06 1115 	mls	r1, r6, r5, r1
   83e6c:	2d09      	cmp	r5, #9
   83e6e:	f101 0130 	add.w	r1, r1, #48	; 0x30
   83e72:	4623      	mov	r3, r4
   83e74:	f804 1901 	strb.w	r1, [r4], #-1
   83e78:	4629      	mov	r1, r5
   83e7a:	dcf2      	bgt.n	83e62 <__exponent+0x22>
   83e7c:	f105 0130 	add.w	r1, r5, #48	; 0x30
   83e80:	f803 1d01 	strb.w	r1, [r3, #-1]!
   83e84:	f10d 0107 	add.w	r1, sp, #7
   83e88:	428b      	cmp	r3, r1
   83e8a:	d20a      	bcs.n	83ea2 <__exponent+0x62>
   83e8c:	f813 1b01 	ldrb.w	r1, [r3], #1
   83e90:	f802 1b01 	strb.w	r1, [r2], #1
   83e94:	e7f6      	b.n	83e84 <__exponent+0x44>
   83e96:	2430      	movs	r4, #48	; 0x30
   83e98:	461a      	mov	r2, r3
   83e9a:	4421      	add	r1, r4
   83e9c:	f802 4b02 	strb.w	r4, [r2], #2
   83ea0:	7059      	strb	r1, [r3, #1]
   83ea2:	1a10      	subs	r0, r2, r0
   83ea4:	b002      	add	sp, #8
   83ea6:	bd70      	pop	{r4, r5, r6, pc}

00083ea8 <_printf_float>:
   83ea8:	e92d 4ff0 	stmdb	sp!, {r4, r5, r6, r7, r8, r9, sl, fp, lr}
   83eac:	b08f      	sub	sp, #60	; 0x3c
   83eae:	460c      	mov	r4, r1
   83eb0:	4616      	mov	r6, r2
   83eb2:	461f      	mov	r7, r3
   83eb4:	f8dd 9060 	ldr.w	r9, [sp, #96]	; 0x60
   83eb8:	4605      	mov	r5, r0
   83eba:	f001 fc09 	bl	856d0 <_localeconv_r>
   83ebe:	f8d0 a000 	ldr.w	sl, [r0]
   83ec2:	4650      	mov	r0, sl
   83ec4:	f7ff fe16 	bl	83af4 <strlen>
   83ec8:	2300      	movs	r3, #0
   83eca:	930c      	str	r3, [sp, #48]	; 0x30
   83ecc:	f8d9 3000 	ldr.w	r3, [r9]
   83ed0:	9009      	str	r0, [sp, #36]	; 0x24
   83ed2:	3307      	adds	r3, #7
   83ed4:	f023 0307 	bic.w	r3, r3, #7
   83ed8:	f103 0208 	add.w	r2, r3, #8
   83edc:	e9d3 0100 	ldrd	r0, r1, [r3]
   83ee0:	f894 8018 	ldrb.w	r8, [r4, #24]
   83ee4:	f8c9 2000 	str.w	r2, [r9]
   83ee8:	e9c4 0112 	strd	r0, r1, [r4, #72]	; 0x48
   83eec:	f001 ffe0 	bl	85eb0 <__fpclassifyd>
   83ef0:	2801      	cmp	r0, #1
   83ef2:	e9d4 0112 	ldrd	r0, r1, [r4, #72]	; 0x48
   83ef6:	d117      	bne.n	83f28 <_printf_float+0x80>
   83ef8:	2200      	movs	r2, #0
   83efa:	2300      	movs	r3, #0
   83efc:	f002 fce0 	bl	868c0 <__aeabi_dcmplt>
   83f00:	b110      	cbz	r0, 83f08 <_printf_float+0x60>
   83f02:	232d      	movs	r3, #45	; 0x2d
   83f04:	f884 3043 	strb.w	r3, [r4, #67]	; 0x43
   83f08:	4b90      	ldr	r3, [pc, #576]	; (8414c <_printf_float+0x2a4>)
   83f0a:	4a91      	ldr	r2, [pc, #580]	; (84150 <_printf_float+0x2a8>)
   83f0c:	f1b8 0f47 	cmp.w	r8, #71	; 0x47
   83f10:	bf8c      	ite	hi
   83f12:	4691      	movhi	r9, r2
   83f14:	4699      	movls	r9, r3
   83f16:	2303      	movs	r3, #3
   83f18:	6123      	str	r3, [r4, #16]
   83f1a:	6823      	ldr	r3, [r4, #0]
   83f1c:	f023 0304 	bic.w	r3, r3, #4
   83f20:	6023      	str	r3, [r4, #0]
   83f22:	f04f 0b00 	mov.w	fp, #0
   83f26:	e086      	b.n	84036 <_printf_float+0x18e>
   83f28:	f001 ffc2 	bl	85eb0 <__fpclassifyd>
   83f2c:	6823      	ldr	r3, [r4, #0]
   83f2e:	b948      	cbnz	r0, 83f44 <_printf_float+0x9c>
   83f30:	4a88      	ldr	r2, [pc, #544]	; (84154 <_printf_float+0x2ac>)
   83f32:	4989      	ldr	r1, [pc, #548]	; (84158 <_printf_float+0x2b0>)
   83f34:	f1b8 0f47 	cmp.w	r8, #71	; 0x47
   83f38:	bf8c      	ite	hi
   83f3a:	4689      	movhi	r9, r1
   83f3c:	4691      	movls	r9, r2
   83f3e:	2203      	movs	r2, #3
   83f40:	6122      	str	r2, [r4, #16]
   83f42:	e7eb      	b.n	83f1c <_printf_float+0x74>
   83f44:	6862      	ldr	r2, [r4, #4]
   83f46:	f028 0b20 	bic.w	fp, r8, #32
   83f4a:	1c51      	adds	r1, r2, #1
   83f4c:	d101      	bne.n	83f52 <_printf_float+0xaa>
   83f4e:	2206      	movs	r2, #6
   83f50:	e004      	b.n	83f5c <_printf_float+0xb4>
   83f52:	f1bb 0f47 	cmp.w	fp, #71	; 0x47
   83f56:	d102      	bne.n	83f5e <_printf_float+0xb6>
   83f58:	b90a      	cbnz	r2, 83f5e <_printf_float+0xb6>
   83f5a:	2201      	movs	r2, #1
   83f5c:	6062      	str	r2, [r4, #4]
   83f5e:	6860      	ldr	r0, [r4, #4]
   83f60:	f443 6180 	orr.w	r1, r3, #1024	; 0x400
   83f64:	e88d 0003 	stmia.w	sp, {r0, r1}
   83f68:	e9d4 2312 	ldrd	r2, r3, [r4, #72]	; 0x48
   83f6c:	f10d 002b 	add.w	r0, sp, #43	; 0x2b
   83f70:	9002      	str	r0, [sp, #8]
   83f72:	a80b      	add	r0, sp, #44	; 0x2c
   83f74:	9003      	str	r0, [sp, #12]
   83f76:	a80c      	add	r0, sp, #48	; 0x30
   83f78:	9005      	str	r0, [sp, #20]
   83f7a:	2000      	movs	r0, #0
   83f7c:	6021      	str	r1, [r4, #0]
   83f7e:	9006      	str	r0, [sp, #24]
   83f80:	f8cd 8010 	str.w	r8, [sp, #16]
   83f84:	4628      	mov	r0, r5
   83f86:	f7ff fefb 	bl	83d80 <__cvt>
   83f8a:	f1bb 0f47 	cmp.w	fp, #71	; 0x47
   83f8e:	4681      	mov	r9, r0
   83f90:	990b      	ldr	r1, [sp, #44]	; 0x2c
   83f92:	d109      	bne.n	83fa8 <_printf_float+0x100>
   83f94:	1cc8      	adds	r0, r1, #3
   83f96:	db02      	blt.n	83f9e <_printf_float+0xf6>
   83f98:	6863      	ldr	r3, [r4, #4]
   83f9a:	4299      	cmp	r1, r3
   83f9c:	dd30      	ble.n	84000 <_printf_float+0x158>
   83f9e:	f1a8 0802 	sub.w	r8, r8, #2
   83fa2:	fa5f f888 	uxtb.w	r8, r8
   83fa6:	e002      	b.n	83fae <_printf_float+0x106>
   83fa8:	f1b8 0f65 	cmp.w	r8, #101	; 0x65
   83fac:	d812      	bhi.n	83fd4 <_printf_float+0x12c>
   83fae:	3901      	subs	r1, #1
   83fb0:	4642      	mov	r2, r8
   83fb2:	f104 0050 	add.w	r0, r4, #80	; 0x50
   83fb6:	910b      	str	r1, [sp, #44]	; 0x2c
   83fb8:	f7ff ff42 	bl	83e40 <__exponent>
   83fbc:	9a0c      	ldr	r2, [sp, #48]	; 0x30
   83fbe:	4683      	mov	fp, r0
   83fc0:	1883      	adds	r3, r0, r2
   83fc2:	2a01      	cmp	r2, #1
   83fc4:	6123      	str	r3, [r4, #16]
   83fc6:	dc02      	bgt.n	83fce <_printf_float+0x126>
   83fc8:	6822      	ldr	r2, [r4, #0]
   83fca:	07d2      	lsls	r2, r2, #31
   83fcc:	d52d      	bpl.n	8402a <_printf_float+0x182>
   83fce:	3301      	adds	r3, #1
   83fd0:	6123      	str	r3, [r4, #16]
   83fd2:	e02a      	b.n	8402a <_printf_float+0x182>
   83fd4:	f1b8 0f66 	cmp.w	r8, #102	; 0x66
   83fd8:	d114      	bne.n	84004 <_printf_float+0x15c>
   83fda:	2900      	cmp	r1, #0
   83fdc:	6863      	ldr	r3, [r4, #4]
   83fde:	dd07      	ble.n	83ff0 <_printf_float+0x148>
   83fe0:	6121      	str	r1, [r4, #16]
   83fe2:	b913      	cbnz	r3, 83fea <_printf_float+0x142>
   83fe4:	6822      	ldr	r2, [r4, #0]
   83fe6:	07d0      	lsls	r0, r2, #31
   83fe8:	d51c      	bpl.n	84024 <_printf_float+0x17c>
   83fea:	3301      	adds	r3, #1
   83fec:	440b      	add	r3, r1
   83fee:	e018      	b.n	84022 <_printf_float+0x17a>
   83ff0:	b913      	cbnz	r3, 83ff8 <_printf_float+0x150>
   83ff2:	6822      	ldr	r2, [r4, #0]
   83ff4:	07d2      	lsls	r2, r2, #31
   83ff6:	d501      	bpl.n	83ffc <_printf_float+0x154>
   83ff8:	3302      	adds	r3, #2
   83ffa:	e012      	b.n	84022 <_printf_float+0x17a>
   83ffc:	2301      	movs	r3, #1
   83ffe:	e010      	b.n	84022 <_printf_float+0x17a>
   84000:	f04f 0867 	mov.w	r8, #103	; 0x67
   84004:	9a0c      	ldr	r2, [sp, #48]	; 0x30
   84006:	4291      	cmp	r1, r2
   84008:	db05      	blt.n	84016 <_printf_float+0x16e>
   8400a:	6823      	ldr	r3, [r4, #0]
   8400c:	6121      	str	r1, [r4, #16]
   8400e:	07d8      	lsls	r0, r3, #31
   84010:	d508      	bpl.n	84024 <_printf_float+0x17c>
   84012:	1c4b      	adds	r3, r1, #1
   84014:	e005      	b.n	84022 <_printf_float+0x17a>
   84016:	2900      	cmp	r1, #0
   84018:	bfd4      	ite	le
   8401a:	f1c1 0302 	rsble	r3, r1, #2
   8401e:	2301      	movgt	r3, #1
   84020:	4413      	add	r3, r2
   84022:	6123      	str	r3, [r4, #16]
   84024:	65a1      	str	r1, [r4, #88]	; 0x58
   84026:	f04f 0b00 	mov.w	fp, #0
   8402a:	f89d 302b 	ldrb.w	r3, [sp, #43]	; 0x2b
   8402e:	b113      	cbz	r3, 84036 <_printf_float+0x18e>
   84030:	232d      	movs	r3, #45	; 0x2d
   84032:	f884 3043 	strb.w	r3, [r4, #67]	; 0x43
   84036:	9700      	str	r7, [sp, #0]
   84038:	4628      	mov	r0, r5
   8403a:	4621      	mov	r1, r4
   8403c:	aa0d      	add	r2, sp, #52	; 0x34
   8403e:	4633      	mov	r3, r6
   84040:	f000 f940 	bl	842c4 <_printf_common>
   84044:	3001      	adds	r0, #1
   84046:	d102      	bne.n	8404e <_printf_float+0x1a6>
   84048:	f04f 30ff 	mov.w	r0, #4294967295
   8404c:	e136      	b.n	842bc <_printf_float+0x414>
   8404e:	6823      	ldr	r3, [r4, #0]
   84050:	055a      	lsls	r2, r3, #21
   84052:	d404      	bmi.n	8405e <_printf_float+0x1b6>
   84054:	4628      	mov	r0, r5
   84056:	4631      	mov	r1, r6
   84058:	464a      	mov	r2, r9
   8405a:	6923      	ldr	r3, [r4, #16]
   8405c:	e108      	b.n	84270 <_printf_float+0x3c8>
   8405e:	f1b8 0f65 	cmp.w	r8, #101	; 0x65
   84062:	f240 80cb 	bls.w	841fc <_printf_float+0x354>
   84066:	e9d4 0112 	ldrd	r0, r1, [r4, #72]	; 0x48
   8406a:	2200      	movs	r2, #0
   8406c:	2300      	movs	r3, #0
   8406e:	f002 fc1d 	bl	868ac <__aeabi_dcmpeq>
   84072:	2800      	cmp	r0, #0
   84074:	d02a      	beq.n	840cc <_printf_float+0x224>
   84076:	4628      	mov	r0, r5
   84078:	4631      	mov	r1, r6
   8407a:	4a38      	ldr	r2, [pc, #224]	; (8415c <_printf_float+0x2b4>)
   8407c:	2301      	movs	r3, #1
   8407e:	47b8      	blx	r7
   84080:	3001      	adds	r0, #1
   84082:	d0e1      	beq.n	84048 <_printf_float+0x1a0>
   84084:	9b0c      	ldr	r3, [sp, #48]	; 0x30
   84086:	9a0b      	ldr	r2, [sp, #44]	; 0x2c
   84088:	429a      	cmp	r2, r3
   8408a:	db07      	blt.n	8409c <_printf_float+0x1f4>
   8408c:	6823      	ldr	r3, [r4, #0]
   8408e:	07d8      	lsls	r0, r3, #31
   84090:	d404      	bmi.n	8409c <_printf_float+0x1f4>
   84092:	6823      	ldr	r3, [r4, #0]
   84094:	079b      	lsls	r3, r3, #30
   84096:	f100 80f8 	bmi.w	8428a <_printf_float+0x3e2>
   8409a:	e0fd      	b.n	84298 <_printf_float+0x3f0>
   8409c:	4628      	mov	r0, r5
   8409e:	4631      	mov	r1, r6
   840a0:	4652      	mov	r2, sl
   840a2:	9b09      	ldr	r3, [sp, #36]	; 0x24
   840a4:	47b8      	blx	r7
   840a6:	3001      	adds	r0, #1
   840a8:	d0ce      	beq.n	84048 <_printf_float+0x1a0>
   840aa:	f04f 0800 	mov.w	r8, #0
   840ae:	9b0c      	ldr	r3, [sp, #48]	; 0x30
   840b0:	3b01      	subs	r3, #1
   840b2:	4598      	cmp	r8, r3
   840b4:	daed      	bge.n	84092 <_printf_float+0x1ea>
   840b6:	4628      	mov	r0, r5
   840b8:	4631      	mov	r1, r6
   840ba:	f104 021a 	add.w	r2, r4, #26
   840be:	2301      	movs	r3, #1
   840c0:	47b8      	blx	r7
   840c2:	3001      	adds	r0, #1
   840c4:	d0c0      	beq.n	84048 <_printf_float+0x1a0>
   840c6:	f108 0801 	add.w	r8, r8, #1
   840ca:	e7f0      	b.n	840ae <_printf_float+0x206>
   840cc:	9b0b      	ldr	r3, [sp, #44]	; 0x2c
   840ce:	2b00      	cmp	r3, #0
   840d0:	dc28      	bgt.n	84124 <_printf_float+0x27c>
   840d2:	4628      	mov	r0, r5
   840d4:	4631      	mov	r1, r6
   840d6:	4a21      	ldr	r2, [pc, #132]	; (8415c <_printf_float+0x2b4>)
   840d8:	2301      	movs	r3, #1
   840da:	47b8      	blx	r7
   840dc:	3001      	adds	r0, #1
   840de:	d0b3      	beq.n	84048 <_printf_float+0x1a0>
   840e0:	9b0b      	ldr	r3, [sp, #44]	; 0x2c
   840e2:	b923      	cbnz	r3, 840ee <_printf_float+0x246>
   840e4:	9b0c      	ldr	r3, [sp, #48]	; 0x30
   840e6:	b913      	cbnz	r3, 840ee <_printf_float+0x246>
   840e8:	6823      	ldr	r3, [r4, #0]
   840ea:	07d9      	lsls	r1, r3, #31
   840ec:	d5d1      	bpl.n	84092 <_printf_float+0x1ea>
   840ee:	4628      	mov	r0, r5
   840f0:	4631      	mov	r1, r6
   840f2:	4652      	mov	r2, sl
   840f4:	9b09      	ldr	r3, [sp, #36]	; 0x24
   840f6:	47b8      	blx	r7
   840f8:	3001      	adds	r0, #1
   840fa:	d0a5      	beq.n	84048 <_printf_float+0x1a0>
   840fc:	f04f 0800 	mov.w	r8, #0
   84100:	9b0b      	ldr	r3, [sp, #44]	; 0x2c
   84102:	4628      	mov	r0, r5
   84104:	425b      	negs	r3, r3
   84106:	4598      	cmp	r8, r3
   84108:	4631      	mov	r1, r6
   8410a:	da08      	bge.n	8411e <_printf_float+0x276>
   8410c:	f104 021a 	add.w	r2, r4, #26
   84110:	2301      	movs	r3, #1
   84112:	47b8      	blx	r7
   84114:	3001      	adds	r0, #1
   84116:	d097      	beq.n	84048 <_printf_float+0x1a0>
   84118:	f108 0801 	add.w	r8, r8, #1
   8411c:	e7f0      	b.n	84100 <_printf_float+0x258>
   8411e:	464a      	mov	r2, r9
   84120:	9b0c      	ldr	r3, [sp, #48]	; 0x30
   84122:	e0a5      	b.n	84270 <_printf_float+0x3c8>
   84124:	6da3      	ldr	r3, [r4, #88]	; 0x58
   84126:	9a0c      	ldr	r2, [sp, #48]	; 0x30
   84128:	429a      	cmp	r2, r3
   8412a:	bfb4      	ite	lt
   8412c:	4693      	movlt	fp, r2
   8412e:	469b      	movge	fp, r3
   84130:	f1bb 0f00 	cmp.w	fp, #0
   84134:	dc02      	bgt.n	8413c <_printf_float+0x294>
   84136:	f04f 0800 	mov.w	r8, #0
   8413a:	e01c      	b.n	84176 <_printf_float+0x2ce>
   8413c:	4628      	mov	r0, r5
   8413e:	4631      	mov	r1, r6
   84140:	464a      	mov	r2, r9
   84142:	465b      	mov	r3, fp
   84144:	47b8      	blx	r7
   84146:	3001      	adds	r0, #1
   84148:	d1f5      	bne.n	84136 <_printf_float+0x28e>
   8414a:	e77d      	b.n	84048 <_printf_float+0x1a0>
   8414c:	000870ad 	.word	0x000870ad
   84150:	000870b1 	.word	0x000870b1
   84154:	000870b5 	.word	0x000870b5
   84158:	000870b9 	.word	0x000870b9
   8415c:	000870bd 	.word	0x000870bd
   84160:	4628      	mov	r0, r5
   84162:	4631      	mov	r1, r6
   84164:	f104 021a 	add.w	r2, r4, #26
   84168:	2301      	movs	r3, #1
   8416a:	47b8      	blx	r7
   8416c:	3001      	adds	r0, #1
   8416e:	f43f af6b 	beq.w	84048 <_printf_float+0x1a0>
   84172:	f108 0801 	add.w	r8, r8, #1
   84176:	6da3      	ldr	r3, [r4, #88]	; 0x58
   84178:	ea2b 72eb 	bic.w	r2, fp, fp, asr #31
   8417c:	1a9a      	subs	r2, r3, r2
   8417e:	4590      	cmp	r8, r2
   84180:	dbee      	blt.n	84160 <_printf_float+0x2b8>
   84182:	eb09 0803 	add.w	r8, r9, r3
   84186:	9a0b      	ldr	r2, [sp, #44]	; 0x2c
   84188:	9b0c      	ldr	r3, [sp, #48]	; 0x30
   8418a:	429a      	cmp	r2, r3
   8418c:	db0f      	blt.n	841ae <_printf_float+0x306>
   8418e:	6823      	ldr	r3, [r4, #0]
   84190:	07da      	lsls	r2, r3, #31
   84192:	d40c      	bmi.n	841ae <_printf_float+0x306>
   84194:	9b0c      	ldr	r3, [sp, #48]	; 0x30
   84196:	9a0b      	ldr	r2, [sp, #44]	; 0x2c
   84198:	4499      	add	r9, r3
   8419a:	ebc8 0909 	rsb	r9, r8, r9
   8419e:	1a9b      	subs	r3, r3, r2
   841a0:	4599      	cmp	r9, r3
   841a2:	bfa8      	it	ge
   841a4:	4699      	movge	r9, r3
   841a6:	f1b9 0f00 	cmp.w	r9, #0
   841aa:	dc08      	bgt.n	841be <_printf_float+0x316>
   841ac:	e00f      	b.n	841ce <_printf_float+0x326>
   841ae:	4628      	mov	r0, r5
   841b0:	4631      	mov	r1, r6
   841b2:	4652      	mov	r2, sl
   841b4:	9b09      	ldr	r3, [sp, #36]	; 0x24
   841b6:	47b8      	blx	r7
   841b8:	3001      	adds	r0, #1
   841ba:	d1eb      	bne.n	84194 <_printf_float+0x2ec>
   841bc:	e744      	b.n	84048 <_printf_float+0x1a0>
   841be:	4628      	mov	r0, r5
   841c0:	4631      	mov	r1, r6
   841c2:	4642      	mov	r2, r8
   841c4:	464b      	mov	r3, r9
   841c6:	47b8      	blx	r7
   841c8:	3001      	adds	r0, #1
   841ca:	f43f af3d 	beq.w	84048 <_printf_float+0x1a0>
   841ce:	f04f 0800 	mov.w	r8, #0
   841d2:	e00a      	b.n	841ea <_printf_float+0x342>
   841d4:	4628      	mov	r0, r5
   841d6:	4631      	mov	r1, r6
   841d8:	f104 021a 	add.w	r2, r4, #26
   841dc:	2301      	movs	r3, #1
   841de:	47b8      	blx	r7
   841e0:	3001      	adds	r0, #1
   841e2:	f43f af31 	beq.w	84048 <_printf_float+0x1a0>
   841e6:	f108 0801 	add.w	r8, r8, #1
   841ea:	9b0b      	ldr	r3, [sp, #44]	; 0x2c
   841ec:	9a0c      	ldr	r2, [sp, #48]	; 0x30
   841ee:	ea29 71e9 	bic.w	r1, r9, r9, asr #31
   841f2:	1ad3      	subs	r3, r2, r3
   841f4:	1a5b      	subs	r3, r3, r1
   841f6:	4598      	cmp	r8, r3
   841f8:	dbec      	blt.n	841d4 <_printf_float+0x32c>
   841fa:	e74a      	b.n	84092 <_printf_float+0x1ea>
   841fc:	9a0c      	ldr	r2, [sp, #48]	; 0x30
   841fe:	2a01      	cmp	r2, #1
   84200:	dc01      	bgt.n	84206 <_printf_float+0x35e>
   84202:	07db      	lsls	r3, r3, #31
   84204:	d539      	bpl.n	8427a <_printf_float+0x3d2>
   84206:	4628      	mov	r0, r5
   84208:	4631      	mov	r1, r6
   8420a:	464a      	mov	r2, r9
   8420c:	2301      	movs	r3, #1
   8420e:	47b8      	blx	r7
   84210:	3001      	adds	r0, #1
   84212:	f43f af19 	beq.w	84048 <_printf_float+0x1a0>
   84216:	4628      	mov	r0, r5
   84218:	4631      	mov	r1, r6
   8421a:	4652      	mov	r2, sl
   8421c:	9b09      	ldr	r3, [sp, #36]	; 0x24
   8421e:	47b8      	blx	r7
   84220:	3001      	adds	r0, #1
   84222:	f43f af11 	beq.w	84048 <_printf_float+0x1a0>
   84226:	e9d4 0112 	ldrd	r0, r1, [r4, #72]	; 0x48
   8422a:	2200      	movs	r2, #0
   8422c:	2300      	movs	r3, #0
   8422e:	f002 fb3d 	bl	868ac <__aeabi_dcmpeq>
   84232:	b110      	cbz	r0, 8423a <_printf_float+0x392>
   84234:	f04f 0800 	mov.w	r8, #0
   84238:	e011      	b.n	8425e <_printf_float+0x3b6>
   8423a:	9b0c      	ldr	r3, [sp, #48]	; 0x30
   8423c:	4628      	mov	r0, r5
   8423e:	4631      	mov	r1, r6
   84240:	f109 0201 	add.w	r2, r9, #1
   84244:	3b01      	subs	r3, #1
   84246:	e01c      	b.n	84282 <_printf_float+0x3da>
   84248:	4628      	mov	r0, r5
   8424a:	4631      	mov	r1, r6
   8424c:	f104 021a 	add.w	r2, r4, #26
   84250:	2301      	movs	r3, #1
   84252:	47b8      	blx	r7
   84254:	3001      	adds	r0, #1
   84256:	f43f aef7 	beq.w	84048 <_printf_float+0x1a0>
   8425a:	f108 0801 	add.w	r8, r8, #1
   8425e:	9b0c      	ldr	r3, [sp, #48]	; 0x30
   84260:	3b01      	subs	r3, #1
   84262:	4598      	cmp	r8, r3
   84264:	dbf0      	blt.n	84248 <_printf_float+0x3a0>
   84266:	4628      	mov	r0, r5
   84268:	4631      	mov	r1, r6
   8426a:	f104 0250 	add.w	r2, r4, #80	; 0x50
   8426e:	465b      	mov	r3, fp
   84270:	47b8      	blx	r7
   84272:	3001      	adds	r0, #1
   84274:	f47f af0d 	bne.w	84092 <_printf_float+0x1ea>
   84278:	e6e6      	b.n	84048 <_printf_float+0x1a0>
   8427a:	4628      	mov	r0, r5
   8427c:	4631      	mov	r1, r6
   8427e:	464a      	mov	r2, r9
   84280:	2301      	movs	r3, #1
   84282:	47b8      	blx	r7
   84284:	3001      	adds	r0, #1
   84286:	d1ee      	bne.n	84266 <_printf_float+0x3be>
   84288:	e6de      	b.n	84048 <_printf_float+0x1a0>
   8428a:	f04f 0800 	mov.w	r8, #0
   8428e:	68e2      	ldr	r2, [r4, #12]
   84290:	9b0d      	ldr	r3, [sp, #52]	; 0x34
   84292:	1ad3      	subs	r3, r2, r3
   84294:	4598      	cmp	r8, r3
   84296:	db05      	blt.n	842a4 <_printf_float+0x3fc>
   84298:	68e0      	ldr	r0, [r4, #12]
   8429a:	9b0d      	ldr	r3, [sp, #52]	; 0x34
   8429c:	4298      	cmp	r0, r3
   8429e:	bfb8      	it	lt
   842a0:	4618      	movlt	r0, r3
   842a2:	e00b      	b.n	842bc <_printf_float+0x414>
   842a4:	4628      	mov	r0, r5
   842a6:	4631      	mov	r1, r6
   842a8:	f104 0219 	add.w	r2, r4, #25
   842ac:	2301      	movs	r3, #1
   842ae:	47b8      	blx	r7
   842b0:	3001      	adds	r0, #1
   842b2:	f43f aec9 	beq.w	84048 <_printf_float+0x1a0>
   842b6:	f108 0801 	add.w	r8, r8, #1
   842ba:	e7e8      	b.n	8428e <_printf_float+0x3e6>
   842bc:	b00f      	add	sp, #60	; 0x3c
   842be:	e8bd 8ff0 	ldmia.w	sp!, {r4, r5, r6, r7, r8, r9, sl, fp, pc}
   842c2:	bf00      	nop

000842c4 <_printf_common>:
   842c4:	e92d 43f8 	stmdb	sp!, {r3, r4, r5, r6, r7, r8, r9, lr}
   842c8:	4615      	mov	r5, r2
   842ca:	461f      	mov	r7, r3
   842cc:	688a      	ldr	r2, [r1, #8]
   842ce:	690b      	ldr	r3, [r1, #16]
   842d0:	4606      	mov	r6, r0
   842d2:	429a      	cmp	r2, r3
   842d4:	bfa8      	it	ge
   842d6:	4613      	movge	r3, r2
   842d8:	602b      	str	r3, [r5, #0]
   842da:	f891 2043 	ldrb.w	r2, [r1, #67]	; 0x43
   842de:	460c      	mov	r4, r1
   842e0:	f8dd 8020 	ldr.w	r8, [sp, #32]
   842e4:	b10a      	cbz	r2, 842ea <_printf_common+0x26>
   842e6:	3301      	adds	r3, #1
   842e8:	602b      	str	r3, [r5, #0]
   842ea:	6823      	ldr	r3, [r4, #0]
   842ec:	0699      	lsls	r1, r3, #26
   842ee:	d502      	bpl.n	842f6 <_printf_common+0x32>
   842f0:	682b      	ldr	r3, [r5, #0]
   842f2:	3302      	adds	r3, #2
   842f4:	602b      	str	r3, [r5, #0]
   842f6:	6823      	ldr	r3, [r4, #0]
   842f8:	f013 0906 	ands.w	r9, r3, #6
   842fc:	d01d      	beq.n	8433a <_printf_common+0x76>
   842fe:	f894 3043 	ldrb.w	r3, [r4, #67]	; 0x43
   84302:	6822      	ldr	r2, [r4, #0]
   84304:	3300      	adds	r3, #0
   84306:	bf18      	it	ne
   84308:	2301      	movne	r3, #1
   8430a:	0692      	lsls	r2, r2, #26
   8430c:	d51f      	bpl.n	8434e <_printf_common+0x8a>
   8430e:	18e1      	adds	r1, r4, r3
   84310:	2030      	movs	r0, #48	; 0x30
   84312:	f881 0043 	strb.w	r0, [r1, #67]	; 0x43
   84316:	1c5a      	adds	r2, r3, #1
   84318:	f894 1045 	ldrb.w	r1, [r4, #69]	; 0x45
   8431c:	4422      	add	r2, r4
   8431e:	3302      	adds	r3, #2
   84320:	f882 1043 	strb.w	r1, [r2, #67]	; 0x43
   84324:	e013      	b.n	8434e <_printf_common+0x8a>
   84326:	4630      	mov	r0, r6
   84328:	4639      	mov	r1, r7
   8432a:	f104 0219 	add.w	r2, r4, #25
   8432e:	2301      	movs	r3, #1
   84330:	47c0      	blx	r8
   84332:	3001      	adds	r0, #1
   84334:	d007      	beq.n	84346 <_printf_common+0x82>
   84336:	f109 0901 	add.w	r9, r9, #1
   8433a:	68e2      	ldr	r2, [r4, #12]
   8433c:	682b      	ldr	r3, [r5, #0]
   8433e:	1ad3      	subs	r3, r2, r3
   84340:	4599      	cmp	r9, r3
   84342:	dbf0      	blt.n	84326 <_printf_common+0x62>
   84344:	e7db      	b.n	842fe <_printf_common+0x3a>
   84346:	f04f 30ff 	mov.w	r0, #4294967295
   8434a:	e8bd 83f8 	ldmia.w	sp!, {r3, r4, r5, r6, r7, r8, r9, pc}
   8434e:	4630      	mov	r0, r6
   84350:	4639      	mov	r1, r7
   84352:	f104 0243 	add.w	r2, r4, #67	; 0x43
   84356:	47c0      	blx	r8
   84358:	3001      	adds	r0, #1
   8435a:	d0f4      	beq.n	84346 <_printf_common+0x82>
   8435c:	6823      	ldr	r3, [r4, #0]
   8435e:	682a      	ldr	r2, [r5, #0]
   84360:	f003 0306 	and.w	r3, r3, #6
   84364:	68e1      	ldr	r1, [r4, #12]
   84366:	2b04      	cmp	r3, #4
   84368:	bf08      	it	eq
   8436a:	ebc2 0501 	rsbeq	r5, r2, r1
   8436e:	6923      	ldr	r3, [r4, #16]
   84370:	68a2      	ldr	r2, [r4, #8]
   84372:	bf0c      	ite	eq
   84374:	ea25 75e5 	biceq.w	r5, r5, r5, asr #31
   84378:	2500      	movne	r5, #0
   8437a:	429a      	cmp	r2, r3
   8437c:	bfc4      	itt	gt
   8437e:	ebc3 0302 	rsbgt	r3, r3, r2
   84382:	18ed      	addgt	r5, r5, r3
   84384:	f04f 0900 	mov.w	r9, #0
   84388:	45a9      	cmp	r9, r5
   8438a:	da0a      	bge.n	843a2 <_printf_common+0xde>
   8438c:	4630      	mov	r0, r6
   8438e:	4639      	mov	r1, r7
   84390:	f104 021a 	add.w	r2, r4, #26
   84394:	2301      	movs	r3, #1
   84396:	47c0      	blx	r8
   84398:	3001      	adds	r0, #1
   8439a:	d0d4      	beq.n	84346 <_printf_common+0x82>
   8439c:	f109 0901 	add.w	r9, r9, #1
   843a0:	e7f2      	b.n	84388 <_printf_common+0xc4>
   843a2:	2000      	movs	r0, #0
   843a4:	e8bd 83f8 	ldmia.w	sp!, {r3, r4, r5, r6, r7, r8, r9, pc}

000843a8 <_printf_i>:
   843a8:	e92d 47ff 	stmdb	sp!, {r0, r1, r2, r3, r4, r5, r6, r7, r8, r9, sl, lr}
   843ac:	7e0e      	ldrb	r6, [r1, #24]
   843ae:	4680      	mov	r8, r0
   843b0:	2e6e      	cmp	r6, #110	; 0x6e
   843b2:	460c      	mov	r4, r1
   843b4:	4691      	mov	r9, r2
   843b6:	469a      	mov	sl, r3
   843b8:	9d0c      	ldr	r5, [sp, #48]	; 0x30
   843ba:	f101 0043 	add.w	r0, r1, #67	; 0x43
   843be:	f000 80a5 	beq.w	8450c <_printf_i+0x164>
   843c2:	d811      	bhi.n	843e8 <_printf_i+0x40>
   843c4:	2e63      	cmp	r6, #99	; 0x63
   843c6:	d022      	beq.n	8440e <_printf_i+0x66>
   843c8:	d809      	bhi.n	843de <_printf_i+0x36>
   843ca:	2e00      	cmp	r6, #0
   843cc:	f000 80af 	beq.w	8452e <_printf_i+0x186>
   843d0:	2e58      	cmp	r6, #88	; 0x58
   843d2:	f040 80bf 	bne.w	84554 <_printf_i+0x1ac>
   843d6:	f881 6045 	strb.w	r6, [r1, #69]	; 0x45
   843da:	4a7b      	ldr	r2, [pc, #492]	; (845c8 <_printf_i+0x220>)
   843dc:	e04f      	b.n	8447e <_printf_i+0xd6>
   843de:	2e64      	cmp	r6, #100	; 0x64
   843e0:	d01e      	beq.n	84420 <_printf_i+0x78>
   843e2:	2e69      	cmp	r6, #105	; 0x69
   843e4:	d01c      	beq.n	84420 <_printf_i+0x78>
   843e6:	e0b5      	b.n	84554 <_printf_i+0x1ac>
   843e8:	2e73      	cmp	r6, #115	; 0x73
   843ea:	f000 80a4 	beq.w	84536 <_printf_i+0x18e>
   843ee:	d809      	bhi.n	84404 <_printf_i+0x5c>
   843f0:	2e6f      	cmp	r6, #111	; 0x6f
   843f2:	d02b      	beq.n	8444c <_printf_i+0xa4>
   843f4:	2e70      	cmp	r6, #112	; 0x70
   843f6:	f040 80ad 	bne.w	84554 <_printf_i+0x1ac>
   843fa:	680b      	ldr	r3, [r1, #0]
   843fc:	f043 0320 	orr.w	r3, r3, #32
   84400:	600b      	str	r3, [r1, #0]
   84402:	e038      	b.n	84476 <_printf_i+0xce>
   84404:	2e75      	cmp	r6, #117	; 0x75
   84406:	d021      	beq.n	8444c <_printf_i+0xa4>
   84408:	2e78      	cmp	r6, #120	; 0x78
   8440a:	d034      	beq.n	84476 <_printf_i+0xce>
   8440c:	e0a2      	b.n	84554 <_printf_i+0x1ac>
   8440e:	682b      	ldr	r3, [r5, #0]
   84410:	f101 0742 	add.w	r7, r1, #66	; 0x42
   84414:	1d1a      	adds	r2, r3, #4
   84416:	681b      	ldr	r3, [r3, #0]
   84418:	602a      	str	r2, [r5, #0]
   8441a:	f881 3042 	strb.w	r3, [r1, #66]	; 0x42
   8441e:	e09d      	b.n	8455c <_printf_i+0x1b4>
   84420:	6822      	ldr	r2, [r4, #0]
   84422:	682b      	ldr	r3, [r5, #0]
   84424:	f012 0f80 	tst.w	r2, #128	; 0x80
   84428:	d003      	beq.n	84432 <_printf_i+0x8a>
   8442a:	1d1a      	adds	r2, r3, #4
   8442c:	602a      	str	r2, [r5, #0]
   8442e:	681d      	ldr	r5, [r3, #0]
   84430:	e005      	b.n	8443e <_printf_i+0x96>
   84432:	0651      	lsls	r1, r2, #25
   84434:	d5f9      	bpl.n	8442a <_printf_i+0x82>
   84436:	1d1a      	adds	r2, r3, #4
   84438:	602a      	str	r2, [r5, #0]
   8443a:	f9b3 5000 	ldrsh.w	r5, [r3]
   8443e:	2d00      	cmp	r5, #0
   84440:	da39      	bge.n	844b6 <_printf_i+0x10e>
   84442:	232d      	movs	r3, #45	; 0x2d
   84444:	426d      	negs	r5, r5
   84446:	f884 3043 	strb.w	r3, [r4, #67]	; 0x43
   8444a:	e034      	b.n	844b6 <_printf_i+0x10e>
   8444c:	6822      	ldr	r2, [r4, #0]
   8444e:	682b      	ldr	r3, [r5, #0]
   84450:	f012 0f80 	tst.w	r2, #128	; 0x80
   84454:	d003      	beq.n	8445e <_printf_i+0xb6>
   84456:	1d1a      	adds	r2, r3, #4
   84458:	602a      	str	r2, [r5, #0]
   8445a:	681d      	ldr	r5, [r3, #0]
   8445c:	e004      	b.n	84468 <_printf_i+0xc0>
   8445e:	0652      	lsls	r2, r2, #25
   84460:	d5f9      	bpl.n	84456 <_printf_i+0xae>
   84462:	1d1a      	adds	r2, r3, #4
   84464:	602a      	str	r2, [r5, #0]
   84466:	881d      	ldrh	r5, [r3, #0]
   84468:	7e23      	ldrb	r3, [r4, #24]
   8446a:	4a57      	ldr	r2, [pc, #348]	; (845c8 <_printf_i+0x220>)
   8446c:	2b6f      	cmp	r3, #111	; 0x6f
   8446e:	bf14      	ite	ne
   84470:	230a      	movne	r3, #10
   84472:	2308      	moveq	r3, #8
   84474:	e01b      	b.n	844ae <_printf_i+0x106>
   84476:	2378      	movs	r3, #120	; 0x78
   84478:	4a54      	ldr	r2, [pc, #336]	; (845cc <_printf_i+0x224>)
   8447a:	f884 3045 	strb.w	r3, [r4, #69]	; 0x45
   8447e:	6823      	ldr	r3, [r4, #0]
   84480:	6829      	ldr	r1, [r5, #0]
   84482:	f013 0f80 	tst.w	r3, #128	; 0x80
   84486:	f101 0604 	add.w	r6, r1, #4
   8448a:	602e      	str	r6, [r5, #0]
   8448c:	d001      	beq.n	84492 <_printf_i+0xea>
   8448e:	680d      	ldr	r5, [r1, #0]
   84490:	e002      	b.n	84498 <_printf_i+0xf0>
   84492:	065f      	lsls	r7, r3, #25
   84494:	d5fb      	bpl.n	8448e <_printf_i+0xe6>
   84496:	880d      	ldrh	r5, [r1, #0]
   84498:	07de      	lsls	r6, r3, #31
   8449a:	bf44      	itt	mi
   8449c:	f043 0320 	orrmi.w	r3, r3, #32
   844a0:	6023      	strmi	r3, [r4, #0]
   844a2:	b91d      	cbnz	r5, 844ac <_printf_i+0x104>
   844a4:	6823      	ldr	r3, [r4, #0]
   844a6:	f023 0320 	bic.w	r3, r3, #32
   844aa:	6023      	str	r3, [r4, #0]
   844ac:	2310      	movs	r3, #16
   844ae:	2100      	movs	r1, #0
   844b0:	f884 1043 	strb.w	r1, [r4, #67]	; 0x43
   844b4:	e001      	b.n	844ba <_printf_i+0x112>
   844b6:	4a44      	ldr	r2, [pc, #272]	; (845c8 <_printf_i+0x220>)
   844b8:	230a      	movs	r3, #10
   844ba:	6866      	ldr	r6, [r4, #4]
   844bc:	2e00      	cmp	r6, #0
   844be:	60a6      	str	r6, [r4, #8]
   844c0:	db03      	blt.n	844ca <_printf_i+0x122>
   844c2:	6821      	ldr	r1, [r4, #0]
   844c4:	f021 0104 	bic.w	r1, r1, #4
   844c8:	6021      	str	r1, [r4, #0]
   844ca:	b905      	cbnz	r5, 844ce <_printf_i+0x126>
   844cc:	b16e      	cbz	r6, 844ea <_printf_i+0x142>
   844ce:	f104 0142 	add.w	r1, r4, #66	; 0x42
   844d2:	fbb5 f6f3 	udiv	r6, r5, r3
   844d6:	fb03 5516 	mls	r5, r3, r6, r5
   844da:	5d55      	ldrb	r5, [r2, r5]
   844dc:	460f      	mov	r7, r1
   844de:	f801 5901 	strb.w	r5, [r1], #-1
   844e2:	4635      	mov	r5, r6
   844e4:	2e00      	cmp	r6, #0
   844e6:	d1f4      	bne.n	844d2 <_printf_i+0x12a>
   844e8:	e000      	b.n	844ec <_printf_i+0x144>
   844ea:	4607      	mov	r7, r0
   844ec:	2b08      	cmp	r3, #8
   844ee:	d10a      	bne.n	84506 <_printf_i+0x15e>
   844f0:	6823      	ldr	r3, [r4, #0]
   844f2:	07dd      	lsls	r5, r3, #31
   844f4:	d507      	bpl.n	84506 <_printf_i+0x15e>
   844f6:	6862      	ldr	r2, [r4, #4]
   844f8:	6923      	ldr	r3, [r4, #16]
   844fa:	429a      	cmp	r2, r3
   844fc:	dc03      	bgt.n	84506 <_printf_i+0x15e>
   844fe:	2330      	movs	r3, #48	; 0x30
   84500:	f807 3c01 	strb.w	r3, [r7, #-1]
   84504:	3f01      	subs	r7, #1
   84506:	1bc0      	subs	r0, r0, r7
   84508:	6120      	str	r0, [r4, #16]
   8450a:	e02c      	b.n	84566 <_printf_i+0x1be>
   8450c:	6809      	ldr	r1, [r1, #0]
   8450e:	682b      	ldr	r3, [r5, #0]
   84510:	f011 0f80 	tst.w	r1, #128	; 0x80
   84514:	6962      	ldr	r2, [r4, #20]
   84516:	d004      	beq.n	84522 <_printf_i+0x17a>
   84518:	1d19      	adds	r1, r3, #4
   8451a:	6029      	str	r1, [r5, #0]
   8451c:	681b      	ldr	r3, [r3, #0]
   8451e:	601a      	str	r2, [r3, #0]
   84520:	e005      	b.n	8452e <_printf_i+0x186>
   84522:	0649      	lsls	r1, r1, #25
   84524:	d5f8      	bpl.n	84518 <_printf_i+0x170>
   84526:	1d19      	adds	r1, r3, #4
   84528:	6029      	str	r1, [r5, #0]
   8452a:	681b      	ldr	r3, [r3, #0]
   8452c:	801a      	strh	r2, [r3, #0]
   8452e:	2300      	movs	r3, #0
   84530:	6123      	str	r3, [r4, #16]
   84532:	4607      	mov	r7, r0
   84534:	e017      	b.n	84566 <_printf_i+0x1be>
   84536:	682b      	ldr	r3, [r5, #0]
   84538:	1d1a      	adds	r2, r3, #4
   8453a:	602a      	str	r2, [r5, #0]
   8453c:	681f      	ldr	r7, [r3, #0]
   8453e:	4638      	mov	r0, r7
   84540:	f7ff fad8 	bl	83af4 <strlen>
   84544:	6863      	ldr	r3, [r4, #4]
   84546:	6120      	str	r0, [r4, #16]
   84548:	4298      	cmp	r0, r3
   8454a:	bf88      	it	hi
   8454c:	6123      	strhi	r3, [r4, #16]
   8454e:	6923      	ldr	r3, [r4, #16]
   84550:	6063      	str	r3, [r4, #4]
   84552:	e005      	b.n	84560 <_printf_i+0x1b8>
   84554:	f104 0742 	add.w	r7, r4, #66	; 0x42
   84558:	f884 6042 	strb.w	r6, [r4, #66]	; 0x42
   8455c:	2301      	movs	r3, #1
   8455e:	6123      	str	r3, [r4, #16]
   84560:	2300      	movs	r3, #0
   84562:	f884 3043 	strb.w	r3, [r4, #67]	; 0x43
   84566:	f8cd a000 	str.w	sl, [sp]
   8456a:	4640      	mov	r0, r8
   8456c:	4621      	mov	r1, r4
   8456e:	aa03      	add	r2, sp, #12
   84570:	464b      	mov	r3, r9
   84572:	f7ff fea7 	bl	842c4 <_printf_common>
   84576:	3001      	adds	r0, #1
   84578:	d102      	bne.n	84580 <_printf_i+0x1d8>
   8457a:	f04f 30ff 	mov.w	r0, #4294967295
   8457e:	e01f      	b.n	845c0 <_printf_i+0x218>
   84580:	4640      	mov	r0, r8
   84582:	4649      	mov	r1, r9
   84584:	463a      	mov	r2, r7
   84586:	6923      	ldr	r3, [r4, #16]
   84588:	47d0      	blx	sl
   8458a:	3001      	adds	r0, #1
   8458c:	d0f5      	beq.n	8457a <_printf_i+0x1d2>
   8458e:	6823      	ldr	r3, [r4, #0]
   84590:	079b      	lsls	r3, r3, #30
   84592:	d405      	bmi.n	845a0 <_printf_i+0x1f8>
   84594:	68e0      	ldr	r0, [r4, #12]
   84596:	9b03      	ldr	r3, [sp, #12]
   84598:	4298      	cmp	r0, r3
   8459a:	bfb8      	it	lt
   8459c:	4618      	movlt	r0, r3
   8459e:	e00f      	b.n	845c0 <_printf_i+0x218>
   845a0:	2500      	movs	r5, #0
   845a2:	68e2      	ldr	r2, [r4, #12]
   845a4:	9b03      	ldr	r3, [sp, #12]
   845a6:	1ad3      	subs	r3, r2, r3
   845a8:	429d      	cmp	r5, r3
   845aa:	daf3      	bge.n	84594 <_printf_i+0x1ec>
   845ac:	4640      	mov	r0, r8
   845ae:	4649      	mov	r1, r9
   845b0:	f104 0219 	add.w	r2, r4, #25
   845b4:	2301      	movs	r3, #1
   845b6:	47d0      	blx	sl
   845b8:	3001      	adds	r0, #1
   845ba:	d0de      	beq.n	8457a <_printf_i+0x1d2>
   845bc:	3501      	adds	r5, #1
   845be:	e7f0      	b.n	845a2 <_printf_i+0x1fa>
   845c0:	b004      	add	sp, #16
   845c2:	e8bd 87f0 	ldmia.w	sp!, {r4, r5, r6, r7, r8, r9, sl, pc}
   845c6:	bf00      	nop
   845c8:	000870bf 	.word	0x000870bf
   845cc:	000870d0 	.word	0x000870d0

000845d0 <__swbuf_r>:
   845d0:	b570      	push	{r4, r5, r6, lr}
   845d2:	460e      	mov	r6, r1
   845d4:	4614      	mov	r4, r2
   845d6:	4605      	mov	r5, r0
   845d8:	b118      	cbz	r0, 845e2 <__swbuf_r+0x12>
   845da:	6983      	ldr	r3, [r0, #24]
   845dc:	b90b      	cbnz	r3, 845e2 <__swbuf_r+0x12>
   845de:	f001 f80d 	bl	855fc <__sinit>
   845e2:	4b22      	ldr	r3, [pc, #136]	; (8466c <__swbuf_r+0x9c>)
   845e4:	429c      	cmp	r4, r3
   845e6:	d101      	bne.n	845ec <__swbuf_r+0x1c>
   845e8:	686c      	ldr	r4, [r5, #4]
   845ea:	e008      	b.n	845fe <__swbuf_r+0x2e>
   845ec:	4b20      	ldr	r3, [pc, #128]	; (84670 <__swbuf_r+0xa0>)
   845ee:	429c      	cmp	r4, r3
   845f0:	d101      	bne.n	845f6 <__swbuf_r+0x26>
   845f2:	68ac      	ldr	r4, [r5, #8]
   845f4:	e003      	b.n	845fe <__swbuf_r+0x2e>
   845f6:	4b1f      	ldr	r3, [pc, #124]	; (84674 <__swbuf_r+0xa4>)
   845f8:	429c      	cmp	r4, r3
   845fa:	bf08      	it	eq
   845fc:	68ec      	ldreq	r4, [r5, #12]
   845fe:	69a3      	ldr	r3, [r4, #24]
   84600:	60a3      	str	r3, [r4, #8]
   84602:	89a3      	ldrh	r3, [r4, #12]
   84604:	071a      	lsls	r2, r3, #28
   84606:	d509      	bpl.n	8461c <__swbuf_r+0x4c>
   84608:	6923      	ldr	r3, [r4, #16]
   8460a:	b13b      	cbz	r3, 8461c <__swbuf_r+0x4c>
   8460c:	6923      	ldr	r3, [r4, #16]
   8460e:	6820      	ldr	r0, [r4, #0]
   84610:	b2f6      	uxtb	r6, r6
   84612:	1ac0      	subs	r0, r0, r3
   84614:	6963      	ldr	r3, [r4, #20]
   84616:	4298      	cmp	r0, r3
   84618:	db0f      	blt.n	8463a <__swbuf_r+0x6a>
   8461a:	e008      	b.n	8462e <__swbuf_r+0x5e>
   8461c:	4628      	mov	r0, r5
   8461e:	4621      	mov	r1, r4
   84620:	f000 f82a 	bl	84678 <__swsetup_r>
   84624:	2800      	cmp	r0, #0
   84626:	d0f1      	beq.n	8460c <__swbuf_r+0x3c>
   84628:	f04f 30ff 	mov.w	r0, #4294967295
   8462c:	bd70      	pop	{r4, r5, r6, pc}
   8462e:	4628      	mov	r0, r5
   84630:	4621      	mov	r1, r4
   84632:	f000 ff65 	bl	85500 <_fflush_r>
   84636:	2800      	cmp	r0, #0
   84638:	d1f6      	bne.n	84628 <__swbuf_r+0x58>
   8463a:	68a3      	ldr	r3, [r4, #8]
   8463c:	3001      	adds	r0, #1
   8463e:	3b01      	subs	r3, #1
   84640:	60a3      	str	r3, [r4, #8]
   84642:	6823      	ldr	r3, [r4, #0]
   84644:	1c5a      	adds	r2, r3, #1
   84646:	6022      	str	r2, [r4, #0]
   84648:	701e      	strb	r6, [r3, #0]
   8464a:	6963      	ldr	r3, [r4, #20]
   8464c:	4298      	cmp	r0, r3
   8464e:	d004      	beq.n	8465a <__swbuf_r+0x8a>
   84650:	89a3      	ldrh	r3, [r4, #12]
   84652:	07db      	lsls	r3, r3, #31
   84654:	d507      	bpl.n	84666 <__swbuf_r+0x96>
   84656:	2e0a      	cmp	r6, #10
   84658:	d105      	bne.n	84666 <__swbuf_r+0x96>
   8465a:	4628      	mov	r0, r5
   8465c:	4621      	mov	r1, r4
   8465e:	f000 ff4f 	bl	85500 <_fflush_r>
   84662:	2800      	cmp	r0, #0
   84664:	d1e0      	bne.n	84628 <__swbuf_r+0x58>
   84666:	4630      	mov	r0, r6
   84668:	bd70      	pop	{r4, r5, r6, pc}
   8466a:	bf00      	nop
   8466c:	000870f0 	.word	0x000870f0
   84670:	00087110 	.word	0x00087110
   84674:	00087130 	.word	0x00087130

00084678 <__swsetup_r>:
   84678:	4b32      	ldr	r3, [pc, #200]	; (84744 <__swsetup_r+0xcc>)
   8467a:	b570      	push	{r4, r5, r6, lr}
   8467c:	681d      	ldr	r5, [r3, #0]
   8467e:	4606      	mov	r6, r0
   84680:	460c      	mov	r4, r1
   84682:	b125      	cbz	r5, 8468e <__swsetup_r+0x16>
   84684:	69ab      	ldr	r3, [r5, #24]
   84686:	b913      	cbnz	r3, 8468e <__swsetup_r+0x16>
   84688:	4628      	mov	r0, r5
   8468a:	f000 ffb7 	bl	855fc <__sinit>
   8468e:	4b2e      	ldr	r3, [pc, #184]	; (84748 <__swsetup_r+0xd0>)
   84690:	429c      	cmp	r4, r3
   84692:	d101      	bne.n	84698 <__swsetup_r+0x20>
   84694:	686c      	ldr	r4, [r5, #4]
   84696:	e008      	b.n	846aa <__swsetup_r+0x32>
   84698:	4b2c      	ldr	r3, [pc, #176]	; (8474c <__swsetup_r+0xd4>)
   8469a:	429c      	cmp	r4, r3
   8469c:	d101      	bne.n	846a2 <__swsetup_r+0x2a>
   8469e:	68ac      	ldr	r4, [r5, #8]
   846a0:	e003      	b.n	846aa <__swsetup_r+0x32>
   846a2:	4b2b      	ldr	r3, [pc, #172]	; (84750 <__swsetup_r+0xd8>)
   846a4:	429c      	cmp	r4, r3
   846a6:	bf08      	it	eq
   846a8:	68ec      	ldreq	r4, [r5, #12]
   846aa:	89a2      	ldrh	r2, [r4, #12]
   846ac:	b293      	uxth	r3, r2
   846ae:	0719      	lsls	r1, r3, #28
   846b0:	d420      	bmi.n	846f4 <__swsetup_r+0x7c>
   846b2:	06dd      	lsls	r5, r3, #27
   846b4:	d405      	bmi.n	846c2 <__swsetup_r+0x4a>
   846b6:	2309      	movs	r3, #9
   846b8:	f042 0240 	orr.w	r2, r2, #64	; 0x40
   846bc:	6033      	str	r3, [r6, #0]
   846be:	81a2      	strh	r2, [r4, #12]
   846c0:	e03b      	b.n	8473a <__swsetup_r+0xc2>
   846c2:	0758      	lsls	r0, r3, #29
   846c4:	d512      	bpl.n	846ec <__swsetup_r+0x74>
   846c6:	6b61      	ldr	r1, [r4, #52]	; 0x34
   846c8:	b141      	cbz	r1, 846dc <__swsetup_r+0x64>
   846ca:	f104 0344 	add.w	r3, r4, #68	; 0x44
   846ce:	4299      	cmp	r1, r3
   846d0:	d002      	beq.n	846d8 <__swsetup_r+0x60>
   846d2:	4630      	mov	r0, r6
   846d4:	f001 fb54 	bl	85d80 <_free_r>
   846d8:	2300      	movs	r3, #0
   846da:	6363      	str	r3, [r4, #52]	; 0x34
   846dc:	89a3      	ldrh	r3, [r4, #12]
   846de:	f023 0324 	bic.w	r3, r3, #36	; 0x24
   846e2:	81a3      	strh	r3, [r4, #12]
   846e4:	2300      	movs	r3, #0
   846e6:	6063      	str	r3, [r4, #4]
   846e8:	6923      	ldr	r3, [r4, #16]
   846ea:	6023      	str	r3, [r4, #0]
   846ec:	89a3      	ldrh	r3, [r4, #12]
   846ee:	f043 0308 	orr.w	r3, r3, #8
   846f2:	81a3      	strh	r3, [r4, #12]
   846f4:	6923      	ldr	r3, [r4, #16]
   846f6:	b94b      	cbnz	r3, 8470c <__swsetup_r+0x94>
   846f8:	89a3      	ldrh	r3, [r4, #12]
   846fa:	f403 7320 	and.w	r3, r3, #640	; 0x280
   846fe:	f5b3 7f00 	cmp.w	r3, #512	; 0x200
   84702:	d003      	beq.n	8470c <__swsetup_r+0x94>
   84704:	4630      	mov	r0, r6
   84706:	4621      	mov	r1, r4
   84708:	f000 ffe6 	bl	856d8 <__smakebuf_r>
   8470c:	89a3      	ldrh	r3, [r4, #12]
   8470e:	f013 0201 	ands.w	r2, r3, #1
   84712:	d005      	beq.n	84720 <__swsetup_r+0xa8>
   84714:	2200      	movs	r2, #0
   84716:	60a2      	str	r2, [r4, #8]
   84718:	6962      	ldr	r2, [r4, #20]
   8471a:	4252      	negs	r2, r2
   8471c:	61a2      	str	r2, [r4, #24]
   8471e:	e003      	b.n	84728 <__swsetup_r+0xb0>
   84720:	0799      	lsls	r1, r3, #30
   84722:	bf58      	it	pl
   84724:	6962      	ldrpl	r2, [r4, #20]
   84726:	60a2      	str	r2, [r4, #8]
   84728:	6922      	ldr	r2, [r4, #16]
   8472a:	b94a      	cbnz	r2, 84740 <__swsetup_r+0xc8>
   8472c:	f003 0080 	and.w	r0, r3, #128	; 0x80
   84730:	b280      	uxth	r0, r0
   84732:	b130      	cbz	r0, 84742 <__swsetup_r+0xca>
   84734:	f043 0340 	orr.w	r3, r3, #64	; 0x40
   84738:	81a3      	strh	r3, [r4, #12]
   8473a:	f04f 30ff 	mov.w	r0, #4294967295
   8473e:	bd70      	pop	{r4, r5, r6, pc}
   84740:	2000      	movs	r0, #0
   84742:	bd70      	pop	{r4, r5, r6, pc}
   84744:	200701b0 	.word	0x200701b0
   84748:	000870f0 	.word	0x000870f0
   8474c:	00087110 	.word	0x00087110
   84750:	00087130 	.word	0x00087130

00084754 <quorem>:
   84754:	e92d 4ff7 	stmdb	sp!, {r0, r1, r2, r4, r5, r6, r7, r8, r9, sl, fp, lr}
   84758:	6903      	ldr	r3, [r0, #16]
   8475a:	690c      	ldr	r4, [r1, #16]
   8475c:	4680      	mov	r8, r0
   8475e:	42a3      	cmp	r3, r4
   84760:	f2c0 8083 	blt.w	8486a <quorem+0x116>
   84764:	3c01      	subs	r4, #1
   84766:	00a2      	lsls	r2, r4, #2
   84768:	f101 0714 	add.w	r7, r1, #20
   8476c:	f100 0514 	add.w	r5, r0, #20
   84770:	4691      	mov	r9, r2
   84772:	9200      	str	r2, [sp, #0]
   84774:	f857 6024 	ldr.w	r6, [r7, r4, lsl #2]
   84778:	442a      	add	r2, r5
   8477a:	9201      	str	r2, [sp, #4]
   8477c:	f855 2024 	ldr.w	r2, [r5, r4, lsl #2]
   84780:	3601      	adds	r6, #1
   84782:	fbb2 f6f6 	udiv	r6, r2, r6
   84786:	44b9      	add	r9, r7
   84788:	2e00      	cmp	r6, #0
   8478a:	d03b      	beq.n	84804 <quorem+0xb0>
   8478c:	f04f 0e00 	mov.w	lr, #0
   84790:	463a      	mov	r2, r7
   84792:	4628      	mov	r0, r5
   84794:	46f3      	mov	fp, lr
   84796:	f852 cb04 	ldr.w	ip, [r2], #4
   8479a:	6803      	ldr	r3, [r0, #0]
   8479c:	fa1f fa8c 	uxth.w	sl, ip
   847a0:	ea4f 4c1c 	mov.w	ip, ip, lsr #16
   847a4:	fb0a ea06 	mla	sl, sl, r6, lr
   847a8:	fb0c fc06 	mul.w	ip, ip, r6
   847ac:	eb0c 4c1a 	add.w	ip, ip, sl, lsr #16
   847b0:	fa1f fa8a 	uxth.w	sl, sl
   847b4:	ebca 0b0b 	rsb	fp, sl, fp
   847b8:	ea4f 4e1c 	mov.w	lr, ip, lsr #16
   847bc:	fa1f fa83 	uxth.w	sl, r3
   847c0:	fa1f fc8c 	uxth.w	ip, ip
   847c4:	44da      	add	sl, fp
   847c6:	ebcc 4c13 	rsb	ip, ip, r3, lsr #16
   847ca:	eb0c 4c2a 	add.w	ip, ip, sl, asr #16
   847ce:	fa1f fa8a 	uxth.w	sl, sl
   847d2:	ea4a 4a0c 	orr.w	sl, sl, ip, lsl #16
   847d6:	454a      	cmp	r2, r9
   847d8:	ea4f 4b2c 	mov.w	fp, ip, asr #16
   847dc:	f840 ab04 	str.w	sl, [r0], #4
   847e0:	d9d9      	bls.n	84796 <quorem+0x42>
   847e2:	9a00      	ldr	r2, [sp, #0]
   847e4:	58ab      	ldr	r3, [r5, r2]
   847e6:	b96b      	cbnz	r3, 84804 <quorem+0xb0>
   847e8:	9a01      	ldr	r2, [sp, #4]
   847ea:	1f13      	subs	r3, r2, #4
   847ec:	42ab      	cmp	r3, r5
   847ee:	461a      	mov	r2, r3
   847f0:	d802      	bhi.n	847f8 <quorem+0xa4>
   847f2:	f8c8 4010 	str.w	r4, [r8, #16]
   847f6:	e005      	b.n	84804 <quorem+0xb0>
   847f8:	6812      	ldr	r2, [r2, #0]
   847fa:	3b04      	subs	r3, #4
   847fc:	2a00      	cmp	r2, #0
   847fe:	d1f8      	bne.n	847f2 <quorem+0x9e>
   84800:	3c01      	subs	r4, #1
   84802:	e7f3      	b.n	847ec <quorem+0x98>
   84804:	4640      	mov	r0, r8
   84806:	f001 f9de 	bl	85bc6 <__mcmp>
   8480a:	2800      	cmp	r0, #0
   8480c:	db2b      	blt.n	84866 <quorem+0x112>
   8480e:	3601      	adds	r6, #1
   84810:	462b      	mov	r3, r5
   84812:	2000      	movs	r0, #0
   84814:	f857 cb04 	ldr.w	ip, [r7], #4
   84818:	681a      	ldr	r2, [r3, #0]
   8481a:	fa1f f18c 	uxth.w	r1, ip
   8481e:	1a41      	subs	r1, r0, r1
   84820:	fa1f fa82 	uxth.w	sl, r2
   84824:	ea4f 4c1c 	mov.w	ip, ip, lsr #16
   84828:	4451      	add	r1, sl
   8482a:	ebcc 4212 	rsb	r2, ip, r2, lsr #16
   8482e:	eb02 4221 	add.w	r2, r2, r1, asr #16
   84832:	b289      	uxth	r1, r1
   84834:	1410      	asrs	r0, r2, #16
   84836:	454f      	cmp	r7, r9
   84838:	ea41 4202 	orr.w	r2, r1, r2, lsl #16
   8483c:	f843 2b04 	str.w	r2, [r3], #4
   84840:	d9e8      	bls.n	84814 <quorem+0xc0>
   84842:	f855 2024 	ldr.w	r2, [r5, r4, lsl #2]
   84846:	eb05 0384 	add.w	r3, r5, r4, lsl #2
   8484a:	b962      	cbnz	r2, 84866 <quorem+0x112>
   8484c:	3b04      	subs	r3, #4
   8484e:	42ab      	cmp	r3, r5
   84850:	461a      	mov	r2, r3
   84852:	d802      	bhi.n	8485a <quorem+0x106>
   84854:	f8c8 4010 	str.w	r4, [r8, #16]
   84858:	e005      	b.n	84866 <quorem+0x112>
   8485a:	6812      	ldr	r2, [r2, #0]
   8485c:	3b04      	subs	r3, #4
   8485e:	2a00      	cmp	r2, #0
   84860:	d1f8      	bne.n	84854 <quorem+0x100>
   84862:	3c01      	subs	r4, #1
   84864:	e7f3      	b.n	8484e <quorem+0xfa>
   84866:	4630      	mov	r0, r6
   84868:	e000      	b.n	8486c <quorem+0x118>
   8486a:	2000      	movs	r0, #0
   8486c:	b003      	add	sp, #12
   8486e:	e8bd 8ff0 	ldmia.w	sp!, {r4, r5, r6, r7, r8, r9, sl, fp, pc}
   84872:	0000      	movs	r0, r0
   84874:	0000      	movs	r0, r0
	...

00084878 <_dtoa_r>:
   84878:	e92d 4ff0 	stmdb	sp!, {r4, r5, r6, r7, r8, r9, sl, fp, lr}
   8487c:	6a45      	ldr	r5, [r0, #36]	; 0x24
   8487e:	b09b      	sub	sp, #108	; 0x6c
   84880:	4682      	mov	sl, r0
   84882:	9c27      	ldr	r4, [sp, #156]	; 0x9c
   84884:	e9cd 2304 	strd	r2, r3, [sp, #16]
   84888:	b945      	cbnz	r5, 8489c <_dtoa_r+0x24>
   8488a:	2010      	movs	r0, #16
   8488c:	f000 ff70 	bl	85770 <malloc>
   84890:	f8ca 0024 	str.w	r0, [sl, #36]	; 0x24
   84894:	6045      	str	r5, [r0, #4]
   84896:	6085      	str	r5, [r0, #8]
   84898:	6005      	str	r5, [r0, #0]
   8489a:	60c5      	str	r5, [r0, #12]
   8489c:	f8da 3024 	ldr.w	r3, [sl, #36]	; 0x24
   848a0:	6819      	ldr	r1, [r3, #0]
   848a2:	b161      	cbz	r1, 848be <_dtoa_r+0x46>
   848a4:	685b      	ldr	r3, [r3, #4]
   848a6:	2201      	movs	r2, #1
   848a8:	604b      	str	r3, [r1, #4]
   848aa:	fa02 f303 	lsl.w	r3, r2, r3
   848ae:	4650      	mov	r0, sl
   848b0:	608b      	str	r3, [r1, #8]
   848b2:	f000 ffa8 	bl	85806 <_Bfree>
   848b6:	f8da 3024 	ldr.w	r3, [sl, #36]	; 0x24
   848ba:	2200      	movs	r2, #0
   848bc:	601a      	str	r2, [r3, #0]
   848be:	9805      	ldr	r0, [sp, #20]
   848c0:	2800      	cmp	r0, #0
   848c2:	da05      	bge.n	848d0 <_dtoa_r+0x58>
   848c4:	2301      	movs	r3, #1
   848c6:	f020 4100 	bic.w	r1, r0, #2147483648	; 0x80000000
   848ca:	6023      	str	r3, [r4, #0]
   848cc:	9105      	str	r1, [sp, #20]
   848ce:	e001      	b.n	848d4 <_dtoa_r+0x5c>
   848d0:	2300      	movs	r3, #0
   848d2:	6023      	str	r3, [r4, #0]
   848d4:	9f05      	ldr	r7, [sp, #20]
   848d6:	4a9c      	ldr	r2, [pc, #624]	; (84b48 <_dtoa_r+0x2d0>)
   848d8:	f027 4300 	bic.w	r3, r7, #2147483648	; 0x80000000
   848dc:	0d1b      	lsrs	r3, r3, #20
   848de:	051b      	lsls	r3, r3, #20
   848e0:	4293      	cmp	r3, r2
   848e2:	d11d      	bne.n	84920 <_dtoa_r+0xa8>
   848e4:	9a26      	ldr	r2, [sp, #152]	; 0x98
   848e6:	f242 730f 	movw	r3, #9999	; 0x270f
   848ea:	6013      	str	r3, [r2, #0]
   848ec:	9b04      	ldr	r3, [sp, #16]
   848ee:	b943      	cbnz	r3, 84902 <_dtoa_r+0x8a>
   848f0:	4b96      	ldr	r3, [pc, #600]	; (84b4c <_dtoa_r+0x2d4>)
   848f2:	4a97      	ldr	r2, [pc, #604]	; (84b50 <_dtoa_r+0x2d8>)
   848f4:	f3c7 0013 	ubfx	r0, r7, #0, #20
   848f8:	2800      	cmp	r0, #0
   848fa:	bf0c      	ite	eq
   848fc:	4610      	moveq	r0, r2
   848fe:	4618      	movne	r0, r3
   84900:	e000      	b.n	84904 <_dtoa_r+0x8c>
   84902:	4892      	ldr	r0, [pc, #584]	; (84b4c <_dtoa_r+0x2d4>)
   84904:	9f28      	ldr	r7, [sp, #160]	; 0xa0
   84906:	2f00      	cmp	r7, #0
   84908:	f000 8571 	beq.w	853ee <_dtoa_r+0xb76>
   8490c:	78c3      	ldrb	r3, [r0, #3]
   8490e:	b113      	cbz	r3, 84916 <_dtoa_r+0x9e>
   84910:	f100 0308 	add.w	r3, r0, #8
   84914:	e000      	b.n	84918 <_dtoa_r+0xa0>
   84916:	1cc3      	adds	r3, r0, #3
   84918:	9f28      	ldr	r7, [sp, #160]	; 0xa0
   8491a:	603b      	str	r3, [r7, #0]
   8491c:	f000 bd67 	b.w	853ee <_dtoa_r+0xb76>
   84920:	e9dd 4504 	ldrd	r4, r5, [sp, #16]
   84924:	2200      	movs	r2, #0
   84926:	4620      	mov	r0, r4
   84928:	4629      	mov	r1, r5
   8492a:	2300      	movs	r3, #0
   8492c:	f001 ffbe 	bl	868ac <__aeabi_dcmpeq>
   84930:	4680      	mov	r8, r0
   84932:	b158      	cbz	r0, 8494c <_dtoa_r+0xd4>
   84934:	9f26      	ldr	r7, [sp, #152]	; 0x98
   84936:	2301      	movs	r3, #1
   84938:	603b      	str	r3, [r7, #0]
   8493a:	9f28      	ldr	r7, [sp, #160]	; 0xa0
   8493c:	2f00      	cmp	r7, #0
   8493e:	f000 8553 	beq.w	853e8 <_dtoa_r+0xb70>
   84942:	4884      	ldr	r0, [pc, #528]	; (84b54 <_dtoa_r+0x2dc>)
   84944:	6038      	str	r0, [r7, #0]
   84946:	3801      	subs	r0, #1
   84948:	f000 bd51 	b.w	853ee <_dtoa_r+0xb76>
   8494c:	ab19      	add	r3, sp, #100	; 0x64
   8494e:	9300      	str	r3, [sp, #0]
   84950:	ab18      	add	r3, sp, #96	; 0x60
   84952:	9301      	str	r3, [sp, #4]
   84954:	4650      	mov	r0, sl
   84956:	4622      	mov	r2, r4
   84958:	462b      	mov	r3, r5
   8495a:	f001 f9b0 	bl	85cbe <__d2b>
   8495e:	f3c7 560a 	ubfx	r6, r7, #20, #11
   84962:	4683      	mov	fp, r0
   84964:	b15e      	cbz	r6, 8497e <_dtoa_r+0x106>
   84966:	f3c5 0313 	ubfx	r3, r5, #0, #20
   8496a:	f043 517f 	orr.w	r1, r3, #1069547520	; 0x3fc00000
   8496e:	4620      	mov	r0, r4
   84970:	f441 1140 	orr.w	r1, r1, #3145728	; 0x300000
   84974:	f2a6 36ff 	subw	r6, r6, #1023	; 0x3ff
   84978:	f8cd 8054 	str.w	r8, [sp, #84]	; 0x54
   8497c:	e01c      	b.n	849b8 <_dtoa_r+0x140>
   8497e:	9b19      	ldr	r3, [sp, #100]	; 0x64
   84980:	9e18      	ldr	r6, [sp, #96]	; 0x60
   84982:	441e      	add	r6, r3
   84984:	f46f 6382 	mvn.w	r3, #1040	; 0x410
   84988:	429e      	cmp	r6, r3
   8498a:	db09      	blt.n	849a0 <_dtoa_r+0x128>
   8498c:	9904      	ldr	r1, [sp, #16]
   8498e:	331f      	adds	r3, #31
   84990:	f206 4012 	addw	r0, r6, #1042	; 0x412
   84994:	1b9b      	subs	r3, r3, r6
   84996:	fa21 f000 	lsr.w	r0, r1, r0
   8499a:	409f      	lsls	r7, r3
   8499c:	4338      	orrs	r0, r7
   8499e:	e004      	b.n	849aa <_dtoa_r+0x132>
   849a0:	486d      	ldr	r0, [pc, #436]	; (84b58 <_dtoa_r+0x2e0>)
   849a2:	9a04      	ldr	r2, [sp, #16]
   849a4:	1b80      	subs	r0, r0, r6
   849a6:	fa02 f000 	lsl.w	r0, r2, r0
   849aa:	f001 fca1 	bl	862f0 <__aeabi_ui2d>
   849ae:	2701      	movs	r7, #1
   849b0:	f1a1 71f8 	sub.w	r1, r1, #32505856	; 0x1f00000
   849b4:	3e01      	subs	r6, #1
   849b6:	9715      	str	r7, [sp, #84]	; 0x54
   849b8:	2200      	movs	r2, #0
   849ba:	4b68      	ldr	r3, [pc, #416]	; (84b5c <_dtoa_r+0x2e4>)
   849bc:	f001 fb5a 	bl	86074 <__aeabi_dsub>
   849c0:	a35b      	add	r3, pc, #364	; (adr r3, 84b30 <_dtoa_r+0x2b8>)
   849c2:	e9d3 2300 	ldrd	r2, r3, [r3]
   849c6:	f001 fd09 	bl	863dc <__aeabi_dmul>
   849ca:	a35b      	add	r3, pc, #364	; (adr r3, 84b38 <_dtoa_r+0x2c0>)
   849cc:	e9d3 2300 	ldrd	r2, r3, [r3]
   849d0:	f001 fb52 	bl	86078 <__adddf3>
   849d4:	4604      	mov	r4, r0
   849d6:	4630      	mov	r0, r6
   849d8:	460d      	mov	r5, r1
   849da:	f001 fc99 	bl	86310 <__aeabi_i2d>
   849de:	a358      	add	r3, pc, #352	; (adr r3, 84b40 <_dtoa_r+0x2c8>)
   849e0:	e9d3 2300 	ldrd	r2, r3, [r3]
   849e4:	f001 fcfa 	bl	863dc <__aeabi_dmul>
   849e8:	4602      	mov	r2, r0
   849ea:	460b      	mov	r3, r1
   849ec:	4620      	mov	r0, r4
   849ee:	4629      	mov	r1, r5
   849f0:	f001 fb42 	bl	86078 <__adddf3>
   849f4:	4604      	mov	r4, r0
   849f6:	460d      	mov	r5, r1
   849f8:	f001 ff8a 	bl	86910 <__aeabi_d2iz>
   849fc:	4629      	mov	r1, r5
   849fe:	4681      	mov	r9, r0
   84a00:	2200      	movs	r2, #0
   84a02:	4620      	mov	r0, r4
   84a04:	2300      	movs	r3, #0
   84a06:	f001 ff5b 	bl	868c0 <__aeabi_dcmplt>
   84a0a:	b158      	cbz	r0, 84a24 <_dtoa_r+0x1ac>
   84a0c:	4648      	mov	r0, r9
   84a0e:	f001 fc7f 	bl	86310 <__aeabi_i2d>
   84a12:	4602      	mov	r2, r0
   84a14:	460b      	mov	r3, r1
   84a16:	4620      	mov	r0, r4
   84a18:	4629      	mov	r1, r5
   84a1a:	f001 ff47 	bl	868ac <__aeabi_dcmpeq>
   84a1e:	b908      	cbnz	r0, 84a24 <_dtoa_r+0x1ac>
   84a20:	f109 39ff 	add.w	r9, r9, #4294967295
   84a24:	f1b9 0f16 	cmp.w	r9, #22
   84a28:	d80d      	bhi.n	84a46 <_dtoa_r+0x1ce>
   84a2a:	4b4d      	ldr	r3, [pc, #308]	; (84b60 <_dtoa_r+0x2e8>)
   84a2c:	eb03 03c9 	add.w	r3, r3, r9, lsl #3
   84a30:	e9d3 0100 	ldrd	r0, r1, [r3]
   84a34:	e9dd 2304 	ldrd	r2, r3, [sp, #16]
   84a38:	f001 ff60 	bl	868fc <__aeabi_dcmpgt>
   84a3c:	b130      	cbz	r0, 84a4c <_dtoa_r+0x1d4>
   84a3e:	f109 39ff 	add.w	r9, r9, #4294967295
   84a42:	2700      	movs	r7, #0
   84a44:	e000      	b.n	84a48 <_dtoa_r+0x1d0>
   84a46:	2701      	movs	r7, #1
   84a48:	9714      	str	r7, [sp, #80]	; 0x50
   84a4a:	e000      	b.n	84a4e <_dtoa_r+0x1d6>
   84a4c:	9014      	str	r0, [sp, #80]	; 0x50
   84a4e:	9b18      	ldr	r3, [sp, #96]	; 0x60
   84a50:	1b9e      	subs	r6, r3, r6
   84a52:	3e01      	subs	r6, #1
   84a54:	9609      	str	r6, [sp, #36]	; 0x24
   84a56:	d504      	bpl.n	84a62 <_dtoa_r+0x1ea>
   84a58:	4277      	negs	r7, r6
   84a5a:	9708      	str	r7, [sp, #32]
   84a5c:	2700      	movs	r7, #0
   84a5e:	9709      	str	r7, [sp, #36]	; 0x24
   84a60:	e001      	b.n	84a66 <_dtoa_r+0x1ee>
   84a62:	2700      	movs	r7, #0
   84a64:	9708      	str	r7, [sp, #32]
   84a66:	f1b9 0f00 	cmp.w	r9, #0
   84a6a:	db07      	blt.n	84a7c <_dtoa_r+0x204>
   84a6c:	9f09      	ldr	r7, [sp, #36]	; 0x24
   84a6e:	f8cd 9044 	str.w	r9, [sp, #68]	; 0x44
   84a72:	444f      	add	r7, r9
   84a74:	9709      	str	r7, [sp, #36]	; 0x24
   84a76:	2700      	movs	r7, #0
   84a78:	970e      	str	r7, [sp, #56]	; 0x38
   84a7a:	e008      	b.n	84a8e <_dtoa_r+0x216>
   84a7c:	9f08      	ldr	r7, [sp, #32]
   84a7e:	ebc9 0707 	rsb	r7, r9, r7
   84a82:	9708      	str	r7, [sp, #32]
   84a84:	f1c9 0700 	rsb	r7, r9, #0
   84a88:	970e      	str	r7, [sp, #56]	; 0x38
   84a8a:	2700      	movs	r7, #0
   84a8c:	9711      	str	r7, [sp, #68]	; 0x44
   84a8e:	9f24      	ldr	r7, [sp, #144]	; 0x90
   84a90:	2f09      	cmp	r7, #9
   84a92:	d829      	bhi.n	84ae8 <_dtoa_r+0x270>
   84a94:	2f05      	cmp	r7, #5
   84a96:	bfc4      	itt	gt
   84a98:	3f04      	subgt	r7, #4
   84a9a:	9724      	strgt	r7, [sp, #144]	; 0x90
   84a9c:	9f24      	ldr	r7, [sp, #144]	; 0x90
   84a9e:	bfc8      	it	gt
   84aa0:	2500      	movgt	r5, #0
   84aa2:	f1a7 0302 	sub.w	r3, r7, #2
   84aa6:	bfd8      	it	le
   84aa8:	2501      	movle	r5, #1
   84aaa:	2b03      	cmp	r3, #3
   84aac:	d821      	bhi.n	84af2 <_dtoa_r+0x27a>
   84aae:	e8df f003 	tbb	[pc, r3]
   84ab2:	0f06      	.short	0x0f06
   84ab4:	0402      	.short	0x0402
   84ab6:	2701      	movs	r7, #1
   84ab8:	e002      	b.n	84ac0 <_dtoa_r+0x248>
   84aba:	2701      	movs	r7, #1
   84abc:	e009      	b.n	84ad2 <_dtoa_r+0x25a>
   84abe:	2700      	movs	r7, #0
   84ac0:	970f      	str	r7, [sp, #60]	; 0x3c
   84ac2:	9f25      	ldr	r7, [sp, #148]	; 0x94
   84ac4:	2f00      	cmp	r7, #0
   84ac6:	dd1e      	ble.n	84b06 <_dtoa_r+0x28e>
   84ac8:	970b      	str	r7, [sp, #44]	; 0x2c
   84aca:	9707      	str	r7, [sp, #28]
   84acc:	463b      	mov	r3, r7
   84ace:	e01f      	b.n	84b10 <_dtoa_r+0x298>
   84ad0:	2700      	movs	r7, #0
   84ad2:	970f      	str	r7, [sp, #60]	; 0x3c
   84ad4:	9f25      	ldr	r7, [sp, #148]	; 0x94
   84ad6:	444f      	add	r7, r9
   84ad8:	970b      	str	r7, [sp, #44]	; 0x2c
   84ada:	3701      	adds	r7, #1
   84adc:	463b      	mov	r3, r7
   84ade:	9707      	str	r7, [sp, #28]
   84ae0:	2b01      	cmp	r3, #1
   84ae2:	bfb8      	it	lt
   84ae4:	2301      	movlt	r3, #1
   84ae6:	e013      	b.n	84b10 <_dtoa_r+0x298>
   84ae8:	2501      	movs	r5, #1
   84aea:	2700      	movs	r7, #0
   84aec:	9724      	str	r7, [sp, #144]	; 0x90
   84aee:	950f      	str	r5, [sp, #60]	; 0x3c
   84af0:	e001      	b.n	84af6 <_dtoa_r+0x27e>
   84af2:	2701      	movs	r7, #1
   84af4:	970f      	str	r7, [sp, #60]	; 0x3c
   84af6:	f04f 37ff 	mov.w	r7, #4294967295
   84afa:	970b      	str	r7, [sp, #44]	; 0x2c
   84afc:	9707      	str	r7, [sp, #28]
   84afe:	2700      	movs	r7, #0
   84b00:	2312      	movs	r3, #18
   84b02:	9725      	str	r7, [sp, #148]	; 0x94
   84b04:	e004      	b.n	84b10 <_dtoa_r+0x298>
   84b06:	2701      	movs	r7, #1
   84b08:	970b      	str	r7, [sp, #44]	; 0x2c
   84b0a:	9707      	str	r7, [sp, #28]
   84b0c:	463b      	mov	r3, r7
   84b0e:	9725      	str	r7, [sp, #148]	; 0x94
   84b10:	f8da 4024 	ldr.w	r4, [sl, #36]	; 0x24
   84b14:	2200      	movs	r2, #0
   84b16:	6062      	str	r2, [r4, #4]
   84b18:	2104      	movs	r1, #4
   84b1a:	f101 0214 	add.w	r2, r1, #20
   84b1e:	429a      	cmp	r2, r3
   84b20:	d820      	bhi.n	84b64 <_dtoa_r+0x2ec>
   84b22:	6862      	ldr	r2, [r4, #4]
   84b24:	0049      	lsls	r1, r1, #1
   84b26:	3201      	adds	r2, #1
   84b28:	6062      	str	r2, [r4, #4]
   84b2a:	e7f6      	b.n	84b1a <_dtoa_r+0x2a2>
   84b2c:	f3af 8000 	nop.w
   84b30:	636f4361 	.word	0x636f4361
   84b34:	3fd287a7 	.word	0x3fd287a7
   84b38:	8b60c8b3 	.word	0x8b60c8b3
   84b3c:	3fc68a28 	.word	0x3fc68a28
   84b40:	509f79fb 	.word	0x509f79fb
   84b44:	3fd34413 	.word	0x3fd34413
   84b48:	7ff00000 	.word	0x7ff00000
   84b4c:	000870ea 	.word	0x000870ea
   84b50:	000870e1 	.word	0x000870e1
   84b54:	000870be 	.word	0x000870be
   84b58:	fffffbee 	.word	0xfffffbee
   84b5c:	3ff80000 	.word	0x3ff80000
   84b60:	00087158 	.word	0x00087158
   84b64:	4650      	mov	r0, sl
   84b66:	6861      	ldr	r1, [r4, #4]
   84b68:	f000 fe18 	bl	8579c <_Balloc>
   84b6c:	f8da 3024 	ldr.w	r3, [sl, #36]	; 0x24
   84b70:	6020      	str	r0, [r4, #0]
   84b72:	9f07      	ldr	r7, [sp, #28]
   84b74:	681b      	ldr	r3, [r3, #0]
   84b76:	2f0e      	cmp	r7, #14
   84b78:	930a      	str	r3, [sp, #40]	; 0x28
   84b7a:	f200 816b 	bhi.w	84e54 <_dtoa_r+0x5dc>
   84b7e:	2d00      	cmp	r5, #0
   84b80:	f000 8168 	beq.w	84e54 <_dtoa_r+0x5dc>
   84b84:	f1b9 0f00 	cmp.w	r9, #0
   84b88:	e9dd 0104 	ldrd	r0, r1, [sp, #16]
   84b8c:	e9cd 0112 	strd	r0, r1, [sp, #72]	; 0x48
   84b90:	dd31      	ble.n	84bf6 <_dtoa_r+0x37e>
   84b92:	4a81      	ldr	r2, [pc, #516]	; (84d98 <_dtoa_r+0x520>)
   84b94:	f009 030f 	and.w	r3, r9, #15
   84b98:	eb02 03c3 	add.w	r3, r2, r3, lsl #3
   84b9c:	ea4f 1429 	mov.w	r4, r9, asr #4
   84ba0:	e9d3 0100 	ldrd	r0, r1, [r3]
   84ba4:	e9cd 010c 	strd	r0, r1, [sp, #48]	; 0x30
   84ba8:	06e0      	lsls	r0, r4, #27
   84baa:	d50c      	bpl.n	84bc6 <_dtoa_r+0x34e>
   84bac:	e9dd 0112 	ldrd	r0, r1, [sp, #72]	; 0x48
   84bb0:	4b7a      	ldr	r3, [pc, #488]	; (84d9c <_dtoa_r+0x524>)
   84bb2:	f004 040f 	and.w	r4, r4, #15
   84bb6:	e9d3 2308 	ldrd	r2, r3, [r3, #32]
   84bba:	f001 fd39 	bl	86630 <__aeabi_ddiv>
   84bbe:	2703      	movs	r7, #3
   84bc0:	e9cd 0104 	strd	r0, r1, [sp, #16]
   84bc4:	e000      	b.n	84bc8 <_dtoa_r+0x350>
   84bc6:	2702      	movs	r7, #2
   84bc8:	4d74      	ldr	r5, [pc, #464]	; (84d9c <_dtoa_r+0x524>)
   84bca:	b16c      	cbz	r4, 84be8 <_dtoa_r+0x370>
   84bcc:	07e1      	lsls	r1, r4, #31
   84bce:	d508      	bpl.n	84be2 <_dtoa_r+0x36a>
   84bd0:	e9dd 010c 	ldrd	r0, r1, [sp, #48]	; 0x30
   84bd4:	e9d5 2300 	ldrd	r2, r3, [r5]
   84bd8:	f001 fc00 	bl	863dc <__aeabi_dmul>
   84bdc:	e9cd 010c 	strd	r0, r1, [sp, #48]	; 0x30
   84be0:	3701      	adds	r7, #1
   84be2:	1064      	asrs	r4, r4, #1
   84be4:	3508      	adds	r5, #8
   84be6:	e7f0      	b.n	84bca <_dtoa_r+0x352>
   84be8:	e9dd 0104 	ldrd	r0, r1, [sp, #16]
   84bec:	e9dd 230c 	ldrd	r2, r3, [sp, #48]	; 0x30
   84bf0:	f001 fd1e 	bl	86630 <__aeabi_ddiv>
   84bf4:	e01b      	b.n	84c2e <_dtoa_r+0x3b6>
   84bf6:	f1c9 0400 	rsb	r4, r9, #0
   84bfa:	b1dc      	cbz	r4, 84c34 <_dtoa_r+0x3bc>
   84bfc:	4b66      	ldr	r3, [pc, #408]	; (84d98 <_dtoa_r+0x520>)
   84bfe:	f004 020f 	and.w	r2, r4, #15
   84c02:	eb03 03c2 	add.w	r3, r3, r2, lsl #3
   84c06:	e9dd 0112 	ldrd	r0, r1, [sp, #72]	; 0x48
   84c0a:	e9d3 2300 	ldrd	r2, r3, [r3]
   84c0e:	f001 fbe5 	bl	863dc <__aeabi_dmul>
   84c12:	4d62      	ldr	r5, [pc, #392]	; (84d9c <_dtoa_r+0x524>)
   84c14:	1124      	asrs	r4, r4, #4
   84c16:	2702      	movs	r7, #2
   84c18:	b14c      	cbz	r4, 84c2e <_dtoa_r+0x3b6>
   84c1a:	07e2      	lsls	r2, r4, #31
   84c1c:	d504      	bpl.n	84c28 <_dtoa_r+0x3b0>
   84c1e:	e9d5 2300 	ldrd	r2, r3, [r5]
   84c22:	3701      	adds	r7, #1
   84c24:	f001 fbda 	bl	863dc <__aeabi_dmul>
   84c28:	1064      	asrs	r4, r4, #1
   84c2a:	3508      	adds	r5, #8
   84c2c:	e7f4      	b.n	84c18 <_dtoa_r+0x3a0>
   84c2e:	e9cd 0104 	strd	r0, r1, [sp, #16]
   84c32:	e000      	b.n	84c36 <_dtoa_r+0x3be>
   84c34:	2702      	movs	r7, #2
   84c36:	9914      	ldr	r1, [sp, #80]	; 0x50
   84c38:	b1e9      	cbz	r1, 84c76 <_dtoa_r+0x3fe>
   84c3a:	e9dd 4504 	ldrd	r4, r5, [sp, #16]
   84c3e:	2200      	movs	r2, #0
   84c40:	4620      	mov	r0, r4
   84c42:	4629      	mov	r1, r5
   84c44:	4b56      	ldr	r3, [pc, #344]	; (84da0 <_dtoa_r+0x528>)
   84c46:	f001 fe3b 	bl	868c0 <__aeabi_dcmplt>
   84c4a:	b1c8      	cbz	r0, 84c80 <_dtoa_r+0x408>
   84c4c:	9a07      	ldr	r2, [sp, #28]
   84c4e:	b1e2      	cbz	r2, 84c8a <_dtoa_r+0x412>
   84c50:	9b0b      	ldr	r3, [sp, #44]	; 0x2c
   84c52:	2b00      	cmp	r3, #0
   84c54:	f340 80fa 	ble.w	84e4c <_dtoa_r+0x5d4>
   84c58:	f109 30ff 	add.w	r0, r9, #4294967295
   84c5c:	9010      	str	r0, [sp, #64]	; 0x40
   84c5e:	4629      	mov	r1, r5
   84c60:	4620      	mov	r0, r4
   84c62:	2200      	movs	r2, #0
   84c64:	4b4f      	ldr	r3, [pc, #316]	; (84da4 <_dtoa_r+0x52c>)
   84c66:	f001 fbb9 	bl	863dc <__aeabi_dmul>
   84c6a:	e9cd 0104 	strd	r0, r1, [sp, #16]
   84c6e:	990b      	ldr	r1, [sp, #44]	; 0x2c
   84c70:	3701      	adds	r7, #1
   84c72:	910c      	str	r1, [sp, #48]	; 0x30
   84c74:	e00d      	b.n	84c92 <_dtoa_r+0x41a>
   84c76:	9a07      	ldr	r2, [sp, #28]
   84c78:	f8cd 9040 	str.w	r9, [sp, #64]	; 0x40
   84c7c:	920c      	str	r2, [sp, #48]	; 0x30
   84c7e:	e008      	b.n	84c92 <_dtoa_r+0x41a>
   84c80:	9b07      	ldr	r3, [sp, #28]
   84c82:	f8cd 9040 	str.w	r9, [sp, #64]	; 0x40
   84c86:	930c      	str	r3, [sp, #48]	; 0x30
   84c88:	e003      	b.n	84c92 <_dtoa_r+0x41a>
   84c8a:	9807      	ldr	r0, [sp, #28]
   84c8c:	f8cd 9040 	str.w	r9, [sp, #64]	; 0x40
   84c90:	900c      	str	r0, [sp, #48]	; 0x30
   84c92:	4638      	mov	r0, r7
   84c94:	f001 fb3c 	bl	86310 <__aeabi_i2d>
   84c98:	e9dd 2304 	ldrd	r2, r3, [sp, #16]
   84c9c:	f001 fb9e 	bl	863dc <__aeabi_dmul>
   84ca0:	2200      	movs	r2, #0
   84ca2:	4b41      	ldr	r3, [pc, #260]	; (84da8 <_dtoa_r+0x530>)
   84ca4:	f001 f9e8 	bl	86078 <__adddf3>
   84ca8:	9f0c      	ldr	r7, [sp, #48]	; 0x30
   84caa:	4604      	mov	r4, r0
   84cac:	f1a1 7550 	sub.w	r5, r1, #54525952	; 0x3400000
   84cb0:	b9cf      	cbnz	r7, 84ce6 <_dtoa_r+0x46e>
   84cb2:	2200      	movs	r2, #0
   84cb4:	4b3d      	ldr	r3, [pc, #244]	; (84dac <_dtoa_r+0x534>)
   84cb6:	e9dd 0104 	ldrd	r0, r1, [sp, #16]
   84cba:	f001 f9db 	bl	86074 <__aeabi_dsub>
   84cbe:	4622      	mov	r2, r4
   84cc0:	462b      	mov	r3, r5
   84cc2:	4606      	mov	r6, r0
   84cc4:	460f      	mov	r7, r1
   84cc6:	f001 fe19 	bl	868fc <__aeabi_dcmpgt>
   84cca:	2800      	cmp	r0, #0
   84ccc:	f040 8253 	bne.w	85176 <_dtoa_r+0x8fe>
   84cd0:	4622      	mov	r2, r4
   84cd2:	f105 4300 	add.w	r3, r5, #2147483648	; 0x80000000
   84cd6:	4630      	mov	r0, r6
   84cd8:	4639      	mov	r1, r7
   84cda:	f001 fdf1 	bl	868c0 <__aeabi_dcmplt>
   84cde:	2800      	cmp	r0, #0
   84ce0:	f040 823f 	bne.w	85162 <_dtoa_r+0x8ea>
   84ce4:	e0b2      	b.n	84e4c <_dtoa_r+0x5d4>
   84ce6:	9f0c      	ldr	r7, [sp, #48]	; 0x30
   84ce8:	4b2b      	ldr	r3, [pc, #172]	; (84d98 <_dtoa_r+0x520>)
   84cea:	1e7a      	subs	r2, r7, #1
   84cec:	9f0f      	ldr	r7, [sp, #60]	; 0x3c
   84cee:	eb03 03c2 	add.w	r3, r3, r2, lsl #3
   84cf2:	2f00      	cmp	r7, #0
   84cf4:	d05e      	beq.n	84db4 <_dtoa_r+0x53c>
   84cf6:	e9d3 2300 	ldrd	r2, r3, [r3]
   84cfa:	2000      	movs	r0, #0
   84cfc:	492c      	ldr	r1, [pc, #176]	; (84db0 <_dtoa_r+0x538>)
   84cfe:	f001 fc97 	bl	86630 <__aeabi_ddiv>
   84d02:	4622      	mov	r2, r4
   84d04:	462b      	mov	r3, r5
   84d06:	f001 f9b5 	bl	86074 <__aeabi_dsub>
   84d0a:	e9dd 6704 	ldrd	r6, r7, [sp, #16]
   84d0e:	f8dd 8028 	ldr.w	r8, [sp, #40]	; 0x28
   84d12:	4604      	mov	r4, r0
   84d14:	460d      	mov	r5, r1
   84d16:	4639      	mov	r1, r7
   84d18:	4630      	mov	r0, r6
   84d1a:	f001 fdf9 	bl	86910 <__aeabi_d2iz>
   84d1e:	9002      	str	r0, [sp, #8]
   84d20:	f001 faf6 	bl	86310 <__aeabi_i2d>
   84d24:	4602      	mov	r2, r0
   84d26:	460b      	mov	r3, r1
   84d28:	4630      	mov	r0, r6
   84d2a:	4639      	mov	r1, r7
   84d2c:	f001 f9a2 	bl	86074 <__aeabi_dsub>
   84d30:	f8dd c008 	ldr.w	ip, [sp, #8]
   84d34:	4622      	mov	r2, r4
   84d36:	f10c 0330 	add.w	r3, ip, #48	; 0x30
   84d3a:	f808 3b01 	strb.w	r3, [r8], #1
   84d3e:	462b      	mov	r3, r5
   84d40:	4606      	mov	r6, r0
   84d42:	460f      	mov	r7, r1
   84d44:	f001 fdbc 	bl	868c0 <__aeabi_dcmplt>
   84d48:	2800      	cmp	r0, #0
   84d4a:	f040 833b 	bne.w	853c4 <_dtoa_r+0xb4c>
   84d4e:	4632      	mov	r2, r6
   84d50:	463b      	mov	r3, r7
   84d52:	2000      	movs	r0, #0
   84d54:	4912      	ldr	r1, [pc, #72]	; (84da0 <_dtoa_r+0x528>)
   84d56:	f001 f98d 	bl	86074 <__aeabi_dsub>
   84d5a:	4622      	mov	r2, r4
   84d5c:	462b      	mov	r3, r5
   84d5e:	f001 fdaf 	bl	868c0 <__aeabi_dcmplt>
   84d62:	2800      	cmp	r0, #0
   84d64:	f040 80d5 	bne.w	84f12 <_dtoa_r+0x69a>
   84d68:	980a      	ldr	r0, [sp, #40]	; 0x28
   84d6a:	990c      	ldr	r1, [sp, #48]	; 0x30
   84d6c:	ebc0 0308 	rsb	r3, r0, r8
   84d70:	428b      	cmp	r3, r1
   84d72:	da6b      	bge.n	84e4c <_dtoa_r+0x5d4>
   84d74:	4620      	mov	r0, r4
   84d76:	4629      	mov	r1, r5
   84d78:	2200      	movs	r2, #0
   84d7a:	4b0a      	ldr	r3, [pc, #40]	; (84da4 <_dtoa_r+0x52c>)
   84d7c:	f001 fb2e 	bl	863dc <__aeabi_dmul>
   84d80:	2200      	movs	r2, #0
   84d82:	4604      	mov	r4, r0
   84d84:	460d      	mov	r5, r1
   84d86:	4630      	mov	r0, r6
   84d88:	4639      	mov	r1, r7
   84d8a:	4b06      	ldr	r3, [pc, #24]	; (84da4 <_dtoa_r+0x52c>)
   84d8c:	f001 fb26 	bl	863dc <__aeabi_dmul>
   84d90:	4606      	mov	r6, r0
   84d92:	460f      	mov	r7, r1
   84d94:	e7bf      	b.n	84d16 <_dtoa_r+0x49e>
   84d96:	bf00      	nop
   84d98:	00087158 	.word	0x00087158
   84d9c:	00087220 	.word	0x00087220
   84da0:	3ff00000 	.word	0x3ff00000
   84da4:	40240000 	.word	0x40240000
   84da8:	401c0000 	.word	0x401c0000
   84dac:	40140000 	.word	0x40140000
   84db0:	3fe00000 	.word	0x3fe00000
   84db4:	4622      	mov	r2, r4
   84db6:	e9d3 0100 	ldrd	r0, r1, [r3]
   84dba:	462b      	mov	r3, r5
   84dbc:	f001 fb0e 	bl	863dc <__aeabi_dmul>
   84dc0:	e9dd 6704 	ldrd	r6, r7, [sp, #16]
   84dc4:	f8dd 8028 	ldr.w	r8, [sp, #40]	; 0x28
   84dc8:	9a0c      	ldr	r2, [sp, #48]	; 0x30
   84dca:	e9cd 0116 	strd	r0, r1, [sp, #88]	; 0x58
   84dce:	9c0a      	ldr	r4, [sp, #40]	; 0x28
   84dd0:	4490      	add	r8, r2
   84dd2:	4639      	mov	r1, r7
   84dd4:	4630      	mov	r0, r6
   84dd6:	f001 fd9b 	bl	86910 <__aeabi_d2iz>
   84dda:	4605      	mov	r5, r0
   84ddc:	f001 fa98 	bl	86310 <__aeabi_i2d>
   84de0:	4602      	mov	r2, r0
   84de2:	460b      	mov	r3, r1
   84de4:	4630      	mov	r0, r6
   84de6:	4639      	mov	r1, r7
   84de8:	f001 f944 	bl	86074 <__aeabi_dsub>
   84dec:	3530      	adds	r5, #48	; 0x30
   84dee:	f804 5b01 	strb.w	r5, [r4], #1
   84df2:	4544      	cmp	r4, r8
   84df4:	4606      	mov	r6, r0
   84df6:	460f      	mov	r7, r1
   84df8:	d121      	bne.n	84e3e <_dtoa_r+0x5c6>
   84dfa:	2200      	movs	r2, #0
   84dfc:	4b87      	ldr	r3, [pc, #540]	; (8501c <_dtoa_r+0x7a4>)
   84dfe:	e9dd 0116 	ldrd	r0, r1, [sp, #88]	; 0x58
   84e02:	f001 f939 	bl	86078 <__adddf3>
   84e06:	4602      	mov	r2, r0
   84e08:	460b      	mov	r3, r1
   84e0a:	4630      	mov	r0, r6
   84e0c:	4639      	mov	r1, r7
   84e0e:	f001 fd75 	bl	868fc <__aeabi_dcmpgt>
   84e12:	2800      	cmp	r0, #0
   84e14:	d17d      	bne.n	84f12 <_dtoa_r+0x69a>
   84e16:	e9dd 2316 	ldrd	r2, r3, [sp, #88]	; 0x58
   84e1a:	2000      	movs	r0, #0
   84e1c:	497f      	ldr	r1, [pc, #508]	; (8501c <_dtoa_r+0x7a4>)
   84e1e:	f001 f929 	bl	86074 <__aeabi_dsub>
   84e22:	4602      	mov	r2, r0
   84e24:	460b      	mov	r3, r1
   84e26:	4630      	mov	r0, r6
   84e28:	4639      	mov	r1, r7
   84e2a:	f001 fd49 	bl	868c0 <__aeabi_dcmplt>
   84e2e:	b168      	cbz	r0, 84e4c <_dtoa_r+0x5d4>
   84e30:	46a0      	mov	r8, r4
   84e32:	f818 3c01 	ldrb.w	r3, [r8, #-1]
   84e36:	3c01      	subs	r4, #1
   84e38:	2b30      	cmp	r3, #48	; 0x30
   84e3a:	d0f9      	beq.n	84e30 <_dtoa_r+0x5b8>
   84e3c:	e2c2      	b.n	853c4 <_dtoa_r+0xb4c>
   84e3e:	2200      	movs	r2, #0
   84e40:	4b77      	ldr	r3, [pc, #476]	; (85020 <_dtoa_r+0x7a8>)
   84e42:	f001 facb 	bl	863dc <__aeabi_dmul>
   84e46:	4606      	mov	r6, r0
   84e48:	460f      	mov	r7, r1
   84e4a:	e7c2      	b.n	84dd2 <_dtoa_r+0x55a>
   84e4c:	e9dd 0112 	ldrd	r0, r1, [sp, #72]	; 0x48
   84e50:	e9cd 0104 	strd	r0, r1, [sp, #16]
   84e54:	9b19      	ldr	r3, [sp, #100]	; 0x64
   84e56:	2b00      	cmp	r3, #0
   84e58:	db7c      	blt.n	84f54 <_dtoa_r+0x6dc>
   84e5a:	f1b9 0f0e 	cmp.w	r9, #14
   84e5e:	dc79      	bgt.n	84f54 <_dtoa_r+0x6dc>
   84e60:	4b70      	ldr	r3, [pc, #448]	; (85024 <_dtoa_r+0x7ac>)
   84e62:	9f25      	ldr	r7, [sp, #148]	; 0x94
   84e64:	eb03 03c9 	add.w	r3, r3, r9, lsl #3
   84e68:	2f00      	cmp	r7, #0
   84e6a:	e9d3 4500 	ldrd	r4, r5, [r3]
   84e6e:	da14      	bge.n	84e9a <_dtoa_r+0x622>
   84e70:	9f07      	ldr	r7, [sp, #28]
   84e72:	2f00      	cmp	r7, #0
   84e74:	dc11      	bgt.n	84e9a <_dtoa_r+0x622>
   84e76:	f040 8176 	bne.w	85166 <_dtoa_r+0x8ee>
   84e7a:	4620      	mov	r0, r4
   84e7c:	4629      	mov	r1, r5
   84e7e:	2200      	movs	r2, #0
   84e80:	4b69      	ldr	r3, [pc, #420]	; (85028 <_dtoa_r+0x7b0>)
   84e82:	f001 faab 	bl	863dc <__aeabi_dmul>
   84e86:	e9dd 2304 	ldrd	r2, r3, [sp, #16]
   84e8a:	f001 fd2d 	bl	868e8 <__aeabi_dcmpge>
   84e8e:	9d07      	ldr	r5, [sp, #28]
   84e90:	462c      	mov	r4, r5
   84e92:	2800      	cmp	r0, #0
   84e94:	f040 8169 	bne.w	8516a <_dtoa_r+0x8f2>
   84e98:	e171      	b.n	8517e <_dtoa_r+0x906>
   84e9a:	f8dd 8028 	ldr.w	r8, [sp, #40]	; 0x28
   84e9e:	e9dd 6704 	ldrd	r6, r7, [sp, #16]
   84ea2:	4622      	mov	r2, r4
   84ea4:	462b      	mov	r3, r5
   84ea6:	4630      	mov	r0, r6
   84ea8:	4639      	mov	r1, r7
   84eaa:	f001 fbc1 	bl	86630 <__aeabi_ddiv>
   84eae:	f001 fd2f 	bl	86910 <__aeabi_d2iz>
   84eb2:	9004      	str	r0, [sp, #16]
   84eb4:	f001 fa2c 	bl	86310 <__aeabi_i2d>
   84eb8:	4622      	mov	r2, r4
   84eba:	462b      	mov	r3, r5
   84ebc:	f001 fa8e 	bl	863dc <__aeabi_dmul>
   84ec0:	4602      	mov	r2, r0
   84ec2:	460b      	mov	r3, r1
   84ec4:	4630      	mov	r0, r6
   84ec6:	4639      	mov	r1, r7
   84ec8:	f001 f8d4 	bl	86074 <__aeabi_dsub>
   84ecc:	9f04      	ldr	r7, [sp, #16]
   84ece:	4602      	mov	r2, r0
   84ed0:	f107 0630 	add.w	r6, r7, #48	; 0x30
   84ed4:	9f0a      	ldr	r7, [sp, #40]	; 0x28
   84ed6:	f808 6b01 	strb.w	r6, [r8], #1
   84eda:	ebc7 0608 	rsb	r6, r7, r8
   84ede:	9f07      	ldr	r7, [sp, #28]
   84ee0:	460b      	mov	r3, r1
   84ee2:	42be      	cmp	r6, r7
   84ee4:	d129      	bne.n	84f3a <_dtoa_r+0x6c2>
   84ee6:	f001 f8c7 	bl	86078 <__adddf3>
   84eea:	4622      	mov	r2, r4
   84eec:	462b      	mov	r3, r5
   84eee:	4606      	mov	r6, r0
   84ef0:	460f      	mov	r7, r1
   84ef2:	f001 fd03 	bl	868fc <__aeabi_dcmpgt>
   84ef6:	b970      	cbnz	r0, 84f16 <_dtoa_r+0x69e>
   84ef8:	4630      	mov	r0, r6
   84efa:	4639      	mov	r1, r7
   84efc:	4622      	mov	r2, r4
   84efe:	462b      	mov	r3, r5
   84f00:	f001 fcd4 	bl	868ac <__aeabi_dcmpeq>
   84f04:	2800      	cmp	r0, #0
   84f06:	f000 825f 	beq.w	853c8 <_dtoa_r+0xb50>
   84f0a:	9f04      	ldr	r7, [sp, #16]
   84f0c:	07fb      	lsls	r3, r7, #31
   84f0e:	d402      	bmi.n	84f16 <_dtoa_r+0x69e>
   84f10:	e25a      	b.n	853c8 <_dtoa_r+0xb50>
   84f12:	f8dd 9040 	ldr.w	r9, [sp, #64]	; 0x40
   84f16:	4643      	mov	r3, r8
   84f18:	4698      	mov	r8, r3
   84f1a:	f818 2c01 	ldrb.w	r2, [r8, #-1]
   84f1e:	3b01      	subs	r3, #1
   84f20:	2a39      	cmp	r2, #57	; 0x39
   84f22:	d106      	bne.n	84f32 <_dtoa_r+0x6ba>
   84f24:	9f0a      	ldr	r7, [sp, #40]	; 0x28
   84f26:	429f      	cmp	r7, r3
   84f28:	d1f6      	bne.n	84f18 <_dtoa_r+0x6a0>
   84f2a:	2230      	movs	r2, #48	; 0x30
   84f2c:	f109 0901 	add.w	r9, r9, #1
   84f30:	703a      	strb	r2, [r7, #0]
   84f32:	781a      	ldrb	r2, [r3, #0]
   84f34:	3201      	adds	r2, #1
   84f36:	701a      	strb	r2, [r3, #0]
   84f38:	e246      	b.n	853c8 <_dtoa_r+0xb50>
   84f3a:	2200      	movs	r2, #0
   84f3c:	4b38      	ldr	r3, [pc, #224]	; (85020 <_dtoa_r+0x7a8>)
   84f3e:	f001 fa4d 	bl	863dc <__aeabi_dmul>
   84f42:	2200      	movs	r2, #0
   84f44:	2300      	movs	r3, #0
   84f46:	4606      	mov	r6, r0
   84f48:	460f      	mov	r7, r1
   84f4a:	f001 fcaf 	bl	868ac <__aeabi_dcmpeq>
   84f4e:	2800      	cmp	r0, #0
   84f50:	d0a7      	beq.n	84ea2 <_dtoa_r+0x62a>
   84f52:	e239      	b.n	853c8 <_dtoa_r+0xb50>
   84f54:	9f0f      	ldr	r7, [sp, #60]	; 0x3c
   84f56:	2f00      	cmp	r7, #0
   84f58:	d030      	beq.n	84fbc <_dtoa_r+0x744>
   84f5a:	9f24      	ldr	r7, [sp, #144]	; 0x90
   84f5c:	2f01      	cmp	r7, #1
   84f5e:	dc0a      	bgt.n	84f76 <_dtoa_r+0x6fe>
   84f60:	9f15      	ldr	r7, [sp, #84]	; 0x54
   84f62:	b117      	cbz	r7, 84f6a <_dtoa_r+0x6f2>
   84f64:	f203 4333 	addw	r3, r3, #1075	; 0x433
   84f68:	e002      	b.n	84f70 <_dtoa_r+0x6f8>
   84f6a:	9b18      	ldr	r3, [sp, #96]	; 0x60
   84f6c:	f1c3 0336 	rsb	r3, r3, #54	; 0x36
   84f70:	9d0e      	ldr	r5, [sp, #56]	; 0x38
   84f72:	9e08      	ldr	r6, [sp, #32]
   84f74:	e016      	b.n	84fa4 <_dtoa_r+0x72c>
   84f76:	9f07      	ldr	r7, [sp, #28]
   84f78:	1e7d      	subs	r5, r7, #1
   84f7a:	9f0e      	ldr	r7, [sp, #56]	; 0x38
   84f7c:	42af      	cmp	r7, r5
   84f7e:	db01      	blt.n	84f84 <_dtoa_r+0x70c>
   84f80:	1b7d      	subs	r5, r7, r5
   84f82:	e006      	b.n	84f92 <_dtoa_r+0x71a>
   84f84:	9f0e      	ldr	r7, [sp, #56]	; 0x38
   84f86:	950e      	str	r5, [sp, #56]	; 0x38
   84f88:	1beb      	subs	r3, r5, r7
   84f8a:	9f11      	ldr	r7, [sp, #68]	; 0x44
   84f8c:	2500      	movs	r5, #0
   84f8e:	441f      	add	r7, r3
   84f90:	9711      	str	r7, [sp, #68]	; 0x44
   84f92:	9f07      	ldr	r7, [sp, #28]
   84f94:	2f00      	cmp	r7, #0
   84f96:	da03      	bge.n	84fa0 <_dtoa_r+0x728>
   84f98:	9808      	ldr	r0, [sp, #32]
   84f9a:	2300      	movs	r3, #0
   84f9c:	1bc6      	subs	r6, r0, r7
   84f9e:	e001      	b.n	84fa4 <_dtoa_r+0x72c>
   84fa0:	9e08      	ldr	r6, [sp, #32]
   84fa2:	9b07      	ldr	r3, [sp, #28]
   84fa4:	9f08      	ldr	r7, [sp, #32]
   84fa6:	4650      	mov	r0, sl
   84fa8:	441f      	add	r7, r3
   84faa:	9708      	str	r7, [sp, #32]
   84fac:	9f09      	ldr	r7, [sp, #36]	; 0x24
   84fae:	2101      	movs	r1, #1
   84fb0:	441f      	add	r7, r3
   84fb2:	9709      	str	r7, [sp, #36]	; 0x24
   84fb4:	f000 fcc5 	bl	85942 <__i2b>
   84fb8:	4604      	mov	r4, r0
   84fba:	e002      	b.n	84fc2 <_dtoa_r+0x74a>
   84fbc:	9d0e      	ldr	r5, [sp, #56]	; 0x38
   84fbe:	9e08      	ldr	r6, [sp, #32]
   84fc0:	9c0f      	ldr	r4, [sp, #60]	; 0x3c
   84fc2:	b16e      	cbz	r6, 84fe0 <_dtoa_r+0x768>
   84fc4:	9f09      	ldr	r7, [sp, #36]	; 0x24
   84fc6:	2f00      	cmp	r7, #0
   84fc8:	dd0a      	ble.n	84fe0 <_dtoa_r+0x768>
   84fca:	463b      	mov	r3, r7
   84fcc:	9f08      	ldr	r7, [sp, #32]
   84fce:	42b3      	cmp	r3, r6
   84fd0:	bfa8      	it	ge
   84fd2:	4633      	movge	r3, r6
   84fd4:	1aff      	subs	r7, r7, r3
   84fd6:	9708      	str	r7, [sp, #32]
   84fd8:	9f09      	ldr	r7, [sp, #36]	; 0x24
   84fda:	1af6      	subs	r6, r6, r3
   84fdc:	1aff      	subs	r7, r7, r3
   84fde:	9709      	str	r7, [sp, #36]	; 0x24
   84fe0:	9f0e      	ldr	r7, [sp, #56]	; 0x38
   84fe2:	2f00      	cmp	r7, #0
   84fe4:	dd28      	ble.n	85038 <_dtoa_r+0x7c0>
   84fe6:	9f0f      	ldr	r7, [sp, #60]	; 0x3c
   84fe8:	b307      	cbz	r7, 8502c <_dtoa_r+0x7b4>
   84fea:	2d00      	cmp	r5, #0
   84fec:	dd10      	ble.n	85010 <_dtoa_r+0x798>
   84fee:	4621      	mov	r1, r4
   84ff0:	462a      	mov	r2, r5
   84ff2:	4650      	mov	r0, sl
   84ff4:	f000 fd46 	bl	85a84 <__pow5mult>
   84ff8:	4604      	mov	r4, r0
   84ffa:	465a      	mov	r2, fp
   84ffc:	4621      	mov	r1, r4
   84ffe:	4650      	mov	r0, sl
   85000:	f000 fca8 	bl	85954 <__multiply>
   85004:	4659      	mov	r1, fp
   85006:	4607      	mov	r7, r0
   85008:	4650      	mov	r0, sl
   8500a:	f000 fbfc 	bl	85806 <_Bfree>
   8500e:	46bb      	mov	fp, r7
   85010:	9f0e      	ldr	r7, [sp, #56]	; 0x38
   85012:	1b7a      	subs	r2, r7, r5
   85014:	d010      	beq.n	85038 <_dtoa_r+0x7c0>
   85016:	4650      	mov	r0, sl
   85018:	4659      	mov	r1, fp
   8501a:	e00a      	b.n	85032 <_dtoa_r+0x7ba>
   8501c:	3fe00000 	.word	0x3fe00000
   85020:	40240000 	.word	0x40240000
   85024:	00087158 	.word	0x00087158
   85028:	40140000 	.word	0x40140000
   8502c:	9a0e      	ldr	r2, [sp, #56]	; 0x38
   8502e:	4650      	mov	r0, sl
   85030:	4659      	mov	r1, fp
   85032:	f000 fd27 	bl	85a84 <__pow5mult>
   85036:	4683      	mov	fp, r0
   85038:	4650      	mov	r0, sl
   8503a:	2101      	movs	r1, #1
   8503c:	f000 fc81 	bl	85942 <__i2b>
   85040:	9f11      	ldr	r7, [sp, #68]	; 0x44
   85042:	4605      	mov	r5, r0
   85044:	2f00      	cmp	r7, #0
   85046:	dd05      	ble.n	85054 <_dtoa_r+0x7dc>
   85048:	4629      	mov	r1, r5
   8504a:	4650      	mov	r0, sl
   8504c:	463a      	mov	r2, r7
   8504e:	f000 fd19 	bl	85a84 <__pow5mult>
   85052:	4605      	mov	r5, r0
   85054:	9f24      	ldr	r7, [sp, #144]	; 0x90
   85056:	2f01      	cmp	r7, #1
   85058:	dc12      	bgt.n	85080 <_dtoa_r+0x808>
   8505a:	9804      	ldr	r0, [sp, #16]
   8505c:	b980      	cbnz	r0, 85080 <_dtoa_r+0x808>
   8505e:	9905      	ldr	r1, [sp, #20]
   85060:	f3c1 0313 	ubfx	r3, r1, #0, #20
   85064:	b973      	cbnz	r3, 85084 <_dtoa_r+0x80c>
   85066:	f021 4700 	bic.w	r7, r1, #2147483648	; 0x80000000
   8506a:	0d3f      	lsrs	r7, r7, #20
   8506c:	053f      	lsls	r7, r7, #20
   8506e:	b157      	cbz	r7, 85086 <_dtoa_r+0x80e>
   85070:	9f08      	ldr	r7, [sp, #32]
   85072:	3701      	adds	r7, #1
   85074:	9708      	str	r7, [sp, #32]
   85076:	9f09      	ldr	r7, [sp, #36]	; 0x24
   85078:	3701      	adds	r7, #1
   8507a:	9709      	str	r7, [sp, #36]	; 0x24
   8507c:	2701      	movs	r7, #1
   8507e:	e002      	b.n	85086 <_dtoa_r+0x80e>
   85080:	2700      	movs	r7, #0
   85082:	e000      	b.n	85086 <_dtoa_r+0x80e>
   85084:	9f04      	ldr	r7, [sp, #16]
   85086:	9811      	ldr	r0, [sp, #68]	; 0x44
   85088:	b140      	cbz	r0, 8509c <_dtoa_r+0x824>
   8508a:	692b      	ldr	r3, [r5, #16]
   8508c:	eb05 0383 	add.w	r3, r5, r3, lsl #2
   85090:	6918      	ldr	r0, [r3, #16]
   85092:	f000 fc09 	bl	858a8 <__hi0bits>
   85096:	f1c0 0020 	rsb	r0, r0, #32
   8509a:	e000      	b.n	8509e <_dtoa_r+0x826>
   8509c:	2001      	movs	r0, #1
   8509e:	9b09      	ldr	r3, [sp, #36]	; 0x24
   850a0:	4403      	add	r3, r0
   850a2:	f013 031f 	ands.w	r3, r3, #31
   850a6:	d00f      	beq.n	850c8 <_dtoa_r+0x850>
   850a8:	f1c3 0220 	rsb	r2, r3, #32
   850ac:	2a04      	cmp	r2, #4
   850ae:	dd09      	ble.n	850c4 <_dtoa_r+0x84c>
   850b0:	9908      	ldr	r1, [sp, #32]
   850b2:	9a09      	ldr	r2, [sp, #36]	; 0x24
   850b4:	f1c3 031c 	rsb	r3, r3, #28
   850b8:	4419      	add	r1, r3
   850ba:	441a      	add	r2, r3
   850bc:	9108      	str	r1, [sp, #32]
   850be:	441e      	add	r6, r3
   850c0:	9209      	str	r2, [sp, #36]	; 0x24
   850c2:	e009      	b.n	850d8 <_dtoa_r+0x860>
   850c4:	d008      	beq.n	850d8 <_dtoa_r+0x860>
   850c6:	4613      	mov	r3, r2
   850c8:	9808      	ldr	r0, [sp, #32]
   850ca:	9909      	ldr	r1, [sp, #36]	; 0x24
   850cc:	331c      	adds	r3, #28
   850ce:	4418      	add	r0, r3
   850d0:	4419      	add	r1, r3
   850d2:	9008      	str	r0, [sp, #32]
   850d4:	441e      	add	r6, r3
   850d6:	9109      	str	r1, [sp, #36]	; 0x24
   850d8:	9a08      	ldr	r2, [sp, #32]
   850da:	2a00      	cmp	r2, #0
   850dc:	dd04      	ble.n	850e8 <_dtoa_r+0x870>
   850de:	4659      	mov	r1, fp
   850e0:	4650      	mov	r0, sl
   850e2:	f000 fd1d 	bl	85b20 <__lshift>
   850e6:	4683      	mov	fp, r0
   850e8:	9b09      	ldr	r3, [sp, #36]	; 0x24
   850ea:	2b00      	cmp	r3, #0
   850ec:	dd05      	ble.n	850fa <_dtoa_r+0x882>
   850ee:	4629      	mov	r1, r5
   850f0:	4650      	mov	r0, sl
   850f2:	461a      	mov	r2, r3
   850f4:	f000 fd14 	bl	85b20 <__lshift>
   850f8:	4605      	mov	r5, r0
   850fa:	9814      	ldr	r0, [sp, #80]	; 0x50
   850fc:	b1e0      	cbz	r0, 85138 <_dtoa_r+0x8c0>
   850fe:	4658      	mov	r0, fp
   85100:	4629      	mov	r1, r5
   85102:	f000 fd60 	bl	85bc6 <__mcmp>
   85106:	2800      	cmp	r0, #0
   85108:	da16      	bge.n	85138 <_dtoa_r+0x8c0>
   8510a:	4659      	mov	r1, fp
   8510c:	4650      	mov	r0, sl
   8510e:	220a      	movs	r2, #10
   85110:	2300      	movs	r3, #0
   85112:	f000 fb8f 	bl	85834 <__multadd>
   85116:	990f      	ldr	r1, [sp, #60]	; 0x3c
   85118:	f109 39ff 	add.w	r9, r9, #4294967295
   8511c:	4683      	mov	fp, r0
   8511e:	b149      	cbz	r1, 85134 <_dtoa_r+0x8bc>
   85120:	4621      	mov	r1, r4
   85122:	220a      	movs	r2, #10
   85124:	4650      	mov	r0, sl
   85126:	2300      	movs	r3, #0
   85128:	f000 fb84 	bl	85834 <__multadd>
   8512c:	9a0b      	ldr	r2, [sp, #44]	; 0x2c
   8512e:	4604      	mov	r4, r0
   85130:	9207      	str	r2, [sp, #28]
   85132:	e001      	b.n	85138 <_dtoa_r+0x8c0>
   85134:	9b0b      	ldr	r3, [sp, #44]	; 0x2c
   85136:	9307      	str	r3, [sp, #28]
   85138:	9807      	ldr	r0, [sp, #28]
   8513a:	2800      	cmp	r0, #0
   8513c:	dc29      	bgt.n	85192 <_dtoa_r+0x91a>
   8513e:	9924      	ldr	r1, [sp, #144]	; 0x90
   85140:	2902      	cmp	r1, #2
   85142:	dd26      	ble.n	85192 <_dtoa_r+0x91a>
   85144:	b988      	cbnz	r0, 8516a <_dtoa_r+0x8f2>
   85146:	4629      	mov	r1, r5
   85148:	2205      	movs	r2, #5
   8514a:	9b07      	ldr	r3, [sp, #28]
   8514c:	4650      	mov	r0, sl
   8514e:	f000 fb71 	bl	85834 <__multadd>
   85152:	4605      	mov	r5, r0
   85154:	4629      	mov	r1, r5
   85156:	4658      	mov	r0, fp
   85158:	f000 fd35 	bl	85bc6 <__mcmp>
   8515c:	2800      	cmp	r0, #0
   8515e:	dc0e      	bgt.n	8517e <_dtoa_r+0x906>
   85160:	e003      	b.n	8516a <_dtoa_r+0x8f2>
   85162:	9d0c      	ldr	r5, [sp, #48]	; 0x30
   85164:	e000      	b.n	85168 <_dtoa_r+0x8f0>
   85166:	2500      	movs	r5, #0
   85168:	462c      	mov	r4, r5
   8516a:	9f25      	ldr	r7, [sp, #148]	; 0x94
   8516c:	f8dd 8028 	ldr.w	r8, [sp, #40]	; 0x28
   85170:	ea6f 0907 	mvn.w	r9, r7
   85174:	e00a      	b.n	8518c <_dtoa_r+0x914>
   85176:	9d0c      	ldr	r5, [sp, #48]	; 0x30
   85178:	f8dd 9040 	ldr.w	r9, [sp, #64]	; 0x40
   8517c:	462c      	mov	r4, r5
   8517e:	9f0a      	ldr	r7, [sp, #40]	; 0x28
   85180:	2331      	movs	r3, #49	; 0x31
   85182:	f107 0801 	add.w	r8, r7, #1
   85186:	703b      	strb	r3, [r7, #0]
   85188:	f109 0901 	add.w	r9, r9, #1
   8518c:	4627      	mov	r7, r4
   8518e:	2400      	movs	r4, #0
   85190:	e107      	b.n	853a2 <_dtoa_r+0xb2a>
   85192:	980f      	ldr	r0, [sp, #60]	; 0x3c
   85194:	2800      	cmp	r0, #0
   85196:	f000 80bb 	beq.w	85310 <_dtoa_r+0xa98>
   8519a:	2e00      	cmp	r6, #0
   8519c:	dd05      	ble.n	851aa <_dtoa_r+0x932>
   8519e:	4621      	mov	r1, r4
   851a0:	4650      	mov	r0, sl
   851a2:	4632      	mov	r2, r6
   851a4:	f000 fcbc 	bl	85b20 <__lshift>
   851a8:	4604      	mov	r4, r0
   851aa:	b19f      	cbz	r7, 851d4 <_dtoa_r+0x95c>
   851ac:	6861      	ldr	r1, [r4, #4]
   851ae:	4650      	mov	r0, sl
   851b0:	f000 faf4 	bl	8579c <_Balloc>
   851b4:	6922      	ldr	r2, [r4, #16]
   851b6:	4606      	mov	r6, r0
   851b8:	3202      	adds	r2, #2
   851ba:	f104 010c 	add.w	r1, r4, #12
   851be:	0092      	lsls	r2, r2, #2
   851c0:	300c      	adds	r0, #12
   851c2:	f7fe fbdd 	bl	83980 <memcpy>
   851c6:	4650      	mov	r0, sl
   851c8:	4631      	mov	r1, r6
   851ca:	2201      	movs	r2, #1
   851cc:	f000 fca8 	bl	85b20 <__lshift>
   851d0:	4607      	mov	r7, r0
   851d2:	e000      	b.n	851d6 <_dtoa_r+0x95e>
   851d4:	4627      	mov	r7, r4
   851d6:	9e0a      	ldr	r6, [sp, #40]	; 0x28
   851d8:	4629      	mov	r1, r5
   851da:	4658      	mov	r0, fp
   851dc:	f7ff faba 	bl	84754 <quorem>
   851e0:	4621      	mov	r1, r4
   851e2:	f100 0c30 	add.w	ip, r0, #48	; 0x30
   851e6:	4680      	mov	r8, r0
   851e8:	4658      	mov	r0, fp
   851ea:	f8cd c008 	str.w	ip, [sp, #8]
   851ee:	f000 fcea 	bl	85bc6 <__mcmp>
   851f2:	463a      	mov	r2, r7
   851f4:	9008      	str	r0, [sp, #32]
   851f6:	4629      	mov	r1, r5
   851f8:	4650      	mov	r0, sl
   851fa:	f000 fd01 	bl	85c00 <__mdiff>
   851fe:	68c3      	ldr	r3, [r0, #12]
   85200:	4602      	mov	r2, r0
   85202:	f8dd c008 	ldr.w	ip, [sp, #8]
   85206:	b94b      	cbnz	r3, 8521c <_dtoa_r+0x9a4>
   85208:	4611      	mov	r1, r2
   8520a:	4658      	mov	r0, fp
   8520c:	9203      	str	r2, [sp, #12]
   8520e:	f000 fcda 	bl	85bc6 <__mcmp>
   85212:	9a03      	ldr	r2, [sp, #12]
   85214:	4603      	mov	r3, r0
   85216:	f8dd c008 	ldr.w	ip, [sp, #8]
   8521a:	e000      	b.n	8521e <_dtoa_r+0x9a6>
   8521c:	2301      	movs	r3, #1
   8521e:	4650      	mov	r0, sl
   85220:	4611      	mov	r1, r2
   85222:	9303      	str	r3, [sp, #12]
   85224:	f8cd c008 	str.w	ip, [sp, #8]
   85228:	f000 faed 	bl	85806 <_Bfree>
   8522c:	9b03      	ldr	r3, [sp, #12]
   8522e:	f8dd c008 	ldr.w	ip, [sp, #8]
   85232:	b963      	cbnz	r3, 8524e <_dtoa_r+0x9d6>
   85234:	9924      	ldr	r1, [sp, #144]	; 0x90
   85236:	b951      	cbnz	r1, 8524e <_dtoa_r+0x9d6>
   85238:	9804      	ldr	r0, [sp, #16]
   8523a:	f000 0201 	and.w	r2, r0, #1
   8523e:	b932      	cbnz	r2, 8524e <_dtoa_r+0x9d6>
   85240:	f1bc 0f39 	cmp.w	ip, #57	; 0x39
   85244:	d035      	beq.n	852b2 <_dtoa_r+0xa3a>
   85246:	9b08      	ldr	r3, [sp, #32]
   85248:	2b00      	cmp	r3, #0
   8524a:	dc24      	bgt.n	85296 <_dtoa_r+0xa1e>
   8524c:	e025      	b.n	8529a <_dtoa_r+0xa22>
   8524e:	9808      	ldr	r0, [sp, #32]
   85250:	2800      	cmp	r0, #0
   85252:	da02      	bge.n	8525a <_dtoa_r+0x9e2>
   85254:	2b00      	cmp	r3, #0
   85256:	dc08      	bgt.n	8526a <_dtoa_r+0x9f2>
   85258:	e01f      	b.n	8529a <_dtoa_r+0xa22>
   8525a:	d123      	bne.n	852a4 <_dtoa_r+0xa2c>
   8525c:	9924      	ldr	r1, [sp, #144]	; 0x90
   8525e:	bb09      	cbnz	r1, 852a4 <_dtoa_r+0xa2c>
   85260:	9804      	ldr	r0, [sp, #16]
   85262:	f000 0201 	and.w	r2, r0, #1
   85266:	b9ea      	cbnz	r2, 852a4 <_dtoa_r+0xa2c>
   85268:	e7f4      	b.n	85254 <_dtoa_r+0x9dc>
   8526a:	4659      	mov	r1, fp
   8526c:	2201      	movs	r2, #1
   8526e:	4650      	mov	r0, sl
   85270:	f8cd c008 	str.w	ip, [sp, #8]
   85274:	f000 fc54 	bl	85b20 <__lshift>
   85278:	4629      	mov	r1, r5
   8527a:	4683      	mov	fp, r0
   8527c:	f000 fca3 	bl	85bc6 <__mcmp>
   85280:	2800      	cmp	r0, #0
   85282:	f8dd c008 	ldr.w	ip, [sp, #8]
   85286:	dc03      	bgt.n	85290 <_dtoa_r+0xa18>
   85288:	d107      	bne.n	8529a <_dtoa_r+0xa22>
   8528a:	f01c 0f01 	tst.w	ip, #1
   8528e:	d004      	beq.n	8529a <_dtoa_r+0xa22>
   85290:	f1bc 0f39 	cmp.w	ip, #57	; 0x39
   85294:	d00d      	beq.n	852b2 <_dtoa_r+0xa3a>
   85296:	f108 0c31 	add.w	ip, r8, #49	; 0x31
   8529a:	f106 0801 	add.w	r8, r6, #1
   8529e:	f886 c000 	strb.w	ip, [r6]
   852a2:	e07e      	b.n	853a2 <_dtoa_r+0xb2a>
   852a4:	2b00      	cmp	r3, #0
   852a6:	f106 0801 	add.w	r8, r6, #1
   852aa:	dd09      	ble.n	852c0 <_dtoa_r+0xa48>
   852ac:	f1bc 0f39 	cmp.w	ip, #57	; 0x39
   852b0:	d103      	bne.n	852ba <_dtoa_r+0xa42>
   852b2:	2339      	movs	r3, #57	; 0x39
   852b4:	7033      	strb	r3, [r6, #0]
   852b6:	3601      	adds	r6, #1
   852b8:	e05b      	b.n	85372 <_dtoa_r+0xafa>
   852ba:	f10c 0301 	add.w	r3, ip, #1
   852be:	e068      	b.n	85392 <_dtoa_r+0xb1a>
   852c0:	990a      	ldr	r1, [sp, #40]	; 0x28
   852c2:	9a07      	ldr	r2, [sp, #28]
   852c4:	ebc1 0308 	rsb	r3, r1, r8
   852c8:	4646      	mov	r6, r8
   852ca:	4293      	cmp	r3, r2
   852cc:	f806 cc01 	strb.w	ip, [r6, #-1]
   852d0:	d03c      	beq.n	8534c <_dtoa_r+0xad4>
   852d2:	4659      	mov	r1, fp
   852d4:	220a      	movs	r2, #10
   852d6:	2300      	movs	r3, #0
   852d8:	4650      	mov	r0, sl
   852da:	f000 faab 	bl	85834 <__multadd>
   852de:	42bc      	cmp	r4, r7
   852e0:	4683      	mov	fp, r0
   852e2:	4621      	mov	r1, r4
   852e4:	4650      	mov	r0, sl
   852e6:	f04f 020a 	mov.w	r2, #10
   852ea:	f04f 0300 	mov.w	r3, #0
   852ee:	d104      	bne.n	852fa <_dtoa_r+0xa82>
   852f0:	f000 faa0 	bl	85834 <__multadd>
   852f4:	4604      	mov	r4, r0
   852f6:	4607      	mov	r7, r0
   852f8:	e76e      	b.n	851d8 <_dtoa_r+0x960>
   852fa:	f000 fa9b 	bl	85834 <__multadd>
   852fe:	4639      	mov	r1, r7
   85300:	4604      	mov	r4, r0
   85302:	220a      	movs	r2, #10
   85304:	4650      	mov	r0, sl
   85306:	2300      	movs	r3, #0
   85308:	f000 fa94 	bl	85834 <__multadd>
   8530c:	4607      	mov	r7, r0
   8530e:	e763      	b.n	851d8 <_dtoa_r+0x960>
   85310:	9e0f      	ldr	r6, [sp, #60]	; 0x3c
   85312:	4658      	mov	r0, fp
   85314:	4629      	mov	r1, r5
   85316:	f7ff fa1d 	bl	84754 <quorem>
   8531a:	9f0a      	ldr	r7, [sp, #40]	; 0x28
   8531c:	f100 0c30 	add.w	ip, r0, #48	; 0x30
   85320:	f807 c006 	strb.w	ip, [r7, r6]
   85324:	9f07      	ldr	r7, [sp, #28]
   85326:	3601      	adds	r6, #1
   85328:	42be      	cmp	r6, r7
   8532a:	db07      	blt.n	8533c <_dtoa_r+0xac4>
   8532c:	9e0a      	ldr	r6, [sp, #40]	; 0x28
   8532e:	2f01      	cmp	r7, #1
   85330:	bfac      	ite	ge
   85332:	19f6      	addge	r6, r6, r7
   85334:	3601      	addlt	r6, #1
   85336:	4627      	mov	r7, r4
   85338:	2400      	movs	r4, #0
   8533a:	e007      	b.n	8534c <_dtoa_r+0xad4>
   8533c:	4659      	mov	r1, fp
   8533e:	4650      	mov	r0, sl
   85340:	220a      	movs	r2, #10
   85342:	2300      	movs	r3, #0
   85344:	f000 fa76 	bl	85834 <__multadd>
   85348:	4683      	mov	fp, r0
   8534a:	e7e2      	b.n	85312 <_dtoa_r+0xa9a>
   8534c:	4659      	mov	r1, fp
   8534e:	2201      	movs	r2, #1
   85350:	4650      	mov	r0, sl
   85352:	f8cd c008 	str.w	ip, [sp, #8]
   85356:	f000 fbe3 	bl	85b20 <__lshift>
   8535a:	4629      	mov	r1, r5
   8535c:	4683      	mov	fp, r0
   8535e:	f000 fc32 	bl	85bc6 <__mcmp>
   85362:	2800      	cmp	r0, #0
   85364:	f8dd c008 	ldr.w	ip, [sp, #8]
   85368:	dc03      	bgt.n	85372 <_dtoa_r+0xafa>
   8536a:	d114      	bne.n	85396 <_dtoa_r+0xb1e>
   8536c:	f01c 0f01 	tst.w	ip, #1
   85370:	d011      	beq.n	85396 <_dtoa_r+0xb1e>
   85372:	f816 3c01 	ldrb.w	r3, [r6, #-1]
   85376:	46b0      	mov	r8, r6
   85378:	2b39      	cmp	r3, #57	; 0x39
   8537a:	f106 36ff 	add.w	r6, r6, #4294967295
   8537e:	d107      	bne.n	85390 <_dtoa_r+0xb18>
   85380:	980a      	ldr	r0, [sp, #40]	; 0x28
   85382:	42b0      	cmp	r0, r6
   85384:	d1f5      	bne.n	85372 <_dtoa_r+0xafa>
   85386:	2331      	movs	r3, #49	; 0x31
   85388:	f109 0901 	add.w	r9, r9, #1
   8538c:	7003      	strb	r3, [r0, #0]
   8538e:	e008      	b.n	853a2 <_dtoa_r+0xb2a>
   85390:	3301      	adds	r3, #1
   85392:	7033      	strb	r3, [r6, #0]
   85394:	e005      	b.n	853a2 <_dtoa_r+0xb2a>
   85396:	46b0      	mov	r8, r6
   85398:	f818 3c01 	ldrb.w	r3, [r8, #-1]
   8539c:	3e01      	subs	r6, #1
   8539e:	2b30      	cmp	r3, #48	; 0x30
   853a0:	d0f9      	beq.n	85396 <_dtoa_r+0xb1e>
   853a2:	4650      	mov	r0, sl
   853a4:	4629      	mov	r1, r5
   853a6:	f000 fa2e 	bl	85806 <_Bfree>
   853aa:	b16f      	cbz	r7, 853c8 <_dtoa_r+0xb50>
   853ac:	b12c      	cbz	r4, 853ba <_dtoa_r+0xb42>
   853ae:	42bc      	cmp	r4, r7
   853b0:	d003      	beq.n	853ba <_dtoa_r+0xb42>
   853b2:	4650      	mov	r0, sl
   853b4:	4621      	mov	r1, r4
   853b6:	f000 fa26 	bl	85806 <_Bfree>
   853ba:	4650      	mov	r0, sl
   853bc:	4639      	mov	r1, r7
   853be:	f000 fa22 	bl	85806 <_Bfree>
   853c2:	e001      	b.n	853c8 <_dtoa_r+0xb50>
   853c4:	f8dd 9040 	ldr.w	r9, [sp, #64]	; 0x40
   853c8:	4650      	mov	r0, sl
   853ca:	4659      	mov	r1, fp
   853cc:	f000 fa1b 	bl	85806 <_Bfree>
   853d0:	2300      	movs	r3, #0
   853d2:	9f26      	ldr	r7, [sp, #152]	; 0x98
   853d4:	f888 3000 	strb.w	r3, [r8]
   853d8:	f109 0301 	add.w	r3, r9, #1
   853dc:	603b      	str	r3, [r7, #0]
   853de:	9f28      	ldr	r7, [sp, #160]	; 0xa0
   853e0:	b127      	cbz	r7, 853ec <_dtoa_r+0xb74>
   853e2:	f8c7 8000 	str.w	r8, [r7]
   853e6:	e001      	b.n	853ec <_dtoa_r+0xb74>
   853e8:	4802      	ldr	r0, [pc, #8]	; (853f4 <_dtoa_r+0xb7c>)
   853ea:	e000      	b.n	853ee <_dtoa_r+0xb76>
   853ec:	980a      	ldr	r0, [sp, #40]	; 0x28
   853ee:	b01b      	add	sp, #108	; 0x6c
   853f0:	e8bd 8ff0 	ldmia.w	sp!, {r4, r5, r6, r7, r8, r9, sl, fp, pc}
   853f4:	000870bd 	.word	0x000870bd

000853f8 <__sflush_r>:
   853f8:	898a      	ldrh	r2, [r1, #12]
   853fa:	e92d 41f0 	stmdb	sp!, {r4, r5, r6, r7, r8, lr}
   853fe:	4605      	mov	r5, r0
   85400:	0710      	lsls	r0, r2, #28
   85402:	460c      	mov	r4, r1
   85404:	d457      	bmi.n	854b6 <__sflush_r+0xbe>
   85406:	684b      	ldr	r3, [r1, #4]
   85408:	2b00      	cmp	r3, #0
   8540a:	dc02      	bgt.n	85412 <__sflush_r+0x1a>
   8540c:	6c0b      	ldr	r3, [r1, #64]	; 0x40
   8540e:	2b00      	cmp	r3, #0
   85410:	dd18      	ble.n	85444 <__sflush_r+0x4c>
   85412:	6ae6      	ldr	r6, [r4, #44]	; 0x2c
   85414:	b1b6      	cbz	r6, 85444 <__sflush_r+0x4c>
   85416:	f402 5280 	and.w	r2, r2, #4096	; 0x1000
   8541a:	2300      	movs	r3, #0
   8541c:	b292      	uxth	r2, r2
   8541e:	682f      	ldr	r7, [r5, #0]
   85420:	602b      	str	r3, [r5, #0]
   85422:	b10a      	cbz	r2, 85428 <__sflush_r+0x30>
   85424:	6d62      	ldr	r2, [r4, #84]	; 0x54
   85426:	e010      	b.n	8544a <__sflush_r+0x52>
   85428:	6a21      	ldr	r1, [r4, #32]
   8542a:	4628      	mov	r0, r5
   8542c:	2301      	movs	r3, #1
   8542e:	47b0      	blx	r6
   85430:	1c41      	adds	r1, r0, #1
   85432:	4602      	mov	r2, r0
   85434:	d109      	bne.n	8544a <__sflush_r+0x52>
   85436:	682b      	ldr	r3, [r5, #0]
   85438:	b13b      	cbz	r3, 8544a <__sflush_r+0x52>
   8543a:	2b1d      	cmp	r3, #29
   8543c:	d001      	beq.n	85442 <__sflush_r+0x4a>
   8543e:	2b16      	cmp	r3, #22
   85440:	d146      	bne.n	854d0 <__sflush_r+0xd8>
   85442:	602f      	str	r7, [r5, #0]
   85444:	2000      	movs	r0, #0
   85446:	e8bd 81f0 	ldmia.w	sp!, {r4, r5, r6, r7, r8, pc}
   8544a:	89a3      	ldrh	r3, [r4, #12]
   8544c:	075b      	lsls	r3, r3, #29
   8544e:	d505      	bpl.n	8545c <__sflush_r+0x64>
   85450:	6863      	ldr	r3, [r4, #4]
   85452:	1ad2      	subs	r2, r2, r3
   85454:	6b63      	ldr	r3, [r4, #52]	; 0x34
   85456:	b10b      	cbz	r3, 8545c <__sflush_r+0x64>
   85458:	6c23      	ldr	r3, [r4, #64]	; 0x40
   8545a:	1ad2      	subs	r2, r2, r3
   8545c:	6ae6      	ldr	r6, [r4, #44]	; 0x2c
   8545e:	4628      	mov	r0, r5
   85460:	6a21      	ldr	r1, [r4, #32]
   85462:	2300      	movs	r3, #0
   85464:	47b0      	blx	r6
   85466:	1c46      	adds	r6, r0, #1
   85468:	89a2      	ldrh	r2, [r4, #12]
   8546a:	d105      	bne.n	85478 <__sflush_r+0x80>
   8546c:	682b      	ldr	r3, [r5, #0]
   8546e:	b11b      	cbz	r3, 85478 <__sflush_r+0x80>
   85470:	2b1d      	cmp	r3, #29
   85472:	d001      	beq.n	85478 <__sflush_r+0x80>
   85474:	2b16      	cmp	r3, #22
   85476:	d119      	bne.n	854ac <__sflush_r+0xb4>
   85478:	2300      	movs	r3, #0
   8547a:	6063      	str	r3, [r4, #4]
   8547c:	6923      	ldr	r3, [r4, #16]
   8547e:	04d1      	lsls	r1, r2, #19
   85480:	6023      	str	r3, [r4, #0]
   85482:	d504      	bpl.n	8548e <__sflush_r+0x96>
   85484:	1c42      	adds	r2, r0, #1
   85486:	d101      	bne.n	8548c <__sflush_r+0x94>
   85488:	682b      	ldr	r3, [r5, #0]
   8548a:	b903      	cbnz	r3, 8548e <__sflush_r+0x96>
   8548c:	6560      	str	r0, [r4, #84]	; 0x54
   8548e:	6b61      	ldr	r1, [r4, #52]	; 0x34
   85490:	602f      	str	r7, [r5, #0]
   85492:	2900      	cmp	r1, #0
   85494:	d0d6      	beq.n	85444 <__sflush_r+0x4c>
   85496:	f104 0344 	add.w	r3, r4, #68	; 0x44
   8549a:	4299      	cmp	r1, r3
   8549c:	d002      	beq.n	854a4 <__sflush_r+0xac>
   8549e:	4628      	mov	r0, r5
   854a0:	f000 fc6e 	bl	85d80 <_free_r>
   854a4:	2000      	movs	r0, #0
   854a6:	6360      	str	r0, [r4, #52]	; 0x34
   854a8:	e8bd 81f0 	ldmia.w	sp!, {r4, r5, r6, r7, r8, pc}
   854ac:	f042 0240 	orr.w	r2, r2, #64	; 0x40
   854b0:	81a2      	strh	r2, [r4, #12]
   854b2:	e8bd 81f0 	ldmia.w	sp!, {r4, r5, r6, r7, r8, pc}
   854b6:	690e      	ldr	r6, [r1, #16]
   854b8:	2e00      	cmp	r6, #0
   854ba:	d0c3      	beq.n	85444 <__sflush_r+0x4c>
   854bc:	680b      	ldr	r3, [r1, #0]
   854be:	600e      	str	r6, [r1, #0]
   854c0:	ebc6 0803 	rsb	r8, r6, r3
   854c4:	0793      	lsls	r3, r2, #30
   854c6:	bf0c      	ite	eq
   854c8:	694b      	ldreq	r3, [r1, #20]
   854ca:	2300      	movne	r3, #0
   854cc:	608b      	str	r3, [r1, #8]
   854ce:	e012      	b.n	854f6 <__sflush_r+0xfe>
   854d0:	89a3      	ldrh	r3, [r4, #12]
   854d2:	f04f 30ff 	mov.w	r0, #4294967295
   854d6:	f043 0340 	orr.w	r3, r3, #64	; 0x40
   854da:	81a3      	strh	r3, [r4, #12]
   854dc:	e8bd 81f0 	ldmia.w	sp!, {r4, r5, r6, r7, r8, pc}
   854e0:	6aa7      	ldr	r7, [r4, #40]	; 0x28
   854e2:	4628      	mov	r0, r5
   854e4:	6a21      	ldr	r1, [r4, #32]
   854e6:	4632      	mov	r2, r6
   854e8:	4643      	mov	r3, r8
   854ea:	47b8      	blx	r7
   854ec:	2800      	cmp	r0, #0
   854ee:	ddef      	ble.n	854d0 <__sflush_r+0xd8>
   854f0:	4406      	add	r6, r0
   854f2:	ebc0 0808 	rsb	r8, r0, r8
   854f6:	f1b8 0f00 	cmp.w	r8, #0
   854fa:	dcf1      	bgt.n	854e0 <__sflush_r+0xe8>
   854fc:	e7a2      	b.n	85444 <__sflush_r+0x4c>
	...

00085500 <_fflush_r>:
   85500:	b538      	push	{r3, r4, r5, lr}
   85502:	690b      	ldr	r3, [r1, #16]
   85504:	4605      	mov	r5, r0
   85506:	460c      	mov	r4, r1
   85508:	b1db      	cbz	r3, 85542 <_fflush_r+0x42>
   8550a:	b118      	cbz	r0, 85514 <_fflush_r+0x14>
   8550c:	6983      	ldr	r3, [r0, #24]
   8550e:	b90b      	cbnz	r3, 85514 <_fflush_r+0x14>
   85510:	f000 f874 	bl	855fc <__sinit>
   85514:	4b0c      	ldr	r3, [pc, #48]	; (85548 <_fflush_r+0x48>)
   85516:	429c      	cmp	r4, r3
   85518:	d101      	bne.n	8551e <_fflush_r+0x1e>
   8551a:	686c      	ldr	r4, [r5, #4]
   8551c:	e008      	b.n	85530 <_fflush_r+0x30>
   8551e:	4b0b      	ldr	r3, [pc, #44]	; (8554c <_fflush_r+0x4c>)
   85520:	429c      	cmp	r4, r3
   85522:	d101      	bne.n	85528 <_fflush_r+0x28>
   85524:	68ac      	ldr	r4, [r5, #8]
   85526:	e003      	b.n	85530 <_fflush_r+0x30>
   85528:	4b09      	ldr	r3, [pc, #36]	; (85550 <_fflush_r+0x50>)
   8552a:	429c      	cmp	r4, r3
   8552c:	bf08      	it	eq
   8552e:	68ec      	ldreq	r4, [r5, #12]
   85530:	f9b4 300c 	ldrsh.w	r3, [r4, #12]
   85534:	b12b      	cbz	r3, 85542 <_fflush_r+0x42>
   85536:	4628      	mov	r0, r5
   85538:	4621      	mov	r1, r4
   8553a:	e8bd 4038 	ldmia.w	sp!, {r3, r4, r5, lr}
   8553e:	f7ff bf5b 	b.w	853f8 <__sflush_r>
   85542:	2000      	movs	r0, #0
   85544:	bd38      	pop	{r3, r4, r5, pc}
   85546:	bf00      	nop
   85548:	000870f0 	.word	0x000870f0
   8554c:	00087110 	.word	0x00087110
   85550:	00087130 	.word	0x00087130

00085554 <_cleanup_r>:
   85554:	b5f8      	push	{r3, r4, r5, r6, r7, lr}
   85556:	4607      	mov	r7, r0
   85558:	f100 0448 	add.w	r4, r0, #72	; 0x48
   8555c:	b194      	cbz	r4, 85584 <_cleanup_r+0x30>
   8555e:	68a5      	ldr	r5, [r4, #8]
   85560:	6866      	ldr	r6, [r4, #4]
   85562:	3e01      	subs	r6, #1
   85564:	d40c      	bmi.n	85580 <_cleanup_r+0x2c>
   85566:	89ab      	ldrh	r3, [r5, #12]
   85568:	2b01      	cmp	r3, #1
   8556a:	d907      	bls.n	8557c <_cleanup_r+0x28>
   8556c:	f9b5 300e 	ldrsh.w	r3, [r5, #14]
   85570:	3301      	adds	r3, #1
   85572:	d003      	beq.n	8557c <_cleanup_r+0x28>
   85574:	4638      	mov	r0, r7
   85576:	4629      	mov	r1, r5
   85578:	f7ff ffc2 	bl	85500 <_fflush_r>
   8557c:	3568      	adds	r5, #104	; 0x68
   8557e:	e7f0      	b.n	85562 <_cleanup_r+0xe>
   85580:	6824      	ldr	r4, [r4, #0]
   85582:	e7eb      	b.n	8555c <_cleanup_r+0x8>
   85584:	bdf8      	pop	{r3, r4, r5, r6, r7, pc}
	...

00085588 <std.isra.0>:
   85588:	2300      	movs	r3, #0
   8558a:	b510      	push	{r4, lr}
   8558c:	4604      	mov	r4, r0
   8558e:	6003      	str	r3, [r0, #0]
   85590:	6043      	str	r3, [r0, #4]
   85592:	6083      	str	r3, [r0, #8]
   85594:	8181      	strh	r1, [r0, #12]
   85596:	6643      	str	r3, [r0, #100]	; 0x64
   85598:	81c2      	strh	r2, [r0, #14]
   8559a:	6103      	str	r3, [r0, #16]
   8559c:	6143      	str	r3, [r0, #20]
   8559e:	6183      	str	r3, [r0, #24]
   855a0:	4619      	mov	r1, r3
   855a2:	305c      	adds	r0, #92	; 0x5c
   855a4:	2208      	movs	r2, #8
   855a6:	f7fe f9f4 	bl	83992 <memset>
   855aa:	4b05      	ldr	r3, [pc, #20]	; (855c0 <std.isra.0+0x38>)
   855ac:	6224      	str	r4, [r4, #32]
   855ae:	6263      	str	r3, [r4, #36]	; 0x24
   855b0:	4b04      	ldr	r3, [pc, #16]	; (855c4 <std.isra.0+0x3c>)
   855b2:	62a3      	str	r3, [r4, #40]	; 0x28
   855b4:	4b04      	ldr	r3, [pc, #16]	; (855c8 <std.isra.0+0x40>)
   855b6:	62e3      	str	r3, [r4, #44]	; 0x2c
   855b8:	4b04      	ldr	r3, [pc, #16]	; (855cc <std.isra.0+0x44>)
   855ba:	6323      	str	r3, [r4, #48]	; 0x30
   855bc:	bd10      	pop	{r4, pc}
   855be:	bf00      	nop
   855c0:	00085f15 	.word	0x00085f15
   855c4:	00085f37 	.word	0x00085f37
   855c8:	00085f6f 	.word	0x00085f6f
   855cc:	00085f93 	.word	0x00085f93

000855d0 <__sfmoreglue>:
   855d0:	b570      	push	{r4, r5, r6, lr}
   855d2:	1e4b      	subs	r3, r1, #1
   855d4:	2568      	movs	r5, #104	; 0x68
   855d6:	435d      	muls	r5, r3
   855d8:	460e      	mov	r6, r1
   855da:	f105 0174 	add.w	r1, r5, #116	; 0x74
   855de:	f000 fc13 	bl	85e08 <_malloc_r>
   855e2:	4604      	mov	r4, r0
   855e4:	b140      	cbz	r0, 855f8 <__sfmoreglue+0x28>
   855e6:	2100      	movs	r1, #0
   855e8:	e880 0042 	stmia.w	r0, {r1, r6}
   855ec:	300c      	adds	r0, #12
   855ee:	60a0      	str	r0, [r4, #8]
   855f0:	f105 0268 	add.w	r2, r5, #104	; 0x68
   855f4:	f7fe f9cd 	bl	83992 <memset>
   855f8:	4620      	mov	r0, r4
   855fa:	bd70      	pop	{r4, r5, r6, pc}

000855fc <__sinit>:
   855fc:	6983      	ldr	r3, [r0, #24]
   855fe:	b510      	push	{r4, lr}
   85600:	4604      	mov	r4, r0
   85602:	bb33      	cbnz	r3, 85652 <__sinit+0x56>
   85604:	6483      	str	r3, [r0, #72]	; 0x48
   85606:	64c3      	str	r3, [r0, #76]	; 0x4c
   85608:	6503      	str	r3, [r0, #80]	; 0x50
   8560a:	4b12      	ldr	r3, [pc, #72]	; (85654 <__sinit+0x58>)
   8560c:	4a12      	ldr	r2, [pc, #72]	; (85658 <__sinit+0x5c>)
   8560e:	681b      	ldr	r3, [r3, #0]
   85610:	6282      	str	r2, [r0, #40]	; 0x28
   85612:	4298      	cmp	r0, r3
   85614:	bf04      	itt	eq
   85616:	2301      	moveq	r3, #1
   85618:	6183      	streq	r3, [r0, #24]
   8561a:	f000 f81f 	bl	8565c <__sfp>
   8561e:	6060      	str	r0, [r4, #4]
   85620:	4620      	mov	r0, r4
   85622:	f000 f81b 	bl	8565c <__sfp>
   85626:	60a0      	str	r0, [r4, #8]
   85628:	4620      	mov	r0, r4
   8562a:	f000 f817 	bl	8565c <__sfp>
   8562e:	2104      	movs	r1, #4
   85630:	60e0      	str	r0, [r4, #12]
   85632:	2200      	movs	r2, #0
   85634:	6860      	ldr	r0, [r4, #4]
   85636:	f7ff ffa7 	bl	85588 <std.isra.0>
   8563a:	68a0      	ldr	r0, [r4, #8]
   8563c:	2109      	movs	r1, #9
   8563e:	2201      	movs	r2, #1
   85640:	f7ff ffa2 	bl	85588 <std.isra.0>
   85644:	68e0      	ldr	r0, [r4, #12]
   85646:	2112      	movs	r1, #18
   85648:	2202      	movs	r2, #2
   8564a:	f7ff ff9d 	bl	85588 <std.isra.0>
   8564e:	2301      	movs	r3, #1
   85650:	61a3      	str	r3, [r4, #24]
   85652:	bd10      	pop	{r4, pc}
   85654:	00087098 	.word	0x00087098
   85658:	00085555 	.word	0x00085555

0008565c <__sfp>:
   8565c:	b5f8      	push	{r3, r4, r5, r6, r7, lr}
   8565e:	4b1b      	ldr	r3, [pc, #108]	; (856cc <__sfp+0x70>)
   85660:	4607      	mov	r7, r0
   85662:	681e      	ldr	r6, [r3, #0]
   85664:	69b3      	ldr	r3, [r6, #24]
   85666:	b913      	cbnz	r3, 8566e <__sfp+0x12>
   85668:	4630      	mov	r0, r6
   8566a:	f7ff ffc7 	bl	855fc <__sinit>
   8566e:	3648      	adds	r6, #72	; 0x48
   85670:	68b4      	ldr	r4, [r6, #8]
   85672:	6873      	ldr	r3, [r6, #4]
   85674:	3b01      	subs	r3, #1
   85676:	d404      	bmi.n	85682 <__sfp+0x26>
   85678:	f9b4 500c 	ldrsh.w	r5, [r4, #12]
   8567c:	b175      	cbz	r5, 8569c <__sfp+0x40>
   8567e:	3468      	adds	r4, #104	; 0x68
   85680:	e7f8      	b.n	85674 <__sfp+0x18>
   85682:	6833      	ldr	r3, [r6, #0]
   85684:	b92b      	cbnz	r3, 85692 <__sfp+0x36>
   85686:	4638      	mov	r0, r7
   85688:	2104      	movs	r1, #4
   8568a:	f7ff ffa1 	bl	855d0 <__sfmoreglue>
   8568e:	6030      	str	r0, [r6, #0]
   85690:	b108      	cbz	r0, 85696 <__sfp+0x3a>
   85692:	6836      	ldr	r6, [r6, #0]
   85694:	e7ec      	b.n	85670 <__sfp+0x14>
   85696:	230c      	movs	r3, #12
   85698:	603b      	str	r3, [r7, #0]
   8569a:	bdf8      	pop	{r3, r4, r5, r6, r7, pc}
   8569c:	f64f 73ff 	movw	r3, #65535	; 0xffff
   856a0:	81e3      	strh	r3, [r4, #14]
   856a2:	2301      	movs	r3, #1
   856a4:	81a3      	strh	r3, [r4, #12]
   856a6:	6665      	str	r5, [r4, #100]	; 0x64
   856a8:	6025      	str	r5, [r4, #0]
   856aa:	60a5      	str	r5, [r4, #8]
   856ac:	6065      	str	r5, [r4, #4]
   856ae:	6125      	str	r5, [r4, #16]
   856b0:	6165      	str	r5, [r4, #20]
   856b2:	61a5      	str	r5, [r4, #24]
   856b4:	f104 005c 	add.w	r0, r4, #92	; 0x5c
   856b8:	4629      	mov	r1, r5
   856ba:	2208      	movs	r2, #8
   856bc:	f7fe f969 	bl	83992 <memset>
   856c0:	6365      	str	r5, [r4, #52]	; 0x34
   856c2:	63a5      	str	r5, [r4, #56]	; 0x38
   856c4:	64a5      	str	r5, [r4, #72]	; 0x48
   856c6:	64e5      	str	r5, [r4, #76]	; 0x4c
   856c8:	4620      	mov	r0, r4
   856ca:	bdf8      	pop	{r3, r4, r5, r6, r7, pc}
   856cc:	00087098 	.word	0x00087098

000856d0 <_localeconv_r>:
   856d0:	4800      	ldr	r0, [pc, #0]	; (856d4 <_localeconv_r+0x4>)
   856d2:	4770      	bx	lr
   856d4:	200701b4 	.word	0x200701b4

000856d8 <__smakebuf_r>:
   856d8:	b5f0      	push	{r4, r5, r6, r7, lr}
   856da:	898b      	ldrh	r3, [r1, #12]
   856dc:	b091      	sub	sp, #68	; 0x44
   856de:	079e      	lsls	r6, r3, #30
   856e0:	4605      	mov	r5, r0
   856e2:	460c      	mov	r4, r1
   856e4:	d425      	bmi.n	85732 <__smakebuf_r+0x5a>
   856e6:	f9b1 100e 	ldrsh.w	r1, [r1, #14]
   856ea:	2900      	cmp	r1, #0
   856ec:	da08      	bge.n	85700 <__smakebuf_r+0x28>
   856ee:	89a3      	ldrh	r3, [r4, #12]
   856f0:	2700      	movs	r7, #0
   856f2:	f013 0f80 	tst.w	r3, #128	; 0x80
   856f6:	bf14      	ite	ne
   856f8:	2640      	movne	r6, #64	; 0x40
   856fa:	f44f 6680 	moveq.w	r6, #1024	; 0x400
   856fe:	e00d      	b.n	8571c <__smakebuf_r+0x44>
   85700:	aa01      	add	r2, sp, #4
   85702:	f000 fc6d 	bl	85fe0 <_fstat_r>
   85706:	2800      	cmp	r0, #0
   85708:	dbf1      	blt.n	856ee <__smakebuf_r+0x16>
   8570a:	9f02      	ldr	r7, [sp, #8]
   8570c:	f44f 6680 	mov.w	r6, #1024	; 0x400
   85710:	f407 4770 	and.w	r7, r7, #61440	; 0xf000
   85714:	f5b7 5100 	subs.w	r1, r7, #8192	; 0x2000
   85718:	424f      	negs	r7, r1
   8571a:	414f      	adcs	r7, r1
   8571c:	4628      	mov	r0, r5
   8571e:	4631      	mov	r1, r6
   85720:	f000 fb72 	bl	85e08 <_malloc_r>
   85724:	b960      	cbnz	r0, 85740 <__smakebuf_r+0x68>
   85726:	89a3      	ldrh	r3, [r4, #12]
   85728:	059a      	lsls	r2, r3, #22
   8572a:	d41d      	bmi.n	85768 <__smakebuf_r+0x90>
   8572c:	f043 0302 	orr.w	r3, r3, #2
   85730:	81a3      	strh	r3, [r4, #12]
   85732:	f104 0347 	add.w	r3, r4, #71	; 0x47
   85736:	6023      	str	r3, [r4, #0]
   85738:	6123      	str	r3, [r4, #16]
   8573a:	2301      	movs	r3, #1
   8573c:	6163      	str	r3, [r4, #20]
   8573e:	e013      	b.n	85768 <__smakebuf_r+0x90>
   85740:	4b0a      	ldr	r3, [pc, #40]	; (8576c <__smakebuf_r+0x94>)
   85742:	62ab      	str	r3, [r5, #40]	; 0x28
   85744:	89a3      	ldrh	r3, [r4, #12]
   85746:	6020      	str	r0, [r4, #0]
   85748:	f043 0380 	orr.w	r3, r3, #128	; 0x80
   8574c:	81a3      	strh	r3, [r4, #12]
   8574e:	6120      	str	r0, [r4, #16]
   85750:	6166      	str	r6, [r4, #20]
   85752:	b14f      	cbz	r7, 85768 <__smakebuf_r+0x90>
   85754:	4628      	mov	r0, r5
   85756:	f9b4 100e 	ldrsh.w	r1, [r4, #14]
   8575a:	f000 fc53 	bl	86004 <_isatty_r>
   8575e:	b118      	cbz	r0, 85768 <__smakebuf_r+0x90>
   85760:	89a3      	ldrh	r3, [r4, #12]
   85762:	f043 0301 	orr.w	r3, r3, #1
   85766:	81a3      	strh	r3, [r4, #12]
   85768:	b011      	add	sp, #68	; 0x44
   8576a:	bdf0      	pop	{r4, r5, r6, r7, pc}
   8576c:	00085555 	.word	0x00085555

00085770 <malloc>:
   85770:	4b02      	ldr	r3, [pc, #8]	; (8577c <malloc+0xc>)
   85772:	4601      	mov	r1, r0
   85774:	6818      	ldr	r0, [r3, #0]
   85776:	f000 bb47 	b.w	85e08 <_malloc_r>
   8577a:	bf00      	nop
   8577c:	200701b0 	.word	0x200701b0

00085780 <memchr>:
   85780:	b510      	push	{r4, lr}
   85782:	b2c9      	uxtb	r1, r1
   85784:	4402      	add	r2, r0
   85786:	4290      	cmp	r0, r2
   85788:	4603      	mov	r3, r0
   8578a:	d005      	beq.n	85798 <memchr+0x18>
   8578c:	781c      	ldrb	r4, [r3, #0]
   8578e:	3001      	adds	r0, #1
   85790:	428c      	cmp	r4, r1
   85792:	d1f8      	bne.n	85786 <memchr+0x6>
   85794:	4618      	mov	r0, r3
   85796:	bd10      	pop	{r4, pc}
   85798:	2000      	movs	r0, #0
   8579a:	bd10      	pop	{r4, pc}

0008579c <_Balloc>:
   8579c:	b570      	push	{r4, r5, r6, lr}
   8579e:	6a45      	ldr	r5, [r0, #36]	; 0x24
   857a0:	4604      	mov	r4, r0
   857a2:	460e      	mov	r6, r1
   857a4:	b93d      	cbnz	r5, 857b6 <_Balloc+0x1a>
   857a6:	2010      	movs	r0, #16
   857a8:	f7ff ffe2 	bl	85770 <malloc>
   857ac:	6260      	str	r0, [r4, #36]	; 0x24
   857ae:	6045      	str	r5, [r0, #4]
   857b0:	6085      	str	r5, [r0, #8]
   857b2:	6005      	str	r5, [r0, #0]
   857b4:	60c5      	str	r5, [r0, #12]
   857b6:	6a65      	ldr	r5, [r4, #36]	; 0x24
   857b8:	68eb      	ldr	r3, [r5, #12]
   857ba:	b143      	cbz	r3, 857ce <_Balloc+0x32>
   857bc:	6a63      	ldr	r3, [r4, #36]	; 0x24
   857be:	68da      	ldr	r2, [r3, #12]
   857c0:	f852 0026 	ldr.w	r0, [r2, r6, lsl #2]
   857c4:	b178      	cbz	r0, 857e6 <_Balloc+0x4a>
   857c6:	6801      	ldr	r1, [r0, #0]
   857c8:	f842 1026 	str.w	r1, [r2, r6, lsl #2]
   857cc:	e017      	b.n	857fe <_Balloc+0x62>
   857ce:	4620      	mov	r0, r4
   857d0:	2104      	movs	r1, #4
   857d2:	2221      	movs	r2, #33	; 0x21
   857d4:	f000 fac5 	bl	85d62 <_calloc_r>
   857d8:	6a63      	ldr	r3, [r4, #36]	; 0x24
   857da:	60e8      	str	r0, [r5, #12]
   857dc:	68db      	ldr	r3, [r3, #12]
   857de:	2b00      	cmp	r3, #0
   857e0:	d1ec      	bne.n	857bc <_Balloc+0x20>
   857e2:	2000      	movs	r0, #0
   857e4:	bd70      	pop	{r4, r5, r6, pc}
   857e6:	2101      	movs	r1, #1
   857e8:	fa01 f506 	lsl.w	r5, r1, r6
   857ec:	1d6a      	adds	r2, r5, #5
   857ee:	4620      	mov	r0, r4
   857f0:	0092      	lsls	r2, r2, #2
   857f2:	f000 fab6 	bl	85d62 <_calloc_r>
   857f6:	2800      	cmp	r0, #0
   857f8:	d0f3      	beq.n	857e2 <_Balloc+0x46>
   857fa:	6046      	str	r6, [r0, #4]
   857fc:	6085      	str	r5, [r0, #8]
   857fe:	2200      	movs	r2, #0
   85800:	6102      	str	r2, [r0, #16]
   85802:	60c2      	str	r2, [r0, #12]
   85804:	bd70      	pop	{r4, r5, r6, pc}

00085806 <_Bfree>:
   85806:	b570      	push	{r4, r5, r6, lr}
   85808:	6a44      	ldr	r4, [r0, #36]	; 0x24
   8580a:	4606      	mov	r6, r0
   8580c:	460d      	mov	r5, r1
   8580e:	b93c      	cbnz	r4, 85820 <_Bfree+0x1a>
   85810:	2010      	movs	r0, #16
   85812:	f7ff ffad 	bl	85770 <malloc>
   85816:	6270      	str	r0, [r6, #36]	; 0x24
   85818:	6044      	str	r4, [r0, #4]
   8581a:	6084      	str	r4, [r0, #8]
   8581c:	6004      	str	r4, [r0, #0]
   8581e:	60c4      	str	r4, [r0, #12]
   85820:	b13d      	cbz	r5, 85832 <_Bfree+0x2c>
   85822:	6a73      	ldr	r3, [r6, #36]	; 0x24
   85824:	686a      	ldr	r2, [r5, #4]
   85826:	68db      	ldr	r3, [r3, #12]
   85828:	f853 1022 	ldr.w	r1, [r3, r2, lsl #2]
   8582c:	6029      	str	r1, [r5, #0]
   8582e:	f843 5022 	str.w	r5, [r3, r2, lsl #2]
   85832:	bd70      	pop	{r4, r5, r6, pc}

00085834 <__multadd>:
   85834:	e92d 41f0 	stmdb	sp!, {r4, r5, r6, r7, r8, lr}
   85838:	460c      	mov	r4, r1
   8583a:	461e      	mov	r6, r3
   8583c:	690d      	ldr	r5, [r1, #16]
   8583e:	4607      	mov	r7, r0
   85840:	3114      	adds	r1, #20
   85842:	2300      	movs	r3, #0
   85844:	6808      	ldr	r0, [r1, #0]
   85846:	3301      	adds	r3, #1
   85848:	fa1f fc80 	uxth.w	ip, r0
   8584c:	0c00      	lsrs	r0, r0, #16
   8584e:	fb02 6c0c 	mla	ip, r2, ip, r6
   85852:	4350      	muls	r0, r2
   85854:	eb00 401c 	add.w	r0, r0, ip, lsr #16
   85858:	fa1f fc8c 	uxth.w	ip, ip
   8585c:	0c06      	lsrs	r6, r0, #16
   8585e:	42ab      	cmp	r3, r5
   85860:	eb0c 4000 	add.w	r0, ip, r0, lsl #16
   85864:	f841 0b04 	str.w	r0, [r1], #4
   85868:	dbec      	blt.n	85844 <__multadd+0x10>
   8586a:	b1d6      	cbz	r6, 858a2 <__multadd+0x6e>
   8586c:	68a3      	ldr	r3, [r4, #8]
   8586e:	429d      	cmp	r5, r3
   85870:	db12      	blt.n	85898 <__multadd+0x64>
   85872:	6861      	ldr	r1, [r4, #4]
   85874:	4638      	mov	r0, r7
   85876:	3101      	adds	r1, #1
   85878:	f7ff ff90 	bl	8579c <_Balloc>
   8587c:	6922      	ldr	r2, [r4, #16]
   8587e:	f104 010c 	add.w	r1, r4, #12
   85882:	3202      	adds	r2, #2
   85884:	4680      	mov	r8, r0
   85886:	0092      	lsls	r2, r2, #2
   85888:	300c      	adds	r0, #12
   8588a:	f7fe f879 	bl	83980 <memcpy>
   8588e:	4621      	mov	r1, r4
   85890:	4638      	mov	r0, r7
   85892:	f7ff ffb8 	bl	85806 <_Bfree>
   85896:	4644      	mov	r4, r8
   85898:	eb04 0385 	add.w	r3, r4, r5, lsl #2
   8589c:	3501      	adds	r5, #1
   8589e:	615e      	str	r6, [r3, #20]
   858a0:	6125      	str	r5, [r4, #16]
   858a2:	4620      	mov	r0, r4
   858a4:	e8bd 81f0 	ldmia.w	sp!, {r4, r5, r6, r7, r8, pc}

000858a8 <__hi0bits>:
   858a8:	0c03      	lsrs	r3, r0, #16
   858aa:	041b      	lsls	r3, r3, #16
   858ac:	b913      	cbnz	r3, 858b4 <__hi0bits+0xc>
   858ae:	0400      	lsls	r0, r0, #16
   858b0:	2310      	movs	r3, #16
   858b2:	e000      	b.n	858b6 <__hi0bits+0xe>
   858b4:	2300      	movs	r3, #0
   858b6:	f010 4f7f 	tst.w	r0, #4278190080	; 0xff000000
   858ba:	bf04      	itt	eq
   858bc:	0200      	lsleq	r0, r0, #8
   858be:	3308      	addeq	r3, #8
   858c0:	f010 4f70 	tst.w	r0, #4026531840	; 0xf0000000
   858c4:	bf04      	itt	eq
   858c6:	0100      	lsleq	r0, r0, #4
   858c8:	3304      	addeq	r3, #4
   858ca:	f010 4f40 	tst.w	r0, #3221225472	; 0xc0000000
   858ce:	bf04      	itt	eq
   858d0:	0080      	lsleq	r0, r0, #2
   858d2:	3302      	addeq	r3, #2
   858d4:	2800      	cmp	r0, #0
   858d6:	db03      	blt.n	858e0 <__hi0bits+0x38>
   858d8:	0042      	lsls	r2, r0, #1
   858da:	d503      	bpl.n	858e4 <__hi0bits+0x3c>
   858dc:	1c58      	adds	r0, r3, #1
   858de:	4770      	bx	lr
   858e0:	4618      	mov	r0, r3
   858e2:	4770      	bx	lr
   858e4:	2020      	movs	r0, #32
   858e6:	4770      	bx	lr

000858e8 <__lo0bits>:
   858e8:	6803      	ldr	r3, [r0, #0]
   858ea:	f013 0207 	ands.w	r2, r3, #7
   858ee:	d00b      	beq.n	85908 <__lo0bits+0x20>
   858f0:	07d9      	lsls	r1, r3, #31
   858f2:	d422      	bmi.n	8593a <__lo0bits+0x52>
   858f4:	079a      	lsls	r2, r3, #30
   858f6:	d503      	bpl.n	85900 <__lo0bits+0x18>
   858f8:	085b      	lsrs	r3, r3, #1
   858fa:	6003      	str	r3, [r0, #0]
   858fc:	2001      	movs	r0, #1
   858fe:	4770      	bx	lr
   85900:	089b      	lsrs	r3, r3, #2
   85902:	6003      	str	r3, [r0, #0]
   85904:	2002      	movs	r0, #2
   85906:	4770      	bx	lr
   85908:	b299      	uxth	r1, r3
   8590a:	b909      	cbnz	r1, 85910 <__lo0bits+0x28>
   8590c:	0c1b      	lsrs	r3, r3, #16
   8590e:	2210      	movs	r2, #16
   85910:	f013 0fff 	tst.w	r3, #255	; 0xff
   85914:	bf04      	itt	eq
   85916:	0a1b      	lsreq	r3, r3, #8
   85918:	3208      	addeq	r2, #8
   8591a:	0719      	lsls	r1, r3, #28
   8591c:	bf04      	itt	eq
   8591e:	091b      	lsreq	r3, r3, #4
   85920:	3204      	addeq	r2, #4
   85922:	0799      	lsls	r1, r3, #30
   85924:	bf04      	itt	eq
   85926:	089b      	lsreq	r3, r3, #2
   85928:	3202      	addeq	r2, #2
   8592a:	07d9      	lsls	r1, r3, #31
   8592c:	d402      	bmi.n	85934 <__lo0bits+0x4c>
   8592e:	085b      	lsrs	r3, r3, #1
   85930:	d005      	beq.n	8593e <__lo0bits+0x56>
   85932:	3201      	adds	r2, #1
   85934:	6003      	str	r3, [r0, #0]
   85936:	4610      	mov	r0, r2
   85938:	4770      	bx	lr
   8593a:	2000      	movs	r0, #0
   8593c:	4770      	bx	lr
   8593e:	2020      	movs	r0, #32
   85940:	4770      	bx	lr

00085942 <__i2b>:
   85942:	b510      	push	{r4, lr}
   85944:	460c      	mov	r4, r1
   85946:	2101      	movs	r1, #1
   85948:	f7ff ff28 	bl	8579c <_Balloc>
   8594c:	2201      	movs	r2, #1
   8594e:	6144      	str	r4, [r0, #20]
   85950:	6102      	str	r2, [r0, #16]
   85952:	bd10      	pop	{r4, pc}

00085954 <__multiply>:
   85954:	e92d 4ff0 	stmdb	sp!, {r4, r5, r6, r7, r8, r9, sl, fp, lr}
   85958:	4616      	mov	r6, r2
   8595a:	6933      	ldr	r3, [r6, #16]
   8595c:	690a      	ldr	r2, [r1, #16]
   8595e:	b085      	sub	sp, #20
   85960:	429a      	cmp	r2, r3
   85962:	460d      	mov	r5, r1
   85964:	da01      	bge.n	8596a <__multiply+0x16>
   85966:	4635      	mov	r5, r6
   85968:	460e      	mov	r6, r1
   8596a:	f8d5 8010 	ldr.w	r8, [r5, #16]
   8596e:	6937      	ldr	r7, [r6, #16]
   85970:	68ab      	ldr	r3, [r5, #8]
   85972:	6869      	ldr	r1, [r5, #4]
   85974:	eb08 0407 	add.w	r4, r8, r7
   85978:	429c      	cmp	r4, r3
   8597a:	bfc8      	it	gt
   8597c:	3101      	addgt	r1, #1
   8597e:	f7ff ff0d 	bl	8579c <_Balloc>
   85982:	f100 0314 	add.w	r3, r0, #20
   85986:	eb03 0184 	add.w	r1, r3, r4, lsl #2
   8598a:	9101      	str	r1, [sp, #4]
   8598c:	461a      	mov	r2, r3
   8598e:	f8dd a004 	ldr.w	sl, [sp, #4]
   85992:	4552      	cmp	r2, sl
   85994:	d203      	bcs.n	8599e <__multiply+0x4a>
   85996:	2100      	movs	r1, #0
   85998:	f842 1b04 	str.w	r1, [r2], #4
   8599c:	e7f7      	b.n	8598e <__multiply+0x3a>
   8599e:	f105 0114 	add.w	r1, r5, #20
   859a2:	f106 0214 	add.w	r2, r6, #20
   859a6:	eb01 0888 	add.w	r8, r1, r8, lsl #2
   859aa:	eb02 0787 	add.w	r7, r2, r7, lsl #2
   859ae:	f8cd 8008 	str.w	r8, [sp, #8]
   859b2:	9703      	str	r7, [sp, #12]
   859b4:	9e03      	ldr	r6, [sp, #12]
   859b6:	4615      	mov	r5, r2
   859b8:	42b2      	cmp	r2, r6
   859ba:	d256      	bcs.n	85a6a <__multiply+0x116>
   859bc:	f8b5 c000 	ldrh.w	ip, [r5]
   859c0:	3204      	adds	r2, #4
   859c2:	f1bc 0f00 	cmp.w	ip, #0
   859c6:	d025      	beq.n	85a14 <__multiply+0xc0>
   859c8:	460f      	mov	r7, r1
   859ca:	461d      	mov	r5, r3
   859cc:	2600      	movs	r6, #0
   859ce:	f857 9b04 	ldr.w	r9, [r7], #4
   859d2:	f8d5 8000 	ldr.w	r8, [r5]
   859d6:	fa1f fb89 	uxth.w	fp, r9
   859da:	fa1f fa88 	uxth.w	sl, r8
   859de:	fb0c aa0b 	mla	sl, ip, fp, sl
   859e2:	ea4f 4919 	mov.w	r9, r9, lsr #16
   859e6:	ea4f 4818 	mov.w	r8, r8, lsr #16
   859ea:	fb0c 8809 	mla	r8, ip, r9, r8
   859ee:	44b2      	add	sl, r6
   859f0:	eb08 481a 	add.w	r8, r8, sl, lsr #16
   859f4:	fa1f fa8a 	uxth.w	sl, sl
   859f8:	ea4a 4a08 	orr.w	sl, sl, r8, lsl #16
   859fc:	ea4f 4618 	mov.w	r6, r8, lsr #16
   85a00:	f8dd 8008 	ldr.w	r8, [sp, #8]
   85a04:	46ab      	mov	fp, r5
   85a06:	45b8      	cmp	r8, r7
   85a08:	f84b ab04 	str.w	sl, [fp], #4
   85a0c:	d901      	bls.n	85a12 <__multiply+0xbe>
   85a0e:	465d      	mov	r5, fp
   85a10:	e7dd      	b.n	859ce <__multiply+0x7a>
   85a12:	606e      	str	r6, [r5, #4]
   85a14:	f832 8c02 	ldrh.w	r8, [r2, #-2]
   85a18:	f1b8 0f00 	cmp.w	r8, #0
   85a1c:	d023      	beq.n	85a66 <__multiply+0x112>
   85a1e:	681e      	ldr	r6, [r3, #0]
   85a20:	460f      	mov	r7, r1
   85a22:	461d      	mov	r5, r3
   85a24:	f04f 0900 	mov.w	r9, #0
   85a28:	f8b7 a000 	ldrh.w	sl, [r7]
   85a2c:	f8b5 c002 	ldrh.w	ip, [r5, #2]
   85a30:	b2b6      	uxth	r6, r6
   85a32:	fb08 cc0a 	mla	ip, r8, sl, ip
   85a36:	44e1      	add	r9, ip
   85a38:	ea46 4609 	orr.w	r6, r6, r9, lsl #16
   85a3c:	46ac      	mov	ip, r5
   85a3e:	f84c 6b04 	str.w	r6, [ip], #4
   85a42:	f857 6b04 	ldr.w	r6, [r7], #4
   85a46:	f8b5 a004 	ldrh.w	sl, [r5, #4]
   85a4a:	0c36      	lsrs	r6, r6, #16
   85a4c:	fb08 a606 	mla	r6, r8, r6, sl
   85a50:	f8dd a008 	ldr.w	sl, [sp, #8]
   85a54:	eb06 4619 	add.w	r6, r6, r9, lsr #16
   85a58:	4557      	cmp	r7, sl
   85a5a:	ea4f 4916 	mov.w	r9, r6, lsr #16
   85a5e:	d201      	bcs.n	85a64 <__multiply+0x110>
   85a60:	4665      	mov	r5, ip
   85a62:	e7e1      	b.n	85a28 <__multiply+0xd4>
   85a64:	606e      	str	r6, [r5, #4]
   85a66:	3304      	adds	r3, #4
   85a68:	e7a4      	b.n	859b4 <__multiply+0x60>
   85a6a:	9b01      	ldr	r3, [sp, #4]
   85a6c:	2c00      	cmp	r4, #0
   85a6e:	dc03      	bgt.n	85a78 <__multiply+0x124>
   85a70:	6104      	str	r4, [r0, #16]
   85a72:	b005      	add	sp, #20
   85a74:	e8bd 8ff0 	ldmia.w	sp!, {r4, r5, r6, r7, r8, r9, sl, fp, pc}
   85a78:	f853 2d04 	ldr.w	r2, [r3, #-4]!
   85a7c:	2a00      	cmp	r2, #0
   85a7e:	d1f7      	bne.n	85a70 <__multiply+0x11c>
   85a80:	3c01      	subs	r4, #1
   85a82:	e7f3      	b.n	85a6c <__multiply+0x118>

00085a84 <__pow5mult>:
   85a84:	f012 0303 	ands.w	r3, r2, #3
   85a88:	e92d 41f0 	stmdb	sp!, {r4, r5, r6, r7, r8, lr}
   85a8c:	4605      	mov	r5, r0
   85a8e:	460e      	mov	r6, r1
   85a90:	4617      	mov	r7, r2
   85a92:	d007      	beq.n	85aa4 <__pow5mult+0x20>
   85a94:	4a21      	ldr	r2, [pc, #132]	; (85b1c <__pow5mult+0x98>)
   85a96:	3b01      	subs	r3, #1
   85a98:	f852 2023 	ldr.w	r2, [r2, r3, lsl #2]
   85a9c:	2300      	movs	r3, #0
   85a9e:	f7ff fec9 	bl	85834 <__multadd>
   85aa2:	4606      	mov	r6, r0
   85aa4:	10bf      	asrs	r7, r7, #2
   85aa6:	d035      	beq.n	85b14 <__pow5mult+0x90>
   85aa8:	6a6c      	ldr	r4, [r5, #36]	; 0x24
   85aaa:	b93c      	cbnz	r4, 85abc <__pow5mult+0x38>
   85aac:	2010      	movs	r0, #16
   85aae:	f7ff fe5f 	bl	85770 <malloc>
   85ab2:	6268      	str	r0, [r5, #36]	; 0x24
   85ab4:	6044      	str	r4, [r0, #4]
   85ab6:	6084      	str	r4, [r0, #8]
   85ab8:	6004      	str	r4, [r0, #0]
   85aba:	60c4      	str	r4, [r0, #12]
   85abc:	f8d5 8024 	ldr.w	r8, [r5, #36]	; 0x24
   85ac0:	f8d8 4008 	ldr.w	r4, [r8, #8]
   85ac4:	b97c      	cbnz	r4, 85ae6 <__pow5mult+0x62>
   85ac6:	4628      	mov	r0, r5
   85ac8:	f240 2171 	movw	r1, #625	; 0x271
   85acc:	f7ff ff39 	bl	85942 <__i2b>
   85ad0:	2300      	movs	r3, #0
   85ad2:	f8c8 0008 	str.w	r0, [r8, #8]
   85ad6:	4604      	mov	r4, r0
   85ad8:	6003      	str	r3, [r0, #0]
   85ada:	e004      	b.n	85ae6 <__pow5mult+0x62>
   85adc:	107f      	asrs	r7, r7, #1
   85ade:	d019      	beq.n	85b14 <__pow5mult+0x90>
   85ae0:	6820      	ldr	r0, [r4, #0]
   85ae2:	b170      	cbz	r0, 85b02 <__pow5mult+0x7e>
   85ae4:	4604      	mov	r4, r0
   85ae6:	07fb      	lsls	r3, r7, #31
   85ae8:	d5f8      	bpl.n	85adc <__pow5mult+0x58>
   85aea:	4631      	mov	r1, r6
   85aec:	4622      	mov	r2, r4
   85aee:	4628      	mov	r0, r5
   85af0:	f7ff ff30 	bl	85954 <__multiply>
   85af4:	4631      	mov	r1, r6
   85af6:	4680      	mov	r8, r0
   85af8:	4628      	mov	r0, r5
   85afa:	f7ff fe84 	bl	85806 <_Bfree>
   85afe:	4646      	mov	r6, r8
   85b00:	e7ec      	b.n	85adc <__pow5mult+0x58>
   85b02:	4628      	mov	r0, r5
   85b04:	4621      	mov	r1, r4
   85b06:	4622      	mov	r2, r4
   85b08:	f7ff ff24 	bl	85954 <__multiply>
   85b0c:	2300      	movs	r3, #0
   85b0e:	6020      	str	r0, [r4, #0]
   85b10:	6003      	str	r3, [r0, #0]
   85b12:	e7e7      	b.n	85ae4 <__pow5mult+0x60>
   85b14:	4630      	mov	r0, r6
   85b16:	e8bd 81f0 	ldmia.w	sp!, {r4, r5, r6, r7, r8, pc}
   85b1a:	bf00      	nop
   85b1c:	00087248 	.word	0x00087248

00085b20 <__lshift>:
   85b20:	e92d 47f0 	stmdb	sp!, {r4, r5, r6, r7, r8, r9, sl, lr}
   85b24:	460c      	mov	r4, r1
   85b26:	6923      	ldr	r3, [r4, #16]
   85b28:	ea4f 1a62 	mov.w	sl, r2, asr #5
   85b2c:	eb0a 0903 	add.w	r9, sl, r3
   85b30:	6849      	ldr	r1, [r1, #4]
   85b32:	68a3      	ldr	r3, [r4, #8]
   85b34:	4680      	mov	r8, r0
   85b36:	4615      	mov	r5, r2
   85b38:	f109 0701 	add.w	r7, r9, #1
   85b3c:	429f      	cmp	r7, r3
   85b3e:	dd02      	ble.n	85b46 <__lshift+0x26>
   85b40:	3101      	adds	r1, #1
   85b42:	005b      	lsls	r3, r3, #1
   85b44:	e7fa      	b.n	85b3c <__lshift+0x1c>
   85b46:	4640      	mov	r0, r8
   85b48:	f7ff fe28 	bl	8579c <_Balloc>
   85b4c:	2300      	movs	r3, #0
   85b4e:	4606      	mov	r6, r0
   85b50:	f100 0214 	add.w	r2, r0, #20
   85b54:	4553      	cmp	r3, sl
   85b56:	da04      	bge.n	85b62 <__lshift+0x42>
   85b58:	2100      	movs	r1, #0
   85b5a:	f842 1023 	str.w	r1, [r2, r3, lsl #2]
   85b5e:	3301      	adds	r3, #1
   85b60:	e7f8      	b.n	85b54 <__lshift+0x34>
   85b62:	6920      	ldr	r0, [r4, #16]
   85b64:	ea2a 71ea 	bic.w	r1, sl, sl, asr #31
   85b68:	f104 0314 	add.w	r3, r4, #20
   85b6c:	f015 0c1f 	ands.w	ip, r5, #31
   85b70:	eb02 0181 	add.w	r1, r2, r1, lsl #2
   85b74:	eb03 0e80 	add.w	lr, r3, r0, lsl #2
   85b78:	d016      	beq.n	85ba8 <__lshift+0x88>
   85b7a:	f1cc 0a20 	rsb	sl, ip, #32
   85b7e:	2500      	movs	r5, #0
   85b80:	6818      	ldr	r0, [r3, #0]
   85b82:	460a      	mov	r2, r1
   85b84:	fa00 f00c 	lsl.w	r0, r0, ip
   85b88:	4305      	orrs	r5, r0
   85b8a:	f842 5b04 	str.w	r5, [r2], #4
   85b8e:	f853 5b04 	ldr.w	r5, [r3], #4
   85b92:	4573      	cmp	r3, lr
   85b94:	fa25 f50a 	lsr.w	r5, r5, sl
   85b98:	d201      	bcs.n	85b9e <__lshift+0x7e>
   85b9a:	4611      	mov	r1, r2
   85b9c:	e7f0      	b.n	85b80 <__lshift+0x60>
   85b9e:	604d      	str	r5, [r1, #4]
   85ba0:	b145      	cbz	r5, 85bb4 <__lshift+0x94>
   85ba2:	f109 0702 	add.w	r7, r9, #2
   85ba6:	e005      	b.n	85bb4 <__lshift+0x94>
   85ba8:	f853 2b04 	ldr.w	r2, [r3], #4
   85bac:	4573      	cmp	r3, lr
   85bae:	f841 2b04 	str.w	r2, [r1], #4
   85bb2:	d3f9      	bcc.n	85ba8 <__lshift+0x88>
   85bb4:	3f01      	subs	r7, #1
   85bb6:	4640      	mov	r0, r8
   85bb8:	6137      	str	r7, [r6, #16]
   85bba:	4621      	mov	r1, r4
   85bbc:	f7ff fe23 	bl	85806 <_Bfree>
   85bc0:	4630      	mov	r0, r6
   85bc2:	e8bd 87f0 	ldmia.w	sp!, {r4, r5, r6, r7, r8, r9, sl, pc}

00085bc6 <__mcmp>:
   85bc6:	6902      	ldr	r2, [r0, #16]
   85bc8:	690b      	ldr	r3, [r1, #16]
   85bca:	b510      	push	{r4, lr}
   85bcc:	1ad2      	subs	r2, r2, r3
   85bce:	d113      	bne.n	85bf8 <__mcmp+0x32>
   85bd0:	009c      	lsls	r4, r3, #2
   85bd2:	3014      	adds	r0, #20
   85bd4:	f101 0214 	add.w	r2, r1, #20
   85bd8:	1903      	adds	r3, r0, r4
   85bda:	4422      	add	r2, r4
   85bdc:	f853 4d04 	ldr.w	r4, [r3, #-4]!
   85be0:	f852 1d04 	ldr.w	r1, [r2, #-4]!
   85be4:	428c      	cmp	r4, r1
   85be6:	d003      	beq.n	85bf0 <__mcmp+0x2a>
   85be8:	d208      	bcs.n	85bfc <__mcmp+0x36>
   85bea:	f04f 30ff 	mov.w	r0, #4294967295
   85bee:	bd10      	pop	{r4, pc}
   85bf0:	4298      	cmp	r0, r3
   85bf2:	d3f3      	bcc.n	85bdc <__mcmp+0x16>
   85bf4:	2000      	movs	r0, #0
   85bf6:	bd10      	pop	{r4, pc}
   85bf8:	4610      	mov	r0, r2
   85bfa:	bd10      	pop	{r4, pc}
   85bfc:	2001      	movs	r0, #1
   85bfe:	bd10      	pop	{r4, pc}

00085c00 <__mdiff>:
   85c00:	e92d 47f0 	stmdb	sp!, {r4, r5, r6, r7, r8, r9, sl, lr}
   85c04:	4606      	mov	r6, r0
   85c06:	460c      	mov	r4, r1
   85c08:	4608      	mov	r0, r1
   85c0a:	4611      	mov	r1, r2
   85c0c:	4615      	mov	r5, r2
   85c0e:	f7ff ffda 	bl	85bc6 <__mcmp>
   85c12:	1e07      	subs	r7, r0, #0
   85c14:	d108      	bne.n	85c28 <__mdiff+0x28>
   85c16:	4630      	mov	r0, r6
   85c18:	4639      	mov	r1, r7
   85c1a:	f7ff fdbf 	bl	8579c <_Balloc>
   85c1e:	2301      	movs	r3, #1
   85c20:	6103      	str	r3, [r0, #16]
   85c22:	6147      	str	r7, [r0, #20]
   85c24:	e8bd 87f0 	ldmia.w	sp!, {r4, r5, r6, r7, r8, r9, sl, pc}
   85c28:	db01      	blt.n	85c2e <__mdiff+0x2e>
   85c2a:	2700      	movs	r7, #0
   85c2c:	e003      	b.n	85c36 <__mdiff+0x36>
   85c2e:	4623      	mov	r3, r4
   85c30:	2701      	movs	r7, #1
   85c32:	462c      	mov	r4, r5
   85c34:	461d      	mov	r5, r3
   85c36:	6861      	ldr	r1, [r4, #4]
   85c38:	4630      	mov	r0, r6
   85c3a:	f7ff fdaf 	bl	8579c <_Balloc>
   85c3e:	6922      	ldr	r2, [r4, #16]
   85c40:	692b      	ldr	r3, [r5, #16]
   85c42:	3414      	adds	r4, #20
   85c44:	f105 0614 	add.w	r6, r5, #20
   85c48:	eb06 0a83 	add.w	sl, r6, r3, lsl #2
   85c4c:	60c7      	str	r7, [r0, #12]
   85c4e:	eb04 0c82 	add.w	ip, r4, r2, lsl #2
   85c52:	f100 0314 	add.w	r3, r0, #20
   85c56:	2100      	movs	r1, #0
   85c58:	f854 7b04 	ldr.w	r7, [r4], #4
   85c5c:	f856 9b04 	ldr.w	r9, [r6], #4
   85c60:	fa1f f887 	uxth.w	r8, r7
   85c64:	fa1f f589 	uxth.w	r5, r9
   85c68:	4441      	add	r1, r8
   85c6a:	ea4f 4919 	mov.w	r9, r9, lsr #16
   85c6e:	ebc5 0801 	rsb	r8, r5, r1
   85c72:	ebc9 4717 	rsb	r7, r9, r7, lsr #16
   85c76:	eb07 4728 	add.w	r7, r7, r8, asr #16
   85c7a:	fa1f f888 	uxth.w	r8, r8
   85c7e:	1439      	asrs	r1, r7, #16
   85c80:	45b2      	cmp	sl, r6
   85c82:	ea48 4707 	orr.w	r7, r8, r7, lsl #16
   85c86:	4625      	mov	r5, r4
   85c88:	f843 7b04 	str.w	r7, [r3], #4
   85c8c:	d8e4      	bhi.n	85c58 <__mdiff+0x58>
   85c8e:	4565      	cmp	r5, ip
   85c90:	d20d      	bcs.n	85cae <__mdiff+0xae>
   85c92:	f855 4b04 	ldr.w	r4, [r5], #4
   85c96:	b2a6      	uxth	r6, r4
   85c98:	440e      	add	r6, r1
   85c9a:	0c24      	lsrs	r4, r4, #16
   85c9c:	eb04 4426 	add.w	r4, r4, r6, asr #16
   85ca0:	b2b6      	uxth	r6, r6
   85ca2:	1421      	asrs	r1, r4, #16
   85ca4:	ea46 4404 	orr.w	r4, r6, r4, lsl #16
   85ca8:	f843 4b04 	str.w	r4, [r3], #4
   85cac:	e7ef      	b.n	85c8e <__mdiff+0x8e>
   85cae:	f853 1d04 	ldr.w	r1, [r3, #-4]!
   85cb2:	b909      	cbnz	r1, 85cb8 <__mdiff+0xb8>
   85cb4:	3a01      	subs	r2, #1
   85cb6:	e7fa      	b.n	85cae <__mdiff+0xae>
   85cb8:	6102      	str	r2, [r0, #16]
   85cba:	e8bd 87f0 	ldmia.w	sp!, {r4, r5, r6, r7, r8, r9, sl, pc}

00085cbe <__d2b>:
   85cbe:	e92d 43f7 	stmdb	sp!, {r0, r1, r2, r4, r5, r6, r7, r8, r9, lr}
   85cc2:	2101      	movs	r1, #1
   85cc4:	461d      	mov	r5, r3
   85cc6:	f8dd 9028 	ldr.w	r9, [sp, #40]	; 0x28
   85cca:	f8dd 802c 	ldr.w	r8, [sp, #44]	; 0x2c
   85cce:	4614      	mov	r4, r2
   85cd0:	f7ff fd64 	bl	8579c <_Balloc>
   85cd4:	f3c5 570a 	ubfx	r7, r5, #20, #11
   85cd8:	4606      	mov	r6, r0
   85cda:	f3c5 0313 	ubfx	r3, r5, #0, #20
   85cde:	b10f      	cbz	r7, 85ce4 <__d2b+0x26>
   85ce0:	f443 1380 	orr.w	r3, r3, #1048576	; 0x100000
   85ce4:	9301      	str	r3, [sp, #4]
   85ce6:	b1d4      	cbz	r4, 85d1e <__d2b+0x60>
   85ce8:	a802      	add	r0, sp, #8
   85cea:	f840 4d08 	str.w	r4, [r0, #-8]!
   85cee:	4668      	mov	r0, sp
   85cf0:	f7ff fdfa 	bl	858e8 <__lo0bits>
   85cf4:	9b00      	ldr	r3, [sp, #0]
   85cf6:	b148      	cbz	r0, 85d0c <__d2b+0x4e>
   85cf8:	9a01      	ldr	r2, [sp, #4]
   85cfa:	f1c0 0120 	rsb	r1, r0, #32
   85cfe:	fa02 f101 	lsl.w	r1, r2, r1
   85d02:	40c2      	lsrs	r2, r0
   85d04:	430b      	orrs	r3, r1
   85d06:	6173      	str	r3, [r6, #20]
   85d08:	9201      	str	r2, [sp, #4]
   85d0a:	e000      	b.n	85d0e <__d2b+0x50>
   85d0c:	6173      	str	r3, [r6, #20]
   85d0e:	9b01      	ldr	r3, [sp, #4]
   85d10:	2b00      	cmp	r3, #0
   85d12:	bf0c      	ite	eq
   85d14:	2401      	moveq	r4, #1
   85d16:	2402      	movne	r4, #2
   85d18:	61b3      	str	r3, [r6, #24]
   85d1a:	6134      	str	r4, [r6, #16]
   85d1c:	e007      	b.n	85d2e <__d2b+0x70>
   85d1e:	a801      	add	r0, sp, #4
   85d20:	f7ff fde2 	bl	858e8 <__lo0bits>
   85d24:	9b01      	ldr	r3, [sp, #4]
   85d26:	2401      	movs	r4, #1
   85d28:	6173      	str	r3, [r6, #20]
   85d2a:	6134      	str	r4, [r6, #16]
   85d2c:	3020      	adds	r0, #32
   85d2e:	b13f      	cbz	r7, 85d40 <__d2b+0x82>
   85d30:	f2a7 4733 	subw	r7, r7, #1075	; 0x433
   85d34:	4407      	add	r7, r0
   85d36:	f8c9 7000 	str.w	r7, [r9]
   85d3a:	f1c0 0035 	rsb	r0, r0, #53	; 0x35
   85d3e:	e00a      	b.n	85d56 <__d2b+0x98>
   85d40:	f2a0 4032 	subw	r0, r0, #1074	; 0x432
   85d44:	eb06 0384 	add.w	r3, r6, r4, lsl #2
   85d48:	f8c9 0000 	str.w	r0, [r9]
   85d4c:	6918      	ldr	r0, [r3, #16]
   85d4e:	f7ff fdab 	bl	858a8 <__hi0bits>
   85d52:	ebc0 1044 	rsb	r0, r0, r4, lsl #5
   85d56:	f8c8 0000 	str.w	r0, [r8]
   85d5a:	4630      	mov	r0, r6
   85d5c:	b003      	add	sp, #12
   85d5e:	e8bd 83f0 	ldmia.w	sp!, {r4, r5, r6, r7, r8, r9, pc}

00085d62 <_calloc_r>:
   85d62:	b538      	push	{r3, r4, r5, lr}
   85d64:	fb02 f401 	mul.w	r4, r2, r1
   85d68:	4621      	mov	r1, r4
   85d6a:	f000 f84d 	bl	85e08 <_malloc_r>
   85d6e:	4605      	mov	r5, r0
   85d70:	b118      	cbz	r0, 85d7a <_calloc_r+0x18>
   85d72:	2100      	movs	r1, #0
   85d74:	4622      	mov	r2, r4
   85d76:	f7fd fe0c 	bl	83992 <memset>
   85d7a:	4628      	mov	r0, r5
   85d7c:	bd38      	pop	{r3, r4, r5, pc}
	...

00085d80 <_free_r>:
   85d80:	b530      	push	{r4, r5, lr}
   85d82:	2900      	cmp	r1, #0
   85d84:	d03c      	beq.n	85e00 <_free_r+0x80>
   85d86:	f851 2c04 	ldr.w	r2, [r1, #-4]
   85d8a:	1f0b      	subs	r3, r1, #4
   85d8c:	491d      	ldr	r1, [pc, #116]	; (85e04 <_free_r+0x84>)
   85d8e:	2a00      	cmp	r2, #0
   85d90:	bfb8      	it	lt
   85d92:	189b      	addlt	r3, r3, r2
   85d94:	680a      	ldr	r2, [r1, #0]
   85d96:	460c      	mov	r4, r1
   85d98:	b912      	cbnz	r2, 85da0 <_free_r+0x20>
   85d9a:	605a      	str	r2, [r3, #4]
   85d9c:	600b      	str	r3, [r1, #0]
   85d9e:	bd30      	pop	{r4, r5, pc}
   85da0:	4293      	cmp	r3, r2
   85da2:	d20d      	bcs.n	85dc0 <_free_r+0x40>
   85da4:	6819      	ldr	r1, [r3, #0]
   85da6:	1858      	adds	r0, r3, r1
   85da8:	4290      	cmp	r0, r2
   85daa:	d103      	bne.n	85db4 <_free_r+0x34>
   85dac:	585a      	ldr	r2, [r3, r1]
   85dae:	4411      	add	r1, r2
   85db0:	6842      	ldr	r2, [r0, #4]
   85db2:	6019      	str	r1, [r3, #0]
   85db4:	605a      	str	r2, [r3, #4]
   85db6:	6023      	str	r3, [r4, #0]
   85db8:	bd30      	pop	{r4, r5, pc}
   85dba:	4299      	cmp	r1, r3
   85dbc:	d803      	bhi.n	85dc6 <_free_r+0x46>
   85dbe:	460a      	mov	r2, r1
   85dc0:	6851      	ldr	r1, [r2, #4]
   85dc2:	2900      	cmp	r1, #0
   85dc4:	d1f9      	bne.n	85dba <_free_r+0x3a>
   85dc6:	6814      	ldr	r4, [r2, #0]
   85dc8:	1915      	adds	r5, r2, r4
   85dca:	429d      	cmp	r5, r3
   85dcc:	d10a      	bne.n	85de4 <_free_r+0x64>
   85dce:	681b      	ldr	r3, [r3, #0]
   85dd0:	4423      	add	r3, r4
   85dd2:	18d0      	adds	r0, r2, r3
   85dd4:	4288      	cmp	r0, r1
   85dd6:	6013      	str	r3, [r2, #0]
   85dd8:	d112      	bne.n	85e00 <_free_r+0x80>
   85dda:	6808      	ldr	r0, [r1, #0]
   85ddc:	4403      	add	r3, r0
   85dde:	6013      	str	r3, [r2, #0]
   85de0:	684b      	ldr	r3, [r1, #4]
   85de2:	e00c      	b.n	85dfe <_free_r+0x7e>
   85de4:	d902      	bls.n	85dec <_free_r+0x6c>
   85de6:	230c      	movs	r3, #12
   85de8:	6003      	str	r3, [r0, #0]
   85dea:	bd30      	pop	{r4, r5, pc}
   85dec:	6818      	ldr	r0, [r3, #0]
   85dee:	181c      	adds	r4, r3, r0
   85df0:	428c      	cmp	r4, r1
   85df2:	d103      	bne.n	85dfc <_free_r+0x7c>
   85df4:	680c      	ldr	r4, [r1, #0]
   85df6:	6849      	ldr	r1, [r1, #4]
   85df8:	4420      	add	r0, r4
   85dfa:	6018      	str	r0, [r3, #0]
   85dfc:	6059      	str	r1, [r3, #4]
   85dfe:	6053      	str	r3, [r2, #4]
   85e00:	bd30      	pop	{r4, r5, pc}
   85e02:	bf00      	nop
   85e04:	20078540 	.word	0x20078540

00085e08 <_malloc_r>:
   85e08:	b570      	push	{r4, r5, r6, lr}
   85e0a:	1ccd      	adds	r5, r1, #3
   85e0c:	f025 0503 	bic.w	r5, r5, #3
   85e10:	3508      	adds	r5, #8
   85e12:	2d0c      	cmp	r5, #12
   85e14:	bf38      	it	cc
   85e16:	250c      	movcc	r5, #12
   85e18:	2d00      	cmp	r5, #0
   85e1a:	4606      	mov	r6, r0
   85e1c:	db3f      	blt.n	85e9e <_malloc_r+0x96>
   85e1e:	428d      	cmp	r5, r1
   85e20:	d33d      	bcc.n	85e9e <_malloc_r+0x96>
   85e22:	4b21      	ldr	r3, [pc, #132]	; (85ea8 <_malloc_r+0xa0>)
   85e24:	681c      	ldr	r4, [r3, #0]
   85e26:	4618      	mov	r0, r3
   85e28:	4621      	mov	r1, r4
   85e2a:	b1a1      	cbz	r1, 85e56 <_malloc_r+0x4e>
   85e2c:	680b      	ldr	r3, [r1, #0]
   85e2e:	1b5b      	subs	r3, r3, r5
   85e30:	d40e      	bmi.n	85e50 <_malloc_r+0x48>
   85e32:	2b0b      	cmp	r3, #11
   85e34:	d903      	bls.n	85e3e <_malloc_r+0x36>
   85e36:	600b      	str	r3, [r1, #0]
   85e38:	18cc      	adds	r4, r1, r3
   85e3a:	50cd      	str	r5, [r1, r3]
   85e3c:	e01f      	b.n	85e7e <_malloc_r+0x76>
   85e3e:	428c      	cmp	r4, r1
   85e40:	d102      	bne.n	85e48 <_malloc_r+0x40>
   85e42:	6862      	ldr	r2, [r4, #4]
   85e44:	6002      	str	r2, [r0, #0]
   85e46:	e01a      	b.n	85e7e <_malloc_r+0x76>
   85e48:	684b      	ldr	r3, [r1, #4]
   85e4a:	6063      	str	r3, [r4, #4]
   85e4c:	460c      	mov	r4, r1
   85e4e:	e016      	b.n	85e7e <_malloc_r+0x76>
   85e50:	460c      	mov	r4, r1
   85e52:	6849      	ldr	r1, [r1, #4]
   85e54:	e7e9      	b.n	85e2a <_malloc_r+0x22>
   85e56:	4c15      	ldr	r4, [pc, #84]	; (85eac <_malloc_r+0xa4>)
   85e58:	6823      	ldr	r3, [r4, #0]
   85e5a:	b91b      	cbnz	r3, 85e64 <_malloc_r+0x5c>
   85e5c:	4630      	mov	r0, r6
   85e5e:	f000 f849 	bl	85ef4 <_sbrk_r>
   85e62:	6020      	str	r0, [r4, #0]
   85e64:	4629      	mov	r1, r5
   85e66:	4630      	mov	r0, r6
   85e68:	f000 f844 	bl	85ef4 <_sbrk_r>
   85e6c:	1c43      	adds	r3, r0, #1
   85e6e:	4601      	mov	r1, r0
   85e70:	d015      	beq.n	85e9e <_malloc_r+0x96>
   85e72:	1cc4      	adds	r4, r0, #3
   85e74:	f024 0403 	bic.w	r4, r4, #3
   85e78:	4284      	cmp	r4, r0
   85e7a:	d10a      	bne.n	85e92 <_malloc_r+0x8a>
   85e7c:	6025      	str	r5, [r4, #0]
   85e7e:	f104 000b 	add.w	r0, r4, #11
   85e82:	1d23      	adds	r3, r4, #4
   85e84:	f020 0007 	bic.w	r0, r0, #7
   85e88:	1ac3      	subs	r3, r0, r3
   85e8a:	d00b      	beq.n	85ea4 <_malloc_r+0x9c>
   85e8c:	425a      	negs	r2, r3
   85e8e:	50e2      	str	r2, [r4, r3]
   85e90:	bd70      	pop	{r4, r5, r6, pc}
   85e92:	4630      	mov	r0, r6
   85e94:	1a61      	subs	r1, r4, r1
   85e96:	f000 f82d 	bl	85ef4 <_sbrk_r>
   85e9a:	3001      	adds	r0, #1
   85e9c:	d1ee      	bne.n	85e7c <_malloc_r+0x74>
   85e9e:	230c      	movs	r3, #12
   85ea0:	6033      	str	r3, [r6, #0]
   85ea2:	2000      	movs	r0, #0
   85ea4:	bd70      	pop	{r4, r5, r6, pc}
   85ea6:	bf00      	nop
   85ea8:	20078540 	.word	0x20078540
   85eac:	2007853c 	.word	0x2007853c

00085eb0 <__fpclassifyd>:
   85eb0:	f031 4300 	bics.w	r3, r1, #2147483648	; 0x80000000
   85eb4:	b510      	push	{r4, lr}
   85eb6:	d100      	bne.n	85eba <__fpclassifyd+0xa>
   85eb8:	b178      	cbz	r0, 85eda <__fpclassifyd+0x2a>
   85eba:	4a0c      	ldr	r2, [pc, #48]	; (85eec <__fpclassifyd+0x3c>)
   85ebc:	f5a3 1480 	sub.w	r4, r3, #1048576	; 0x100000
   85ec0:	4294      	cmp	r4, r2
   85ec2:	d90c      	bls.n	85ede <__fpclassifyd+0x2e>
   85ec4:	f5b3 1f80 	cmp.w	r3, #1048576	; 0x100000
   85ec8:	d30b      	bcc.n	85ee2 <__fpclassifyd+0x32>
   85eca:	4a09      	ldr	r2, [pc, #36]	; (85ef0 <__fpclassifyd+0x40>)
   85ecc:	4293      	cmp	r3, r2
   85ece:	d10a      	bne.n	85ee6 <__fpclassifyd+0x36>
   85ed0:	f1d0 0001 	rsbs	r0, r0, #1
   85ed4:	bf38      	it	cc
   85ed6:	2000      	movcc	r0, #0
   85ed8:	bd10      	pop	{r4, pc}
   85eda:	2002      	movs	r0, #2
   85edc:	bd10      	pop	{r4, pc}
   85ede:	2004      	movs	r0, #4
   85ee0:	bd10      	pop	{r4, pc}
   85ee2:	2003      	movs	r0, #3
   85ee4:	bd10      	pop	{r4, pc}
   85ee6:	2000      	movs	r0, #0
   85ee8:	bd10      	pop	{r4, pc}
   85eea:	bf00      	nop
   85eec:	7fdfffff 	.word	0x7fdfffff
   85ef0:	7ff00000 	.word	0x7ff00000

00085ef4 <_sbrk_r>:
   85ef4:	b538      	push	{r3, r4, r5, lr}
   85ef6:	4c06      	ldr	r4, [pc, #24]	; (85f10 <_sbrk_r+0x1c>)
   85ef8:	2300      	movs	r3, #0
   85efa:	4605      	mov	r5, r0
   85efc:	4608      	mov	r0, r1
   85efe:	6023      	str	r3, [r4, #0]
   85f00:	f7fc f84c 	bl	81f9c <_sbrk>
   85f04:	1c43      	adds	r3, r0, #1
   85f06:	d102      	bne.n	85f0e <_sbrk_r+0x1a>
   85f08:	6823      	ldr	r3, [r4, #0]
   85f0a:	b103      	cbz	r3, 85f0e <_sbrk_r+0x1a>
   85f0c:	602b      	str	r3, [r5, #0]
   85f0e:	bd38      	pop	{r3, r4, r5, pc}
   85f10:	200785c8 	.word	0x200785c8

00085f14 <__sread>:
   85f14:	b510      	push	{r4, lr}
   85f16:	460c      	mov	r4, r1
   85f18:	f9b1 100e 	ldrsh.w	r1, [r1, #14]
   85f1c:	f000 f894 	bl	86048 <_read_r>
   85f20:	2800      	cmp	r0, #0
   85f22:	db03      	blt.n	85f2c <__sread+0x18>
   85f24:	6d63      	ldr	r3, [r4, #84]	; 0x54
   85f26:	4403      	add	r3, r0
   85f28:	6563      	str	r3, [r4, #84]	; 0x54
   85f2a:	bd10      	pop	{r4, pc}
   85f2c:	89a3      	ldrh	r3, [r4, #12]
   85f2e:	f423 5380 	bic.w	r3, r3, #4096	; 0x1000
   85f32:	81a3      	strh	r3, [r4, #12]
   85f34:	bd10      	pop	{r4, pc}

00085f36 <__swrite>:
   85f36:	e92d 41f0 	stmdb	sp!, {r4, r5, r6, r7, r8, lr}
   85f3a:	461d      	mov	r5, r3
   85f3c:	898b      	ldrh	r3, [r1, #12]
   85f3e:	4607      	mov	r7, r0
   85f40:	05db      	lsls	r3, r3, #23
   85f42:	460c      	mov	r4, r1
   85f44:	4616      	mov	r6, r2
   85f46:	d505      	bpl.n	85f54 <__swrite+0x1e>
   85f48:	f9b1 100e 	ldrsh.w	r1, [r1, #14]
   85f4c:	2200      	movs	r2, #0
   85f4e:	2302      	movs	r3, #2
   85f50:	f000 f868 	bl	86024 <_lseek_r>
   85f54:	89a3      	ldrh	r3, [r4, #12]
   85f56:	4638      	mov	r0, r7
   85f58:	f423 5380 	bic.w	r3, r3, #4096	; 0x1000
   85f5c:	81a3      	strh	r3, [r4, #12]
   85f5e:	f9b4 100e 	ldrsh.w	r1, [r4, #14]
   85f62:	4632      	mov	r2, r6
   85f64:	462b      	mov	r3, r5
   85f66:	e8bd 41f0 	ldmia.w	sp!, {r4, r5, r6, r7, r8, lr}
   85f6a:	f000 b817 	b.w	85f9c <_write_r>

00085f6e <__sseek>:
   85f6e:	b510      	push	{r4, lr}
   85f70:	460c      	mov	r4, r1
   85f72:	f9b1 100e 	ldrsh.w	r1, [r1, #14]
   85f76:	f000 f855 	bl	86024 <_lseek_r>
   85f7a:	1c43      	adds	r3, r0, #1
   85f7c:	89a3      	ldrh	r3, [r4, #12]
   85f7e:	d103      	bne.n	85f88 <__sseek+0x1a>
   85f80:	f423 5380 	bic.w	r3, r3, #4096	; 0x1000
   85f84:	81a3      	strh	r3, [r4, #12]
   85f86:	bd10      	pop	{r4, pc}
   85f88:	f443 5380 	orr.w	r3, r3, #4096	; 0x1000
   85f8c:	81a3      	strh	r3, [r4, #12]
   85f8e:	6560      	str	r0, [r4, #84]	; 0x54
   85f90:	bd10      	pop	{r4, pc}

00085f92 <__sclose>:
   85f92:	f9b1 100e 	ldrsh.w	r1, [r1, #14]
   85f96:	f000 b813 	b.w	85fc0 <_close_r>
	...

00085f9c <_write_r>:
   85f9c:	b538      	push	{r3, r4, r5, lr}
   85f9e:	4c07      	ldr	r4, [pc, #28]	; (85fbc <_write_r+0x20>)
   85fa0:	4605      	mov	r5, r0
   85fa2:	2000      	movs	r0, #0
   85fa4:	6020      	str	r0, [r4, #0]
   85fa6:	4608      	mov	r0, r1
   85fa8:	4611      	mov	r1, r2
   85faa:	461a      	mov	r2, r3
   85fac:	f7fb fa98 	bl	814e0 <_write>
   85fb0:	1c43      	adds	r3, r0, #1
   85fb2:	d102      	bne.n	85fba <_write_r+0x1e>
   85fb4:	6823      	ldr	r3, [r4, #0]
   85fb6:	b103      	cbz	r3, 85fba <_write_r+0x1e>
   85fb8:	602b      	str	r3, [r5, #0]
   85fba:	bd38      	pop	{r3, r4, r5, pc}
   85fbc:	200785c8 	.word	0x200785c8

00085fc0 <_close_r>:
   85fc0:	b538      	push	{r3, r4, r5, lr}
   85fc2:	4c06      	ldr	r4, [pc, #24]	; (85fdc <_close_r+0x1c>)
   85fc4:	2300      	movs	r3, #0
   85fc6:	4605      	mov	r5, r0
   85fc8:	4608      	mov	r0, r1
   85fca:	6023      	str	r3, [r4, #0]
   85fcc:	f7fc f800 	bl	81fd0 <_close>
   85fd0:	1c43      	adds	r3, r0, #1
   85fd2:	d102      	bne.n	85fda <_close_r+0x1a>
   85fd4:	6823      	ldr	r3, [r4, #0]
   85fd6:	b103      	cbz	r3, 85fda <_close_r+0x1a>
   85fd8:	602b      	str	r3, [r5, #0]
   85fda:	bd38      	pop	{r3, r4, r5, pc}
   85fdc:	200785c8 	.word	0x200785c8

00085fe0 <_fstat_r>:
   85fe0:	b538      	push	{r3, r4, r5, lr}
   85fe2:	4c07      	ldr	r4, [pc, #28]	; (86000 <_fstat_r+0x20>)
   85fe4:	2300      	movs	r3, #0
   85fe6:	4605      	mov	r5, r0
   85fe8:	4608      	mov	r0, r1
   85fea:	4611      	mov	r1, r2
   85fec:	6023      	str	r3, [r4, #0]
   85fee:	f7fb fff3 	bl	81fd8 <_fstat>
   85ff2:	1c43      	adds	r3, r0, #1
   85ff4:	d102      	bne.n	85ffc <_fstat_r+0x1c>
   85ff6:	6823      	ldr	r3, [r4, #0]
   85ff8:	b103      	cbz	r3, 85ffc <_fstat_r+0x1c>
   85ffa:	602b      	str	r3, [r5, #0]
   85ffc:	bd38      	pop	{r3, r4, r5, pc}
   85ffe:	bf00      	nop
   86000:	200785c8 	.word	0x200785c8

00086004 <_isatty_r>:
   86004:	b538      	push	{r3, r4, r5, lr}
   86006:	4c06      	ldr	r4, [pc, #24]	; (86020 <_isatty_r+0x1c>)
   86008:	2300      	movs	r3, #0
   8600a:	4605      	mov	r5, r0
   8600c:	4608      	mov	r0, r1
   8600e:	6023      	str	r3, [r4, #0]
   86010:	f7fb ffe8 	bl	81fe4 <_isatty>
   86014:	1c43      	adds	r3, r0, #1
   86016:	d102      	bne.n	8601e <_isatty_r+0x1a>
   86018:	6823      	ldr	r3, [r4, #0]
   8601a:	b103      	cbz	r3, 8601e <_isatty_r+0x1a>
   8601c:	602b      	str	r3, [r5, #0]
   8601e:	bd38      	pop	{r3, r4, r5, pc}
   86020:	200785c8 	.word	0x200785c8

00086024 <_lseek_r>:
   86024:	b538      	push	{r3, r4, r5, lr}
   86026:	4c07      	ldr	r4, [pc, #28]	; (86044 <_lseek_r+0x20>)
   86028:	4605      	mov	r5, r0
   8602a:	2000      	movs	r0, #0
   8602c:	6020      	str	r0, [r4, #0]
   8602e:	4608      	mov	r0, r1
   86030:	4611      	mov	r1, r2
   86032:	461a      	mov	r2, r3
   86034:	f7fb ffd8 	bl	81fe8 <_lseek>
   86038:	1c43      	adds	r3, r0, #1
   8603a:	d102      	bne.n	86042 <_lseek_r+0x1e>
   8603c:	6823      	ldr	r3, [r4, #0]
   8603e:	b103      	cbz	r3, 86042 <_lseek_r+0x1e>
   86040:	602b      	str	r3, [r5, #0]
   86042:	bd38      	pop	{r3, r4, r5, pc}
   86044:	200785c8 	.word	0x200785c8

00086048 <_read_r>:
   86048:	b538      	push	{r3, r4, r5, lr}
   8604a:	4c07      	ldr	r4, [pc, #28]	; (86068 <_read_r+0x20>)
   8604c:	4605      	mov	r5, r0
   8604e:	2000      	movs	r0, #0
   86050:	6020      	str	r0, [r4, #0]
   86052:	4608      	mov	r0, r1
   86054:	4611      	mov	r1, r2
   86056:	461a      	mov	r2, r3
   86058:	f7fb fa22 	bl	814a0 <_read>
   8605c:	1c43      	adds	r3, r0, #1
   8605e:	d102      	bne.n	86066 <_read_r+0x1e>
   86060:	6823      	ldr	r3, [r4, #0]
   86062:	b103      	cbz	r3, 86066 <_read_r+0x1e>
   86064:	602b      	str	r3, [r5, #0]
   86066:	bd38      	pop	{r3, r4, r5, pc}
   86068:	200785c8 	.word	0x200785c8

0008606c <__aeabi_drsub>:
   8606c:	f081 4100 	eor.w	r1, r1, #2147483648	; 0x80000000
   86070:	e002      	b.n	86078 <__adddf3>
   86072:	bf00      	nop

00086074 <__aeabi_dsub>:
   86074:	f083 4300 	eor.w	r3, r3, #2147483648	; 0x80000000

00086078 <__adddf3>:
   86078:	b530      	push	{r4, r5, lr}
   8607a:	ea4f 0441 	mov.w	r4, r1, lsl #1
   8607e:	ea4f 0543 	mov.w	r5, r3, lsl #1
   86082:	ea94 0f05 	teq	r4, r5
   86086:	bf08      	it	eq
   86088:	ea90 0f02 	teqeq	r0, r2
   8608c:	bf1f      	itttt	ne
   8608e:	ea54 0c00 	orrsne.w	ip, r4, r0
   86092:	ea55 0c02 	orrsne.w	ip, r5, r2
   86096:	ea7f 5c64 	mvnsne.w	ip, r4, asr #21
   8609a:	ea7f 5c65 	mvnsne.w	ip, r5, asr #21
   8609e:	f000 80e2 	beq.w	86266 <__adddf3+0x1ee>
   860a2:	ea4f 5454 	mov.w	r4, r4, lsr #21
   860a6:	ebd4 5555 	rsbs	r5, r4, r5, lsr #21
   860aa:	bfb8      	it	lt
   860ac:	426d      	neglt	r5, r5
   860ae:	dd0c      	ble.n	860ca <__adddf3+0x52>
   860b0:	442c      	add	r4, r5
   860b2:	ea80 0202 	eor.w	r2, r0, r2
   860b6:	ea81 0303 	eor.w	r3, r1, r3
   860ba:	ea82 0000 	eor.w	r0, r2, r0
   860be:	ea83 0101 	eor.w	r1, r3, r1
   860c2:	ea80 0202 	eor.w	r2, r0, r2
   860c6:	ea81 0303 	eor.w	r3, r1, r3
   860ca:	2d36      	cmp	r5, #54	; 0x36
   860cc:	bf88      	it	hi
   860ce:	bd30      	pophi	{r4, r5, pc}
   860d0:	f011 4f00 	tst.w	r1, #2147483648	; 0x80000000
   860d4:	ea4f 3101 	mov.w	r1, r1, lsl #12
   860d8:	f44f 1c80 	mov.w	ip, #1048576	; 0x100000
   860dc:	ea4c 3111 	orr.w	r1, ip, r1, lsr #12
   860e0:	d002      	beq.n	860e8 <__adddf3+0x70>
   860e2:	4240      	negs	r0, r0
   860e4:	eb61 0141 	sbc.w	r1, r1, r1, lsl #1
   860e8:	f013 4f00 	tst.w	r3, #2147483648	; 0x80000000
   860ec:	ea4f 3303 	mov.w	r3, r3, lsl #12
   860f0:	ea4c 3313 	orr.w	r3, ip, r3, lsr #12
   860f4:	d002      	beq.n	860fc <__adddf3+0x84>
   860f6:	4252      	negs	r2, r2
   860f8:	eb63 0343 	sbc.w	r3, r3, r3, lsl #1
   860fc:	ea94 0f05 	teq	r4, r5
   86100:	f000 80a7 	beq.w	86252 <__adddf3+0x1da>
   86104:	f1a4 0401 	sub.w	r4, r4, #1
   86108:	f1d5 0e20 	rsbs	lr, r5, #32
   8610c:	db0d      	blt.n	8612a <__adddf3+0xb2>
   8610e:	fa02 fc0e 	lsl.w	ip, r2, lr
   86112:	fa22 f205 	lsr.w	r2, r2, r5
   86116:	1880      	adds	r0, r0, r2
   86118:	f141 0100 	adc.w	r1, r1, #0
   8611c:	fa03 f20e 	lsl.w	r2, r3, lr
   86120:	1880      	adds	r0, r0, r2
   86122:	fa43 f305 	asr.w	r3, r3, r5
   86126:	4159      	adcs	r1, r3
   86128:	e00e      	b.n	86148 <__adddf3+0xd0>
   8612a:	f1a5 0520 	sub.w	r5, r5, #32
   8612e:	f10e 0e20 	add.w	lr, lr, #32
   86132:	2a01      	cmp	r2, #1
   86134:	fa03 fc0e 	lsl.w	ip, r3, lr
   86138:	bf28      	it	cs
   8613a:	f04c 0c02 	orrcs.w	ip, ip, #2
   8613e:	fa43 f305 	asr.w	r3, r3, r5
   86142:	18c0      	adds	r0, r0, r3
   86144:	eb51 71e3 	adcs.w	r1, r1, r3, asr #31
   86148:	f001 4500 	and.w	r5, r1, #2147483648	; 0x80000000
   8614c:	d507      	bpl.n	8615e <__adddf3+0xe6>
   8614e:	f04f 0e00 	mov.w	lr, #0
   86152:	f1dc 0c00 	rsbs	ip, ip, #0
   86156:	eb7e 0000 	sbcs.w	r0, lr, r0
   8615a:	eb6e 0101 	sbc.w	r1, lr, r1
   8615e:	f5b1 1f80 	cmp.w	r1, #1048576	; 0x100000
   86162:	d31b      	bcc.n	8619c <__adddf3+0x124>
   86164:	f5b1 1f00 	cmp.w	r1, #2097152	; 0x200000
   86168:	d30c      	bcc.n	86184 <__adddf3+0x10c>
   8616a:	0849      	lsrs	r1, r1, #1
   8616c:	ea5f 0030 	movs.w	r0, r0, rrx
   86170:	ea4f 0c3c 	mov.w	ip, ip, rrx
   86174:	f104 0401 	add.w	r4, r4, #1
   86178:	ea4f 5244 	mov.w	r2, r4, lsl #21
   8617c:	f512 0f80 	cmn.w	r2, #4194304	; 0x400000
   86180:	f080 809a 	bcs.w	862b8 <__adddf3+0x240>
   86184:	f1bc 4f00 	cmp.w	ip, #2147483648	; 0x80000000
   86188:	bf08      	it	eq
   8618a:	ea5f 0c50 	movseq.w	ip, r0, lsr #1
   8618e:	f150 0000 	adcs.w	r0, r0, #0
   86192:	eb41 5104 	adc.w	r1, r1, r4, lsl #20
   86196:	ea41 0105 	orr.w	r1, r1, r5
   8619a:	bd30      	pop	{r4, r5, pc}
   8619c:	ea5f 0c4c 	movs.w	ip, ip, lsl #1
   861a0:	4140      	adcs	r0, r0
   861a2:	eb41 0101 	adc.w	r1, r1, r1
   861a6:	f411 1f80 	tst.w	r1, #1048576	; 0x100000
   861aa:	f1a4 0401 	sub.w	r4, r4, #1
   861ae:	d1e9      	bne.n	86184 <__adddf3+0x10c>
   861b0:	f091 0f00 	teq	r1, #0
   861b4:	bf04      	itt	eq
   861b6:	4601      	moveq	r1, r0
   861b8:	2000      	moveq	r0, #0
   861ba:	fab1 f381 	clz	r3, r1
   861be:	bf08      	it	eq
   861c0:	3320      	addeq	r3, #32
   861c2:	f1a3 030b 	sub.w	r3, r3, #11
   861c6:	f1b3 0220 	subs.w	r2, r3, #32
   861ca:	da0c      	bge.n	861e6 <__adddf3+0x16e>
   861cc:	320c      	adds	r2, #12
   861ce:	dd08      	ble.n	861e2 <__adddf3+0x16a>
   861d0:	f102 0c14 	add.w	ip, r2, #20
   861d4:	f1c2 020c 	rsb	r2, r2, #12
   861d8:	fa01 f00c 	lsl.w	r0, r1, ip
   861dc:	fa21 f102 	lsr.w	r1, r1, r2
   861e0:	e00c      	b.n	861fc <__adddf3+0x184>
   861e2:	f102 0214 	add.w	r2, r2, #20
   861e6:	bfd8      	it	le
   861e8:	f1c2 0c20 	rsble	ip, r2, #32
   861ec:	fa01 f102 	lsl.w	r1, r1, r2
   861f0:	fa20 fc0c 	lsr.w	ip, r0, ip
   861f4:	bfdc      	itt	le
   861f6:	ea41 010c 	orrle.w	r1, r1, ip
   861fa:	4090      	lslle	r0, r2
   861fc:	1ae4      	subs	r4, r4, r3
   861fe:	bfa2      	ittt	ge
   86200:	eb01 5104 	addge.w	r1, r1, r4, lsl #20
   86204:	4329      	orrge	r1, r5
   86206:	bd30      	popge	{r4, r5, pc}
   86208:	ea6f 0404 	mvn.w	r4, r4
   8620c:	3c1f      	subs	r4, #31
   8620e:	da1c      	bge.n	8624a <__adddf3+0x1d2>
   86210:	340c      	adds	r4, #12
   86212:	dc0e      	bgt.n	86232 <__adddf3+0x1ba>
   86214:	f104 0414 	add.w	r4, r4, #20
   86218:	f1c4 0220 	rsb	r2, r4, #32
   8621c:	fa20 f004 	lsr.w	r0, r0, r4
   86220:	fa01 f302 	lsl.w	r3, r1, r2
   86224:	ea40 0003 	orr.w	r0, r0, r3
   86228:	fa21 f304 	lsr.w	r3, r1, r4
   8622c:	ea45 0103 	orr.w	r1, r5, r3
   86230:	bd30      	pop	{r4, r5, pc}
   86232:	f1c4 040c 	rsb	r4, r4, #12
   86236:	f1c4 0220 	rsb	r2, r4, #32
   8623a:	fa20 f002 	lsr.w	r0, r0, r2
   8623e:	fa01 f304 	lsl.w	r3, r1, r4
   86242:	ea40 0003 	orr.w	r0, r0, r3
   86246:	4629      	mov	r1, r5
   86248:	bd30      	pop	{r4, r5, pc}
   8624a:	fa21 f004 	lsr.w	r0, r1, r4
   8624e:	4629      	mov	r1, r5
   86250:	bd30      	pop	{r4, r5, pc}
   86252:	f094 0f00 	teq	r4, #0
   86256:	f483 1380 	eor.w	r3, r3, #1048576	; 0x100000
   8625a:	bf06      	itte	eq
   8625c:	f481 1180 	eoreq.w	r1, r1, #1048576	; 0x100000
   86260:	3401      	addeq	r4, #1
   86262:	3d01      	subne	r5, #1
   86264:	e74e      	b.n	86104 <__adddf3+0x8c>
   86266:	ea7f 5c64 	mvns.w	ip, r4, asr #21
   8626a:	bf18      	it	ne
   8626c:	ea7f 5c65 	mvnsne.w	ip, r5, asr #21
   86270:	d029      	beq.n	862c6 <__adddf3+0x24e>
   86272:	ea94 0f05 	teq	r4, r5
   86276:	bf08      	it	eq
   86278:	ea90 0f02 	teqeq	r0, r2
   8627c:	d005      	beq.n	8628a <__adddf3+0x212>
   8627e:	ea54 0c00 	orrs.w	ip, r4, r0
   86282:	bf04      	itt	eq
   86284:	4619      	moveq	r1, r3
   86286:	4610      	moveq	r0, r2
   86288:	bd30      	pop	{r4, r5, pc}
   8628a:	ea91 0f03 	teq	r1, r3
   8628e:	bf1e      	ittt	ne
   86290:	2100      	movne	r1, #0
   86292:	2000      	movne	r0, #0
   86294:	bd30      	popne	{r4, r5, pc}
   86296:	ea5f 5c54 	movs.w	ip, r4, lsr #21
   8629a:	d105      	bne.n	862a8 <__adddf3+0x230>
   8629c:	0040      	lsls	r0, r0, #1
   8629e:	4149      	adcs	r1, r1
   862a0:	bf28      	it	cs
   862a2:	f041 4100 	orrcs.w	r1, r1, #2147483648	; 0x80000000
   862a6:	bd30      	pop	{r4, r5, pc}
   862a8:	f514 0480 	adds.w	r4, r4, #4194304	; 0x400000
   862ac:	bf3c      	itt	cc
   862ae:	f501 1180 	addcc.w	r1, r1, #1048576	; 0x100000
   862b2:	bd30      	popcc	{r4, r5, pc}
   862b4:	f001 4500 	and.w	r5, r1, #2147483648	; 0x80000000
   862b8:	f045 41fe 	orr.w	r1, r5, #2130706432	; 0x7f000000
   862bc:	f441 0170 	orr.w	r1, r1, #15728640	; 0xf00000
   862c0:	f04f 0000 	mov.w	r0, #0
   862c4:	bd30      	pop	{r4, r5, pc}
   862c6:	ea7f 5c64 	mvns.w	ip, r4, asr #21
   862ca:	bf1a      	itte	ne
   862cc:	4619      	movne	r1, r3
   862ce:	4610      	movne	r0, r2
   862d0:	ea7f 5c65 	mvnseq.w	ip, r5, asr #21
   862d4:	bf1c      	itt	ne
   862d6:	460b      	movne	r3, r1
   862d8:	4602      	movne	r2, r0
   862da:	ea50 3401 	orrs.w	r4, r0, r1, lsl #12
   862de:	bf06      	itte	eq
   862e0:	ea52 3503 	orrseq.w	r5, r2, r3, lsl #12
   862e4:	ea91 0f03 	teqeq	r1, r3
   862e8:	f441 2100 	orrne.w	r1, r1, #524288	; 0x80000
   862ec:	bd30      	pop	{r4, r5, pc}
   862ee:	bf00      	nop

000862f0 <__aeabi_ui2d>:
   862f0:	f090 0f00 	teq	r0, #0
   862f4:	bf04      	itt	eq
   862f6:	2100      	moveq	r1, #0
   862f8:	4770      	bxeq	lr
   862fa:	b530      	push	{r4, r5, lr}
   862fc:	f44f 6480 	mov.w	r4, #1024	; 0x400
   86300:	f104 0432 	add.w	r4, r4, #50	; 0x32
   86304:	f04f 0500 	mov.w	r5, #0
   86308:	f04f 0100 	mov.w	r1, #0
   8630c:	e750      	b.n	861b0 <__adddf3+0x138>
   8630e:	bf00      	nop

00086310 <__aeabi_i2d>:
   86310:	f090 0f00 	teq	r0, #0
   86314:	bf04      	itt	eq
   86316:	2100      	moveq	r1, #0
   86318:	4770      	bxeq	lr
   8631a:	b530      	push	{r4, r5, lr}
   8631c:	f44f 6480 	mov.w	r4, #1024	; 0x400
   86320:	f104 0432 	add.w	r4, r4, #50	; 0x32
   86324:	f010 4500 	ands.w	r5, r0, #2147483648	; 0x80000000
   86328:	bf48      	it	mi
   8632a:	4240      	negmi	r0, r0
   8632c:	f04f 0100 	mov.w	r1, #0
   86330:	e73e      	b.n	861b0 <__adddf3+0x138>
   86332:	bf00      	nop

00086334 <__aeabi_f2d>:
   86334:	0042      	lsls	r2, r0, #1
   86336:	ea4f 01e2 	mov.w	r1, r2, asr #3
   8633a:	ea4f 0131 	mov.w	r1, r1, rrx
   8633e:	ea4f 7002 	mov.w	r0, r2, lsl #28
   86342:	bf1f      	itttt	ne
   86344:	f012 437f 	andsne.w	r3, r2, #4278190080	; 0xff000000
   86348:	f093 4f7f 	teqne	r3, #4278190080	; 0xff000000
   8634c:	f081 5160 	eorne.w	r1, r1, #939524096	; 0x38000000
   86350:	4770      	bxne	lr
   86352:	f092 0f00 	teq	r2, #0
   86356:	bf14      	ite	ne
   86358:	f093 4f7f 	teqne	r3, #4278190080	; 0xff000000
   8635c:	4770      	bxeq	lr
   8635e:	b530      	push	{r4, r5, lr}
   86360:	f44f 7460 	mov.w	r4, #896	; 0x380
   86364:	f001 4500 	and.w	r5, r1, #2147483648	; 0x80000000
   86368:	f021 4100 	bic.w	r1, r1, #2147483648	; 0x80000000
   8636c:	e720      	b.n	861b0 <__adddf3+0x138>
   8636e:	bf00      	nop

00086370 <__aeabi_ul2d>:
   86370:	ea50 0201 	orrs.w	r2, r0, r1
   86374:	bf08      	it	eq
   86376:	4770      	bxeq	lr
   86378:	b530      	push	{r4, r5, lr}
   8637a:	f04f 0500 	mov.w	r5, #0
   8637e:	e00a      	b.n	86396 <__aeabi_l2d+0x16>

00086380 <__aeabi_l2d>:
   86380:	ea50 0201 	orrs.w	r2, r0, r1
   86384:	bf08      	it	eq
   86386:	4770      	bxeq	lr
   86388:	b530      	push	{r4, r5, lr}
   8638a:	f011 4500 	ands.w	r5, r1, #2147483648	; 0x80000000
   8638e:	d502      	bpl.n	86396 <__aeabi_l2d+0x16>
   86390:	4240      	negs	r0, r0
   86392:	eb61 0141 	sbc.w	r1, r1, r1, lsl #1
   86396:	f44f 6480 	mov.w	r4, #1024	; 0x400
   8639a:	f104 0432 	add.w	r4, r4, #50	; 0x32
   8639e:	ea5f 5c91 	movs.w	ip, r1, lsr #22
   863a2:	f43f aedc 	beq.w	8615e <__adddf3+0xe6>
   863a6:	f04f 0203 	mov.w	r2, #3
   863aa:	ea5f 0cdc 	movs.w	ip, ip, lsr #3
   863ae:	bf18      	it	ne
   863b0:	3203      	addne	r2, #3
   863b2:	ea5f 0cdc 	movs.w	ip, ip, lsr #3
   863b6:	bf18      	it	ne
   863b8:	3203      	addne	r2, #3
   863ba:	eb02 02dc 	add.w	r2, r2, ip, lsr #3
   863be:	f1c2 0320 	rsb	r3, r2, #32
   863c2:	fa00 fc03 	lsl.w	ip, r0, r3
   863c6:	fa20 f002 	lsr.w	r0, r0, r2
   863ca:	fa01 fe03 	lsl.w	lr, r1, r3
   863ce:	ea40 000e 	orr.w	r0, r0, lr
   863d2:	fa21 f102 	lsr.w	r1, r1, r2
   863d6:	4414      	add	r4, r2
   863d8:	e6c1      	b.n	8615e <__adddf3+0xe6>
   863da:	bf00      	nop

000863dc <__aeabi_dmul>:
   863dc:	b570      	push	{r4, r5, r6, lr}
   863de:	f04f 0cff 	mov.w	ip, #255	; 0xff
   863e2:	f44c 6ce0 	orr.w	ip, ip, #1792	; 0x700
   863e6:	ea1c 5411 	ands.w	r4, ip, r1, lsr #20
   863ea:	bf1d      	ittte	ne
   863ec:	ea1c 5513 	andsne.w	r5, ip, r3, lsr #20
   863f0:	ea94 0f0c 	teqne	r4, ip
   863f4:	ea95 0f0c 	teqne	r5, ip
   863f8:	f000 f8de 	bleq	865b8 <__aeabi_dmul+0x1dc>
   863fc:	442c      	add	r4, r5
   863fe:	ea81 0603 	eor.w	r6, r1, r3
   86402:	ea21 514c 	bic.w	r1, r1, ip, lsl #21
   86406:	ea23 534c 	bic.w	r3, r3, ip, lsl #21
   8640a:	ea50 3501 	orrs.w	r5, r0, r1, lsl #12
   8640e:	bf18      	it	ne
   86410:	ea52 3503 	orrsne.w	r5, r2, r3, lsl #12
   86414:	f441 1180 	orr.w	r1, r1, #1048576	; 0x100000
   86418:	f443 1380 	orr.w	r3, r3, #1048576	; 0x100000
   8641c:	d038      	beq.n	86490 <__aeabi_dmul+0xb4>
   8641e:	fba0 ce02 	umull	ip, lr, r0, r2
   86422:	f04f 0500 	mov.w	r5, #0
   86426:	fbe1 e502 	umlal	lr, r5, r1, r2
   8642a:	f006 4200 	and.w	r2, r6, #2147483648	; 0x80000000
   8642e:	fbe0 e503 	umlal	lr, r5, r0, r3
   86432:	f04f 0600 	mov.w	r6, #0
   86436:	fbe1 5603 	umlal	r5, r6, r1, r3
   8643a:	f09c 0f00 	teq	ip, #0
   8643e:	bf18      	it	ne
   86440:	f04e 0e01 	orrne.w	lr, lr, #1
   86444:	f1a4 04ff 	sub.w	r4, r4, #255	; 0xff
   86448:	f5b6 7f00 	cmp.w	r6, #512	; 0x200
   8644c:	f564 7440 	sbc.w	r4, r4, #768	; 0x300
   86450:	d204      	bcs.n	8645c <__aeabi_dmul+0x80>
   86452:	ea5f 0e4e 	movs.w	lr, lr, lsl #1
   86456:	416d      	adcs	r5, r5
   86458:	eb46 0606 	adc.w	r6, r6, r6
   8645c:	ea42 21c6 	orr.w	r1, r2, r6, lsl #11
   86460:	ea41 5155 	orr.w	r1, r1, r5, lsr #21
   86464:	ea4f 20c5 	mov.w	r0, r5, lsl #11
   86468:	ea40 505e 	orr.w	r0, r0, lr, lsr #21
   8646c:	ea4f 2ece 	mov.w	lr, lr, lsl #11
   86470:	f1b4 0cfd 	subs.w	ip, r4, #253	; 0xfd
   86474:	bf88      	it	hi
   86476:	f5bc 6fe0 	cmphi.w	ip, #1792	; 0x700
   8647a:	d81e      	bhi.n	864ba <__aeabi_dmul+0xde>
   8647c:	f1be 4f00 	cmp.w	lr, #2147483648	; 0x80000000
   86480:	bf08      	it	eq
   86482:	ea5f 0e50 	movseq.w	lr, r0, lsr #1
   86486:	f150 0000 	adcs.w	r0, r0, #0
   8648a:	eb41 5104 	adc.w	r1, r1, r4, lsl #20
   8648e:	bd70      	pop	{r4, r5, r6, pc}
   86490:	f006 4600 	and.w	r6, r6, #2147483648	; 0x80000000
   86494:	ea46 0101 	orr.w	r1, r6, r1
   86498:	ea40 0002 	orr.w	r0, r0, r2
   8649c:	ea81 0103 	eor.w	r1, r1, r3
   864a0:	ebb4 045c 	subs.w	r4, r4, ip, lsr #1
   864a4:	bfc2      	ittt	gt
   864a6:	ebd4 050c 	rsbsgt	r5, r4, ip
   864aa:	ea41 5104 	orrgt.w	r1, r1, r4, lsl #20
   864ae:	bd70      	popgt	{r4, r5, r6, pc}
   864b0:	f441 1180 	orr.w	r1, r1, #1048576	; 0x100000
   864b4:	f04f 0e00 	mov.w	lr, #0
   864b8:	3c01      	subs	r4, #1
   864ba:	f300 80ab 	bgt.w	86614 <__aeabi_dmul+0x238>
   864be:	f114 0f36 	cmn.w	r4, #54	; 0x36
   864c2:	bfde      	ittt	le
   864c4:	2000      	movle	r0, #0
   864c6:	f001 4100 	andle.w	r1, r1, #2147483648	; 0x80000000
   864ca:	bd70      	pople	{r4, r5, r6, pc}
   864cc:	f1c4 0400 	rsb	r4, r4, #0
   864d0:	3c20      	subs	r4, #32
   864d2:	da35      	bge.n	86540 <__aeabi_dmul+0x164>
   864d4:	340c      	adds	r4, #12
   864d6:	dc1b      	bgt.n	86510 <__aeabi_dmul+0x134>
   864d8:	f104 0414 	add.w	r4, r4, #20
   864dc:	f1c4 0520 	rsb	r5, r4, #32
   864e0:	fa00 f305 	lsl.w	r3, r0, r5
   864e4:	fa20 f004 	lsr.w	r0, r0, r4
   864e8:	fa01 f205 	lsl.w	r2, r1, r5
   864ec:	ea40 0002 	orr.w	r0, r0, r2
   864f0:	f001 4200 	and.w	r2, r1, #2147483648	; 0x80000000
   864f4:	f021 4100 	bic.w	r1, r1, #2147483648	; 0x80000000
   864f8:	eb10 70d3 	adds.w	r0, r0, r3, lsr #31
   864fc:	fa21 f604 	lsr.w	r6, r1, r4
   86500:	eb42 0106 	adc.w	r1, r2, r6
   86504:	ea5e 0e43 	orrs.w	lr, lr, r3, lsl #1
   86508:	bf08      	it	eq
   8650a:	ea20 70d3 	biceq.w	r0, r0, r3, lsr #31
   8650e:	bd70      	pop	{r4, r5, r6, pc}
   86510:	f1c4 040c 	rsb	r4, r4, #12
   86514:	f1c4 0520 	rsb	r5, r4, #32
   86518:	fa00 f304 	lsl.w	r3, r0, r4
   8651c:	fa20 f005 	lsr.w	r0, r0, r5
   86520:	fa01 f204 	lsl.w	r2, r1, r4
   86524:	ea40 0002 	orr.w	r0, r0, r2
   86528:	f001 4100 	and.w	r1, r1, #2147483648	; 0x80000000
   8652c:	eb10 70d3 	adds.w	r0, r0, r3, lsr #31
   86530:	f141 0100 	adc.w	r1, r1, #0
   86534:	ea5e 0e43 	orrs.w	lr, lr, r3, lsl #1
   86538:	bf08      	it	eq
   8653a:	ea20 70d3 	biceq.w	r0, r0, r3, lsr #31
   8653e:	bd70      	pop	{r4, r5, r6, pc}
   86540:	f1c4 0520 	rsb	r5, r4, #32
   86544:	fa00 f205 	lsl.w	r2, r0, r5
   86548:	ea4e 0e02 	orr.w	lr, lr, r2
   8654c:	fa20 f304 	lsr.w	r3, r0, r4
   86550:	fa01 f205 	lsl.w	r2, r1, r5
   86554:	ea43 0302 	orr.w	r3, r3, r2
   86558:	fa21 f004 	lsr.w	r0, r1, r4
   8655c:	f001 4100 	and.w	r1, r1, #2147483648	; 0x80000000
   86560:	fa21 f204 	lsr.w	r2, r1, r4
   86564:	ea20 0002 	bic.w	r0, r0, r2
   86568:	eb00 70d3 	add.w	r0, r0, r3, lsr #31
   8656c:	ea5e 0e43 	orrs.w	lr, lr, r3, lsl #1
   86570:	bf08      	it	eq
   86572:	ea20 70d3 	biceq.w	r0, r0, r3, lsr #31
   86576:	bd70      	pop	{r4, r5, r6, pc}
   86578:	f094 0f00 	teq	r4, #0
   8657c:	d10f      	bne.n	8659e <__aeabi_dmul+0x1c2>
   8657e:	f001 4600 	and.w	r6, r1, #2147483648	; 0x80000000
   86582:	0040      	lsls	r0, r0, #1
   86584:	eb41 0101 	adc.w	r1, r1, r1
   86588:	f411 1f80 	tst.w	r1, #1048576	; 0x100000
   8658c:	bf08      	it	eq
   8658e:	3c01      	subeq	r4, #1
   86590:	d0f7      	beq.n	86582 <__aeabi_dmul+0x1a6>
   86592:	ea41 0106 	orr.w	r1, r1, r6
   86596:	f095 0f00 	teq	r5, #0
   8659a:	bf18      	it	ne
   8659c:	4770      	bxne	lr
   8659e:	f003 4600 	and.w	r6, r3, #2147483648	; 0x80000000
   865a2:	0052      	lsls	r2, r2, #1
   865a4:	eb43 0303 	adc.w	r3, r3, r3
   865a8:	f413 1f80 	tst.w	r3, #1048576	; 0x100000
   865ac:	bf08      	it	eq
   865ae:	3d01      	subeq	r5, #1
   865b0:	d0f7      	beq.n	865a2 <__aeabi_dmul+0x1c6>
   865b2:	ea43 0306 	orr.w	r3, r3, r6
   865b6:	4770      	bx	lr
   865b8:	ea94 0f0c 	teq	r4, ip
   865bc:	ea0c 5513 	and.w	r5, ip, r3, lsr #20
   865c0:	bf18      	it	ne
   865c2:	ea95 0f0c 	teqne	r5, ip
   865c6:	d00c      	beq.n	865e2 <__aeabi_dmul+0x206>
   865c8:	ea50 0641 	orrs.w	r6, r0, r1, lsl #1
   865cc:	bf18      	it	ne
   865ce:	ea52 0643 	orrsne.w	r6, r2, r3, lsl #1
   865d2:	d1d1      	bne.n	86578 <__aeabi_dmul+0x19c>
   865d4:	ea81 0103 	eor.w	r1, r1, r3
   865d8:	f001 4100 	and.w	r1, r1, #2147483648	; 0x80000000
   865dc:	f04f 0000 	mov.w	r0, #0
   865e0:	bd70      	pop	{r4, r5, r6, pc}
   865e2:	ea50 0641 	orrs.w	r6, r0, r1, lsl #1
   865e6:	bf06      	itte	eq
   865e8:	4610      	moveq	r0, r2
   865ea:	4619      	moveq	r1, r3
   865ec:	ea52 0643 	orrsne.w	r6, r2, r3, lsl #1
   865f0:	d019      	beq.n	86626 <__aeabi_dmul+0x24a>
   865f2:	ea94 0f0c 	teq	r4, ip
   865f6:	d102      	bne.n	865fe <__aeabi_dmul+0x222>
   865f8:	ea50 3601 	orrs.w	r6, r0, r1, lsl #12
   865fc:	d113      	bne.n	86626 <__aeabi_dmul+0x24a>
   865fe:	ea95 0f0c 	teq	r5, ip
   86602:	d105      	bne.n	86610 <__aeabi_dmul+0x234>
   86604:	ea52 3603 	orrs.w	r6, r2, r3, lsl #12
   86608:	bf1c      	itt	ne
   8660a:	4610      	movne	r0, r2
   8660c:	4619      	movne	r1, r3
   8660e:	d10a      	bne.n	86626 <__aeabi_dmul+0x24a>
   86610:	ea81 0103 	eor.w	r1, r1, r3
   86614:	f001 4100 	and.w	r1, r1, #2147483648	; 0x80000000
   86618:	f041 41fe 	orr.w	r1, r1, #2130706432	; 0x7f000000
   8661c:	f441 0170 	orr.w	r1, r1, #15728640	; 0xf00000
   86620:	f04f 0000 	mov.w	r0, #0
   86624:	bd70      	pop	{r4, r5, r6, pc}
   86626:	f041 41fe 	orr.w	r1, r1, #2130706432	; 0x7f000000
   8662a:	f441 0178 	orr.w	r1, r1, #16252928	; 0xf80000
   8662e:	bd70      	pop	{r4, r5, r6, pc}

00086630 <__aeabi_ddiv>:
   86630:	b570      	push	{r4, r5, r6, lr}
   86632:	f04f 0cff 	mov.w	ip, #255	; 0xff
   86636:	f44c 6ce0 	orr.w	ip, ip, #1792	; 0x700
   8663a:	ea1c 5411 	ands.w	r4, ip, r1, lsr #20
   8663e:	bf1d      	ittte	ne
   86640:	ea1c 5513 	andsne.w	r5, ip, r3, lsr #20
   86644:	ea94 0f0c 	teqne	r4, ip
   86648:	ea95 0f0c 	teqne	r5, ip
   8664c:	f000 f8a7 	bleq	8679e <__aeabi_ddiv+0x16e>
   86650:	eba4 0405 	sub.w	r4, r4, r5
   86654:	ea81 0e03 	eor.w	lr, r1, r3
   86658:	ea52 3503 	orrs.w	r5, r2, r3, lsl #12
   8665c:	ea4f 3101 	mov.w	r1, r1, lsl #12
   86660:	f000 8088 	beq.w	86774 <__aeabi_ddiv+0x144>
   86664:	ea4f 3303 	mov.w	r3, r3, lsl #12
   86668:	f04f 5580 	mov.w	r5, #268435456	; 0x10000000
   8666c:	ea45 1313 	orr.w	r3, r5, r3, lsr #4
   86670:	ea43 6312 	orr.w	r3, r3, r2, lsr #24
   86674:	ea4f 2202 	mov.w	r2, r2, lsl #8
   86678:	ea45 1511 	orr.w	r5, r5, r1, lsr #4
   8667c:	ea45 6510 	orr.w	r5, r5, r0, lsr #24
   86680:	ea4f 2600 	mov.w	r6, r0, lsl #8
   86684:	f00e 4100 	and.w	r1, lr, #2147483648	; 0x80000000
   86688:	429d      	cmp	r5, r3
   8668a:	bf08      	it	eq
   8668c:	4296      	cmpeq	r6, r2
   8668e:	f144 04fd 	adc.w	r4, r4, #253	; 0xfd
   86692:	f504 7440 	add.w	r4, r4, #768	; 0x300
   86696:	d202      	bcs.n	8669e <__aeabi_ddiv+0x6e>
   86698:	085b      	lsrs	r3, r3, #1
   8669a:	ea4f 0232 	mov.w	r2, r2, rrx
   8669e:	1ab6      	subs	r6, r6, r2
   866a0:	eb65 0503 	sbc.w	r5, r5, r3
   866a4:	085b      	lsrs	r3, r3, #1
   866a6:	ea4f 0232 	mov.w	r2, r2, rrx
   866aa:	f44f 1080 	mov.w	r0, #1048576	; 0x100000
   866ae:	f44f 2c00 	mov.w	ip, #524288	; 0x80000
   866b2:	ebb6 0e02 	subs.w	lr, r6, r2
   866b6:	eb75 0e03 	sbcs.w	lr, r5, r3
   866ba:	bf22      	ittt	cs
   866bc:	1ab6      	subcs	r6, r6, r2
   866be:	4675      	movcs	r5, lr
   866c0:	ea40 000c 	orrcs.w	r0, r0, ip
   866c4:	085b      	lsrs	r3, r3, #1
   866c6:	ea4f 0232 	mov.w	r2, r2, rrx
   866ca:	ebb6 0e02 	subs.w	lr, r6, r2
   866ce:	eb75 0e03 	sbcs.w	lr, r5, r3
   866d2:	bf22      	ittt	cs
   866d4:	1ab6      	subcs	r6, r6, r2
   866d6:	4675      	movcs	r5, lr
   866d8:	ea40 005c 	orrcs.w	r0, r0, ip, lsr #1
   866dc:	085b      	lsrs	r3, r3, #1
   866de:	ea4f 0232 	mov.w	r2, r2, rrx
   866e2:	ebb6 0e02 	subs.w	lr, r6, r2
   866e6:	eb75 0e03 	sbcs.w	lr, r5, r3
   866ea:	bf22      	ittt	cs
   866ec:	1ab6      	subcs	r6, r6, r2
   866ee:	4675      	movcs	r5, lr
   866f0:	ea40 009c 	orrcs.w	r0, r0, ip, lsr #2
   866f4:	085b      	lsrs	r3, r3, #1
   866f6:	ea4f 0232 	mov.w	r2, r2, rrx
   866fa:	ebb6 0e02 	subs.w	lr, r6, r2
   866fe:	eb75 0e03 	sbcs.w	lr, r5, r3
   86702:	bf22      	ittt	cs
   86704:	1ab6      	subcs	r6, r6, r2
   86706:	4675      	movcs	r5, lr
   86708:	ea40 00dc 	orrcs.w	r0, r0, ip, lsr #3
   8670c:	ea55 0e06 	orrs.w	lr, r5, r6
   86710:	d018      	beq.n	86744 <__aeabi_ddiv+0x114>
   86712:	ea4f 1505 	mov.w	r5, r5, lsl #4
   86716:	ea45 7516 	orr.w	r5, r5, r6, lsr #28
   8671a:	ea4f 1606 	mov.w	r6, r6, lsl #4
   8671e:	ea4f 03c3 	mov.w	r3, r3, lsl #3
   86722:	ea43 7352 	orr.w	r3, r3, r2, lsr #29
   86726:	ea4f 02c2 	mov.w	r2, r2, lsl #3
   8672a:	ea5f 1c1c 	movs.w	ip, ip, lsr #4
   8672e:	d1c0      	bne.n	866b2 <__aeabi_ddiv+0x82>
   86730:	f411 1f80 	tst.w	r1, #1048576	; 0x100000
   86734:	d10b      	bne.n	8674e <__aeabi_ddiv+0x11e>
   86736:	ea41 0100 	orr.w	r1, r1, r0
   8673a:	f04f 0000 	mov.w	r0, #0
   8673e:	f04f 4c00 	mov.w	ip, #2147483648	; 0x80000000
   86742:	e7b6      	b.n	866b2 <__aeabi_ddiv+0x82>
   86744:	f411 1f80 	tst.w	r1, #1048576	; 0x100000
   86748:	bf04      	itt	eq
   8674a:	4301      	orreq	r1, r0
   8674c:	2000      	moveq	r0, #0
   8674e:	f1b4 0cfd 	subs.w	ip, r4, #253	; 0xfd
   86752:	bf88      	it	hi
   86754:	f5bc 6fe0 	cmphi.w	ip, #1792	; 0x700
   86758:	f63f aeaf 	bhi.w	864ba <__aeabi_dmul+0xde>
   8675c:	ebb5 0c03 	subs.w	ip, r5, r3
   86760:	bf04      	itt	eq
   86762:	ebb6 0c02 	subseq.w	ip, r6, r2
   86766:	ea5f 0c50 	movseq.w	ip, r0, lsr #1
   8676a:	f150 0000 	adcs.w	r0, r0, #0
   8676e:	eb41 5104 	adc.w	r1, r1, r4, lsl #20
   86772:	bd70      	pop	{r4, r5, r6, pc}
   86774:	f00e 4e00 	and.w	lr, lr, #2147483648	; 0x80000000
   86778:	ea4e 3111 	orr.w	r1, lr, r1, lsr #12
   8677c:	eb14 045c 	adds.w	r4, r4, ip, lsr #1
   86780:	bfc2      	ittt	gt
   86782:	ebd4 050c 	rsbsgt	r5, r4, ip
   86786:	ea41 5104 	orrgt.w	r1, r1, r4, lsl #20
   8678a:	bd70      	popgt	{r4, r5, r6, pc}
   8678c:	f441 1180 	orr.w	r1, r1, #1048576	; 0x100000
   86790:	f04f 0e00 	mov.w	lr, #0
   86794:	3c01      	subs	r4, #1
   86796:	e690      	b.n	864ba <__aeabi_dmul+0xde>
   86798:	ea45 0e06 	orr.w	lr, r5, r6
   8679c:	e68d      	b.n	864ba <__aeabi_dmul+0xde>
   8679e:	ea0c 5513 	and.w	r5, ip, r3, lsr #20
   867a2:	ea94 0f0c 	teq	r4, ip
   867a6:	bf08      	it	eq
   867a8:	ea95 0f0c 	teqeq	r5, ip
   867ac:	f43f af3b 	beq.w	86626 <__aeabi_dmul+0x24a>
   867b0:	ea94 0f0c 	teq	r4, ip
   867b4:	d10a      	bne.n	867cc <__aeabi_ddiv+0x19c>
   867b6:	ea50 3401 	orrs.w	r4, r0, r1, lsl #12
   867ba:	f47f af34 	bne.w	86626 <__aeabi_dmul+0x24a>
   867be:	ea95 0f0c 	teq	r5, ip
   867c2:	f47f af25 	bne.w	86610 <__aeabi_dmul+0x234>
   867c6:	4610      	mov	r0, r2
   867c8:	4619      	mov	r1, r3
   867ca:	e72c      	b.n	86626 <__aeabi_dmul+0x24a>
   867cc:	ea95 0f0c 	teq	r5, ip
   867d0:	d106      	bne.n	867e0 <__aeabi_ddiv+0x1b0>
   867d2:	ea52 3503 	orrs.w	r5, r2, r3, lsl #12
   867d6:	f43f aefd 	beq.w	865d4 <__aeabi_dmul+0x1f8>
   867da:	4610      	mov	r0, r2
   867dc:	4619      	mov	r1, r3
   867de:	e722      	b.n	86626 <__aeabi_dmul+0x24a>
   867e0:	ea50 0641 	orrs.w	r6, r0, r1, lsl #1
   867e4:	bf18      	it	ne
   867e6:	ea52 0643 	orrsne.w	r6, r2, r3, lsl #1
   867ea:	f47f aec5 	bne.w	86578 <__aeabi_dmul+0x19c>
   867ee:	ea50 0441 	orrs.w	r4, r0, r1, lsl #1
   867f2:	f47f af0d 	bne.w	86610 <__aeabi_dmul+0x234>
   867f6:	ea52 0543 	orrs.w	r5, r2, r3, lsl #1
   867fa:	f47f aeeb 	bne.w	865d4 <__aeabi_dmul+0x1f8>
   867fe:	e712      	b.n	86626 <__aeabi_dmul+0x24a>

00086800 <__gedf2>:
   86800:	f04f 3cff 	mov.w	ip, #4294967295
   86804:	e006      	b.n	86814 <__cmpdf2+0x4>
   86806:	bf00      	nop

00086808 <__ledf2>:
   86808:	f04f 0c01 	mov.w	ip, #1
   8680c:	e002      	b.n	86814 <__cmpdf2+0x4>
   8680e:	bf00      	nop

00086810 <__cmpdf2>:
   86810:	f04f 0c01 	mov.w	ip, #1
   86814:	f84d cd04 	str.w	ip, [sp, #-4]!
   86818:	ea4f 0c41 	mov.w	ip, r1, lsl #1
   8681c:	ea7f 5c6c 	mvns.w	ip, ip, asr #21
   86820:	ea4f 0c43 	mov.w	ip, r3, lsl #1
   86824:	bf18      	it	ne
   86826:	ea7f 5c6c 	mvnsne.w	ip, ip, asr #21
   8682a:	d01b      	beq.n	86864 <__cmpdf2+0x54>
   8682c:	b001      	add	sp, #4
   8682e:	ea50 0c41 	orrs.w	ip, r0, r1, lsl #1
   86832:	bf0c      	ite	eq
   86834:	ea52 0c43 	orrseq.w	ip, r2, r3, lsl #1
   86838:	ea91 0f03 	teqne	r1, r3
   8683c:	bf02      	ittt	eq
   8683e:	ea90 0f02 	teqeq	r0, r2
   86842:	2000      	moveq	r0, #0
   86844:	4770      	bxeq	lr
   86846:	f110 0f00 	cmn.w	r0, #0
   8684a:	ea91 0f03 	teq	r1, r3
   8684e:	bf58      	it	pl
   86850:	4299      	cmppl	r1, r3
   86852:	bf08      	it	eq
   86854:	4290      	cmpeq	r0, r2
   86856:	bf2c      	ite	cs
   86858:	17d8      	asrcs	r0, r3, #31
   8685a:	ea6f 70e3 	mvncc.w	r0, r3, asr #31
   8685e:	f040 0001 	orr.w	r0, r0, #1
   86862:	4770      	bx	lr
   86864:	ea4f 0c41 	mov.w	ip, r1, lsl #1
   86868:	ea7f 5c6c 	mvns.w	ip, ip, asr #21
   8686c:	d102      	bne.n	86874 <__cmpdf2+0x64>
   8686e:	ea50 3c01 	orrs.w	ip, r0, r1, lsl #12
   86872:	d107      	bne.n	86884 <__cmpdf2+0x74>
   86874:	ea4f 0c43 	mov.w	ip, r3, lsl #1
   86878:	ea7f 5c6c 	mvns.w	ip, ip, asr #21
   8687c:	d1d6      	bne.n	8682c <__cmpdf2+0x1c>
   8687e:	ea52 3c03 	orrs.w	ip, r2, r3, lsl #12
   86882:	d0d3      	beq.n	8682c <__cmpdf2+0x1c>
   86884:	f85d 0b04 	ldr.w	r0, [sp], #4
   86888:	4770      	bx	lr
   8688a:	bf00      	nop

0008688c <__aeabi_cdrcmple>:
   8688c:	4684      	mov	ip, r0
   8688e:	4610      	mov	r0, r2
   86890:	4662      	mov	r2, ip
   86892:	468c      	mov	ip, r1
   86894:	4619      	mov	r1, r3
   86896:	4663      	mov	r3, ip
   86898:	e000      	b.n	8689c <__aeabi_cdcmpeq>
   8689a:	bf00      	nop

0008689c <__aeabi_cdcmpeq>:
   8689c:	b501      	push	{r0, lr}
   8689e:	f7ff ffb7 	bl	86810 <__cmpdf2>
   868a2:	2800      	cmp	r0, #0
   868a4:	bf48      	it	mi
   868a6:	f110 0f00 	cmnmi.w	r0, #0
   868aa:	bd01      	pop	{r0, pc}

000868ac <__aeabi_dcmpeq>:
   868ac:	f84d ed08 	str.w	lr, [sp, #-8]!
   868b0:	f7ff fff4 	bl	8689c <__aeabi_cdcmpeq>
   868b4:	bf0c      	ite	eq
   868b6:	2001      	moveq	r0, #1
   868b8:	2000      	movne	r0, #0
   868ba:	f85d fb08 	ldr.w	pc, [sp], #8
   868be:	bf00      	nop

000868c0 <__aeabi_dcmplt>:
   868c0:	f84d ed08 	str.w	lr, [sp, #-8]!
   868c4:	f7ff ffea 	bl	8689c <__aeabi_cdcmpeq>
   868c8:	bf34      	ite	cc
   868ca:	2001      	movcc	r0, #1
   868cc:	2000      	movcs	r0, #0
   868ce:	f85d fb08 	ldr.w	pc, [sp], #8
   868d2:	bf00      	nop

000868d4 <__aeabi_dcmple>:
   868d4:	f84d ed08 	str.w	lr, [sp, #-8]!
   868d8:	f7ff ffe0 	bl	8689c <__aeabi_cdcmpeq>
   868dc:	bf94      	ite	ls
   868de:	2001      	movls	r0, #1
   868e0:	2000      	movhi	r0, #0
   868e2:	f85d fb08 	ldr.w	pc, [sp], #8
   868e6:	bf00      	nop

000868e8 <__aeabi_dcmpge>:
   868e8:	f84d ed08 	str.w	lr, [sp, #-8]!
   868ec:	f7ff ffce 	bl	8688c <__aeabi_cdrcmple>
   868f0:	bf94      	ite	ls
   868f2:	2001      	movls	r0, #1
   868f4:	2000      	movhi	r0, #0
   868f6:	f85d fb08 	ldr.w	pc, [sp], #8
   868fa:	bf00      	nop

000868fc <__aeabi_dcmpgt>:
   868fc:	f84d ed08 	str.w	lr, [sp, #-8]!
   86900:	f7ff ffc4 	bl	8688c <__aeabi_cdrcmple>
   86904:	bf34      	ite	cc
   86906:	2001      	movcc	r0, #1
   86908:	2000      	movcs	r0, #0
   8690a:	f85d fb08 	ldr.w	pc, [sp], #8
   8690e:	bf00      	nop

00086910 <__aeabi_d2iz>:
   86910:	ea4f 0241 	mov.w	r2, r1, lsl #1
   86914:	f512 1200 	adds.w	r2, r2, #2097152	; 0x200000
   86918:	d215      	bcs.n	86946 <__aeabi_d2iz+0x36>
   8691a:	d511      	bpl.n	86940 <__aeabi_d2iz+0x30>
   8691c:	f46f 7378 	mvn.w	r3, #992	; 0x3e0
   86920:	ebb3 5262 	subs.w	r2, r3, r2, asr #21
   86924:	d912      	bls.n	8694c <__aeabi_d2iz+0x3c>
   86926:	ea4f 23c1 	mov.w	r3, r1, lsl #11
   8692a:	f043 4300 	orr.w	r3, r3, #2147483648	; 0x80000000
   8692e:	ea43 5350 	orr.w	r3, r3, r0, lsr #21
   86932:	f011 4f00 	tst.w	r1, #2147483648	; 0x80000000
   86936:	fa23 f002 	lsr.w	r0, r3, r2
   8693a:	bf18      	it	ne
   8693c:	4240      	negne	r0, r0
   8693e:	4770      	bx	lr
   86940:	f04f 0000 	mov.w	r0, #0
   86944:	4770      	bx	lr
   86946:	ea50 3001 	orrs.w	r0, r0, r1, lsl #12
   8694a:	d105      	bne.n	86958 <__aeabi_d2iz+0x48>
   8694c:	f011 4000 	ands.w	r0, r1, #2147483648	; 0x80000000
   86950:	bf08      	it	eq
   86952:	f06f 4000 	mvneq.w	r0, #2147483648	; 0x80000000
   86956:	4770      	bx	lr
   86958:	f04f 0000 	mov.w	r0, #0
   8695c:	4770      	bx	lr
   8695e:	bf00      	nop

00086960 <__aeabi_frsub>:
   86960:	f080 4000 	eor.w	r0, r0, #2147483648	; 0x80000000
   86964:	e002      	b.n	8696c <__addsf3>
   86966:	bf00      	nop

00086968 <__aeabi_fsub>:
   86968:	f081 4100 	eor.w	r1, r1, #2147483648	; 0x80000000

0008696c <__addsf3>:
   8696c:	0042      	lsls	r2, r0, #1
   8696e:	bf1f      	itttt	ne
   86970:	ea5f 0341 	movsne.w	r3, r1, lsl #1
   86974:	ea92 0f03 	teqne	r2, r3
   86978:	ea7f 6c22 	mvnsne.w	ip, r2, asr #24
   8697c:	ea7f 6c23 	mvnsne.w	ip, r3, asr #24
   86980:	d06a      	beq.n	86a58 <__addsf3+0xec>
   86982:	ea4f 6212 	mov.w	r2, r2, lsr #24
   86986:	ebd2 6313 	rsbs	r3, r2, r3, lsr #24
   8698a:	bfc1      	itttt	gt
   8698c:	18d2      	addgt	r2, r2, r3
   8698e:	4041      	eorgt	r1, r0
   86990:	4048      	eorgt	r0, r1
   86992:	4041      	eorgt	r1, r0
   86994:	bfb8      	it	lt
   86996:	425b      	neglt	r3, r3
   86998:	2b19      	cmp	r3, #25
   8699a:	bf88      	it	hi
   8699c:	4770      	bxhi	lr
   8699e:	f010 4f00 	tst.w	r0, #2147483648	; 0x80000000
   869a2:	f440 0000 	orr.w	r0, r0, #8388608	; 0x800000
   869a6:	f020 407f 	bic.w	r0, r0, #4278190080	; 0xff000000
   869aa:	bf18      	it	ne
   869ac:	4240      	negne	r0, r0
   869ae:	f011 4f00 	tst.w	r1, #2147483648	; 0x80000000
   869b2:	f441 0100 	orr.w	r1, r1, #8388608	; 0x800000
   869b6:	f021 417f 	bic.w	r1, r1, #4278190080	; 0xff000000
   869ba:	bf18      	it	ne
   869bc:	4249      	negne	r1, r1
   869be:	ea92 0f03 	teq	r2, r3
   869c2:	d03f      	beq.n	86a44 <__addsf3+0xd8>
   869c4:	f1a2 0201 	sub.w	r2, r2, #1
   869c8:	fa41 fc03 	asr.w	ip, r1, r3
   869cc:	eb10 000c 	adds.w	r0, r0, ip
   869d0:	f1c3 0320 	rsb	r3, r3, #32
   869d4:	fa01 f103 	lsl.w	r1, r1, r3
   869d8:	f000 4300 	and.w	r3, r0, #2147483648	; 0x80000000
   869dc:	d502      	bpl.n	869e4 <__addsf3+0x78>
   869de:	4249      	negs	r1, r1
   869e0:	eb60 0040 	sbc.w	r0, r0, r0, lsl #1
   869e4:	f5b0 0f00 	cmp.w	r0, #8388608	; 0x800000
   869e8:	d313      	bcc.n	86a12 <__addsf3+0xa6>
   869ea:	f1b0 7f80 	cmp.w	r0, #16777216	; 0x1000000
   869ee:	d306      	bcc.n	869fe <__addsf3+0x92>
   869f0:	0840      	lsrs	r0, r0, #1
   869f2:	ea4f 0131 	mov.w	r1, r1, rrx
   869f6:	f102 0201 	add.w	r2, r2, #1
   869fa:	2afe      	cmp	r2, #254	; 0xfe
   869fc:	d251      	bcs.n	86aa2 <__addsf3+0x136>
   869fe:	f1b1 4f00 	cmp.w	r1, #2147483648	; 0x80000000
   86a02:	eb40 50c2 	adc.w	r0, r0, r2, lsl #23
   86a06:	bf08      	it	eq
   86a08:	f020 0001 	biceq.w	r0, r0, #1
   86a0c:	ea40 0003 	orr.w	r0, r0, r3
   86a10:	4770      	bx	lr
   86a12:	0049      	lsls	r1, r1, #1
   86a14:	eb40 0000 	adc.w	r0, r0, r0
   86a18:	f410 0f00 	tst.w	r0, #8388608	; 0x800000
   86a1c:	f1a2 0201 	sub.w	r2, r2, #1
   86a20:	d1ed      	bne.n	869fe <__addsf3+0x92>
   86a22:	fab0 fc80 	clz	ip, r0
   86a26:	f1ac 0c08 	sub.w	ip, ip, #8
   86a2a:	ebb2 020c 	subs.w	r2, r2, ip
   86a2e:	fa00 f00c 	lsl.w	r0, r0, ip
   86a32:	bfaa      	itet	ge
   86a34:	eb00 50c2 	addge.w	r0, r0, r2, lsl #23
   86a38:	4252      	neglt	r2, r2
   86a3a:	4318      	orrge	r0, r3
   86a3c:	bfbc      	itt	lt
   86a3e:	40d0      	lsrlt	r0, r2
   86a40:	4318      	orrlt	r0, r3
   86a42:	4770      	bx	lr
   86a44:	f092 0f00 	teq	r2, #0
   86a48:	f481 0100 	eor.w	r1, r1, #8388608	; 0x800000
   86a4c:	bf06      	itte	eq
   86a4e:	f480 0000 	eoreq.w	r0, r0, #8388608	; 0x800000
   86a52:	3201      	addeq	r2, #1
   86a54:	3b01      	subne	r3, #1
   86a56:	e7b5      	b.n	869c4 <__addsf3+0x58>
   86a58:	ea4f 0341 	mov.w	r3, r1, lsl #1
   86a5c:	ea7f 6c22 	mvns.w	ip, r2, asr #24
   86a60:	bf18      	it	ne
   86a62:	ea7f 6c23 	mvnsne.w	ip, r3, asr #24
   86a66:	d021      	beq.n	86aac <__addsf3+0x140>
   86a68:	ea92 0f03 	teq	r2, r3
   86a6c:	d004      	beq.n	86a78 <__addsf3+0x10c>
   86a6e:	f092 0f00 	teq	r2, #0
   86a72:	bf08      	it	eq
   86a74:	4608      	moveq	r0, r1
   86a76:	4770      	bx	lr
   86a78:	ea90 0f01 	teq	r0, r1
   86a7c:	bf1c      	itt	ne
   86a7e:	2000      	movne	r0, #0
   86a80:	4770      	bxne	lr
   86a82:	f012 4f7f 	tst.w	r2, #4278190080	; 0xff000000
   86a86:	d104      	bne.n	86a92 <__addsf3+0x126>
   86a88:	0040      	lsls	r0, r0, #1
   86a8a:	bf28      	it	cs
   86a8c:	f040 4000 	orrcs.w	r0, r0, #2147483648	; 0x80000000
   86a90:	4770      	bx	lr
   86a92:	f112 7200 	adds.w	r2, r2, #33554432	; 0x2000000
   86a96:	bf3c      	itt	cc
   86a98:	f500 0000 	addcc.w	r0, r0, #8388608	; 0x800000
   86a9c:	4770      	bxcc	lr
   86a9e:	f000 4300 	and.w	r3, r0, #2147483648	; 0x80000000
   86aa2:	f043 40fe 	orr.w	r0, r3, #2130706432	; 0x7f000000
   86aa6:	f440 0000 	orr.w	r0, r0, #8388608	; 0x800000
   86aaa:	4770      	bx	lr
   86aac:	ea7f 6222 	mvns.w	r2, r2, asr #24
   86ab0:	bf16      	itet	ne
   86ab2:	4608      	movne	r0, r1
   86ab4:	ea7f 6323 	mvnseq.w	r3, r3, asr #24
   86ab8:	4601      	movne	r1, r0
   86aba:	0242      	lsls	r2, r0, #9
   86abc:	bf06      	itte	eq
   86abe:	ea5f 2341 	movseq.w	r3, r1, lsl #9
   86ac2:	ea90 0f01 	teqeq	r0, r1
   86ac6:	f440 0080 	orrne.w	r0, r0, #4194304	; 0x400000
   86aca:	4770      	bx	lr

00086acc <__aeabi_ui2f>:
   86acc:	f04f 0300 	mov.w	r3, #0
   86ad0:	e004      	b.n	86adc <__aeabi_i2f+0x8>
   86ad2:	bf00      	nop

00086ad4 <__aeabi_i2f>:
   86ad4:	f010 4300 	ands.w	r3, r0, #2147483648	; 0x80000000
   86ad8:	bf48      	it	mi
   86ada:	4240      	negmi	r0, r0
   86adc:	ea5f 0c00 	movs.w	ip, r0
   86ae0:	bf08      	it	eq
   86ae2:	4770      	bxeq	lr
   86ae4:	f043 4396 	orr.w	r3, r3, #1258291200	; 0x4b000000
   86ae8:	4601      	mov	r1, r0
   86aea:	f04f 0000 	mov.w	r0, #0
   86aee:	e01c      	b.n	86b2a <__aeabi_l2f+0x2a>

00086af0 <__aeabi_ul2f>:
   86af0:	ea50 0201 	orrs.w	r2, r0, r1
   86af4:	bf08      	it	eq
   86af6:	4770      	bxeq	lr
   86af8:	f04f 0300 	mov.w	r3, #0
   86afc:	e00a      	b.n	86b14 <__aeabi_l2f+0x14>
   86afe:	bf00      	nop

00086b00 <__aeabi_l2f>:
   86b00:	ea50 0201 	orrs.w	r2, r0, r1
   86b04:	bf08      	it	eq
   86b06:	4770      	bxeq	lr
   86b08:	f011 4300 	ands.w	r3, r1, #2147483648	; 0x80000000
   86b0c:	d502      	bpl.n	86b14 <__aeabi_l2f+0x14>
   86b0e:	4240      	negs	r0, r0
   86b10:	eb61 0141 	sbc.w	r1, r1, r1, lsl #1
   86b14:	ea5f 0c01 	movs.w	ip, r1
   86b18:	bf02      	ittt	eq
   86b1a:	4684      	moveq	ip, r0
   86b1c:	4601      	moveq	r1, r0
   86b1e:	2000      	moveq	r0, #0
   86b20:	f043 43b6 	orr.w	r3, r3, #1526726656	; 0x5b000000
   86b24:	bf08      	it	eq
   86b26:	f1a3 5380 	subeq.w	r3, r3, #268435456	; 0x10000000
   86b2a:	f5a3 0300 	sub.w	r3, r3, #8388608	; 0x800000
   86b2e:	fabc f28c 	clz	r2, ip
   86b32:	3a08      	subs	r2, #8
   86b34:	eba3 53c2 	sub.w	r3, r3, r2, lsl #23
   86b38:	db10      	blt.n	86b5c <__aeabi_l2f+0x5c>
   86b3a:	fa01 fc02 	lsl.w	ip, r1, r2
   86b3e:	4463      	add	r3, ip
   86b40:	fa00 fc02 	lsl.w	ip, r0, r2
   86b44:	f1c2 0220 	rsb	r2, r2, #32
   86b48:	f1bc 4f00 	cmp.w	ip, #2147483648	; 0x80000000
   86b4c:	fa20 f202 	lsr.w	r2, r0, r2
   86b50:	eb43 0002 	adc.w	r0, r3, r2
   86b54:	bf08      	it	eq
   86b56:	f020 0001 	biceq.w	r0, r0, #1
   86b5a:	4770      	bx	lr
   86b5c:	f102 0220 	add.w	r2, r2, #32
   86b60:	fa01 fc02 	lsl.w	ip, r1, r2
   86b64:	f1c2 0220 	rsb	r2, r2, #32
   86b68:	ea50 004c 	orrs.w	r0, r0, ip, lsl #1
   86b6c:	fa21 f202 	lsr.w	r2, r1, r2
   86b70:	eb43 0002 	adc.w	r0, r3, r2
   86b74:	bf08      	it	eq
   86b76:	ea20 70dc 	biceq.w	r0, r0, ip, lsr #31
   86b7a:	4770      	bx	lr

00086b7c <__aeabi_fmul>:
   86b7c:	f04f 0cff 	mov.w	ip, #255	; 0xff
   86b80:	ea1c 52d0 	ands.w	r2, ip, r0, lsr #23
   86b84:	bf1e      	ittt	ne
   86b86:	ea1c 53d1 	andsne.w	r3, ip, r1, lsr #23
   86b8a:	ea92 0f0c 	teqne	r2, ip
   86b8e:	ea93 0f0c 	teqne	r3, ip
   86b92:	d06f      	beq.n	86c74 <__aeabi_fmul+0xf8>
   86b94:	441a      	add	r2, r3
   86b96:	ea80 0c01 	eor.w	ip, r0, r1
   86b9a:	0240      	lsls	r0, r0, #9
   86b9c:	bf18      	it	ne
   86b9e:	ea5f 2141 	movsne.w	r1, r1, lsl #9
   86ba2:	d01e      	beq.n	86be2 <__aeabi_fmul+0x66>
   86ba4:	f04f 6300 	mov.w	r3, #134217728	; 0x8000000
   86ba8:	ea43 1050 	orr.w	r0, r3, r0, lsr #5
   86bac:	ea43 1151 	orr.w	r1, r3, r1, lsr #5
   86bb0:	fba0 3101 	umull	r3, r1, r0, r1
   86bb4:	f00c 4000 	and.w	r0, ip, #2147483648	; 0x80000000
   86bb8:	f5b1 0f00 	cmp.w	r1, #8388608	; 0x800000
   86bbc:	bf3e      	ittt	cc
   86bbe:	0049      	lslcc	r1, r1, #1
   86bc0:	ea41 71d3 	orrcc.w	r1, r1, r3, lsr #31
   86bc4:	005b      	lslcc	r3, r3, #1
   86bc6:	ea40 0001 	orr.w	r0, r0, r1
   86bca:	f162 027f 	sbc.w	r2, r2, #127	; 0x7f
   86bce:	2afd      	cmp	r2, #253	; 0xfd
   86bd0:	d81d      	bhi.n	86c0e <__aeabi_fmul+0x92>
   86bd2:	f1b3 4f00 	cmp.w	r3, #2147483648	; 0x80000000
   86bd6:	eb40 50c2 	adc.w	r0, r0, r2, lsl #23
   86bda:	bf08      	it	eq
   86bdc:	f020 0001 	biceq.w	r0, r0, #1
   86be0:	4770      	bx	lr
   86be2:	f090 0f00 	teq	r0, #0
   86be6:	f00c 4c00 	and.w	ip, ip, #2147483648	; 0x80000000
   86bea:	bf08      	it	eq
   86bec:	0249      	lsleq	r1, r1, #9
   86bee:	ea4c 2050 	orr.w	r0, ip, r0, lsr #9
   86bf2:	ea40 2051 	orr.w	r0, r0, r1, lsr #9
   86bf6:	3a7f      	subs	r2, #127	; 0x7f
   86bf8:	bfc2      	ittt	gt
   86bfa:	f1d2 03ff 	rsbsgt	r3, r2, #255	; 0xff
   86bfe:	ea40 50c2 	orrgt.w	r0, r0, r2, lsl #23
   86c02:	4770      	bxgt	lr
   86c04:	f440 0000 	orr.w	r0, r0, #8388608	; 0x800000
   86c08:	f04f 0300 	mov.w	r3, #0
   86c0c:	3a01      	subs	r2, #1
   86c0e:	dc5d      	bgt.n	86ccc <__aeabi_fmul+0x150>
   86c10:	f112 0f19 	cmn.w	r2, #25
   86c14:	bfdc      	itt	le
   86c16:	f000 4000 	andle.w	r0, r0, #2147483648	; 0x80000000
   86c1a:	4770      	bxle	lr
   86c1c:	f1c2 0200 	rsb	r2, r2, #0
   86c20:	0041      	lsls	r1, r0, #1
   86c22:	fa21 f102 	lsr.w	r1, r1, r2
   86c26:	f1c2 0220 	rsb	r2, r2, #32
   86c2a:	fa00 fc02 	lsl.w	ip, r0, r2
   86c2e:	ea5f 0031 	movs.w	r0, r1, rrx
   86c32:	f140 0000 	adc.w	r0, r0, #0
   86c36:	ea53 034c 	orrs.w	r3, r3, ip, lsl #1
   86c3a:	bf08      	it	eq
   86c3c:	ea20 70dc 	biceq.w	r0, r0, ip, lsr #31
   86c40:	4770      	bx	lr
   86c42:	f092 0f00 	teq	r2, #0
   86c46:	f000 4c00 	and.w	ip, r0, #2147483648	; 0x80000000
   86c4a:	bf02      	ittt	eq
   86c4c:	0040      	lsleq	r0, r0, #1
   86c4e:	f410 0f00 	tsteq.w	r0, #8388608	; 0x800000
   86c52:	3a01      	subeq	r2, #1
   86c54:	d0f9      	beq.n	86c4a <__aeabi_fmul+0xce>
   86c56:	ea40 000c 	orr.w	r0, r0, ip
   86c5a:	f093 0f00 	teq	r3, #0
   86c5e:	f001 4c00 	and.w	ip, r1, #2147483648	; 0x80000000
   86c62:	bf02      	ittt	eq
   86c64:	0049      	lsleq	r1, r1, #1
   86c66:	f411 0f00 	tsteq.w	r1, #8388608	; 0x800000
   86c6a:	3b01      	subeq	r3, #1
   86c6c:	d0f9      	beq.n	86c62 <__aeabi_fmul+0xe6>
   86c6e:	ea41 010c 	orr.w	r1, r1, ip
   86c72:	e78f      	b.n	86b94 <__aeabi_fmul+0x18>
   86c74:	ea0c 53d1 	and.w	r3, ip, r1, lsr #23
   86c78:	ea92 0f0c 	teq	r2, ip
   86c7c:	bf18      	it	ne
   86c7e:	ea93 0f0c 	teqne	r3, ip
   86c82:	d00a      	beq.n	86c9a <__aeabi_fmul+0x11e>
   86c84:	f030 4c00 	bics.w	ip, r0, #2147483648	; 0x80000000
   86c88:	bf18      	it	ne
   86c8a:	f031 4c00 	bicsne.w	ip, r1, #2147483648	; 0x80000000
   86c8e:	d1d8      	bne.n	86c42 <__aeabi_fmul+0xc6>
   86c90:	ea80 0001 	eor.w	r0, r0, r1
   86c94:	f000 4000 	and.w	r0, r0, #2147483648	; 0x80000000
   86c98:	4770      	bx	lr
   86c9a:	f090 0f00 	teq	r0, #0
   86c9e:	bf17      	itett	ne
   86ca0:	f090 4f00 	teqne	r0, #2147483648	; 0x80000000
   86ca4:	4608      	moveq	r0, r1
   86ca6:	f091 0f00 	teqne	r1, #0
   86caa:	f091 4f00 	teqne	r1, #2147483648	; 0x80000000
   86cae:	d014      	beq.n	86cda <__aeabi_fmul+0x15e>
   86cb0:	ea92 0f0c 	teq	r2, ip
   86cb4:	d101      	bne.n	86cba <__aeabi_fmul+0x13e>
   86cb6:	0242      	lsls	r2, r0, #9
   86cb8:	d10f      	bne.n	86cda <__aeabi_fmul+0x15e>
   86cba:	ea93 0f0c 	teq	r3, ip
   86cbe:	d103      	bne.n	86cc8 <__aeabi_fmul+0x14c>
   86cc0:	024b      	lsls	r3, r1, #9
   86cc2:	bf18      	it	ne
   86cc4:	4608      	movne	r0, r1
   86cc6:	d108      	bne.n	86cda <__aeabi_fmul+0x15e>
   86cc8:	ea80 0001 	eor.w	r0, r0, r1
   86ccc:	f000 4000 	and.w	r0, r0, #2147483648	; 0x80000000
   86cd0:	f040 40fe 	orr.w	r0, r0, #2130706432	; 0x7f000000
   86cd4:	f440 0000 	orr.w	r0, r0, #8388608	; 0x800000
   86cd8:	4770      	bx	lr
   86cda:	f040 40fe 	orr.w	r0, r0, #2130706432	; 0x7f000000
   86cde:	f440 0040 	orr.w	r0, r0, #12582912	; 0xc00000
   86ce2:	4770      	bx	lr

00086ce4 <__aeabi_fdiv>:
   86ce4:	f04f 0cff 	mov.w	ip, #255	; 0xff
   86ce8:	ea1c 52d0 	ands.w	r2, ip, r0, lsr #23
   86cec:	bf1e      	ittt	ne
   86cee:	ea1c 53d1 	andsne.w	r3, ip, r1, lsr #23
   86cf2:	ea92 0f0c 	teqne	r2, ip
   86cf6:	ea93 0f0c 	teqne	r3, ip
   86cfa:	d069      	beq.n	86dd0 <__aeabi_fdiv+0xec>
   86cfc:	eba2 0203 	sub.w	r2, r2, r3
   86d00:	ea80 0c01 	eor.w	ip, r0, r1
   86d04:	0249      	lsls	r1, r1, #9
   86d06:	ea4f 2040 	mov.w	r0, r0, lsl #9
   86d0a:	d037      	beq.n	86d7c <__aeabi_fdiv+0x98>
   86d0c:	f04f 5380 	mov.w	r3, #268435456	; 0x10000000
   86d10:	ea43 1111 	orr.w	r1, r3, r1, lsr #4
   86d14:	ea43 1310 	orr.w	r3, r3, r0, lsr #4
   86d18:	f00c 4000 	and.w	r0, ip, #2147483648	; 0x80000000
   86d1c:	428b      	cmp	r3, r1
   86d1e:	bf38      	it	cc
   86d20:	005b      	lslcc	r3, r3, #1
   86d22:	f142 027d 	adc.w	r2, r2, #125	; 0x7d
   86d26:	f44f 0c00 	mov.w	ip, #8388608	; 0x800000
   86d2a:	428b      	cmp	r3, r1
   86d2c:	bf24      	itt	cs
   86d2e:	1a5b      	subcs	r3, r3, r1
   86d30:	ea40 000c 	orrcs.w	r0, r0, ip
   86d34:	ebb3 0f51 	cmp.w	r3, r1, lsr #1
   86d38:	bf24      	itt	cs
   86d3a:	eba3 0351 	subcs.w	r3, r3, r1, lsr #1
   86d3e:	ea40 005c 	orrcs.w	r0, r0, ip, lsr #1
   86d42:	ebb3 0f91 	cmp.w	r3, r1, lsr #2
   86d46:	bf24      	itt	cs
   86d48:	eba3 0391 	subcs.w	r3, r3, r1, lsr #2
   86d4c:	ea40 009c 	orrcs.w	r0, r0, ip, lsr #2
   86d50:	ebb3 0fd1 	cmp.w	r3, r1, lsr #3
   86d54:	bf24      	itt	cs
   86d56:	eba3 03d1 	subcs.w	r3, r3, r1, lsr #3
   86d5a:	ea40 00dc 	orrcs.w	r0, r0, ip, lsr #3
   86d5e:	011b      	lsls	r3, r3, #4
   86d60:	bf18      	it	ne
   86d62:	ea5f 1c1c 	movsne.w	ip, ip, lsr #4
   86d66:	d1e0      	bne.n	86d2a <__aeabi_fdiv+0x46>
   86d68:	2afd      	cmp	r2, #253	; 0xfd
   86d6a:	f63f af50 	bhi.w	86c0e <__aeabi_fmul+0x92>
   86d6e:	428b      	cmp	r3, r1
   86d70:	eb40 50c2 	adc.w	r0, r0, r2, lsl #23
   86d74:	bf08      	it	eq
   86d76:	f020 0001 	biceq.w	r0, r0, #1
   86d7a:	4770      	bx	lr
   86d7c:	f00c 4c00 	and.w	ip, ip, #2147483648	; 0x80000000
   86d80:	ea4c 2050 	orr.w	r0, ip, r0, lsr #9
   86d84:	327f      	adds	r2, #127	; 0x7f
   86d86:	bfc2      	ittt	gt
   86d88:	f1d2 03ff 	rsbsgt	r3, r2, #255	; 0xff
   86d8c:	ea40 50c2 	orrgt.w	r0, r0, r2, lsl #23
   86d90:	4770      	bxgt	lr
   86d92:	f440 0000 	orr.w	r0, r0, #8388608	; 0x800000
   86d96:	f04f 0300 	mov.w	r3, #0
   86d9a:	3a01      	subs	r2, #1
   86d9c:	e737      	b.n	86c0e <__aeabi_fmul+0x92>
   86d9e:	f092 0f00 	teq	r2, #0
   86da2:	f000 4c00 	and.w	ip, r0, #2147483648	; 0x80000000
   86da6:	bf02      	ittt	eq
   86da8:	0040      	lsleq	r0, r0, #1
   86daa:	f410 0f00 	tsteq.w	r0, #8388608	; 0x800000
   86dae:	3a01      	subeq	r2, #1
   86db0:	d0f9      	beq.n	86da6 <__aeabi_fdiv+0xc2>
   86db2:	ea40 000c 	orr.w	r0, r0, ip
   86db6:	f093 0f00 	teq	r3, #0
   86dba:	f001 4c00 	and.w	ip, r1, #2147483648	; 0x80000000
   86dbe:	bf02      	ittt	eq
   86dc0:	0049      	lsleq	r1, r1, #1
   86dc2:	f411 0f00 	tsteq.w	r1, #8388608	; 0x800000
   86dc6:	3b01      	subeq	r3, #1
   86dc8:	d0f9      	beq.n	86dbe <__aeabi_fdiv+0xda>
   86dca:	ea41 010c 	orr.w	r1, r1, ip
   86dce:	e795      	b.n	86cfc <__aeabi_fdiv+0x18>
   86dd0:	ea0c 53d1 	and.w	r3, ip, r1, lsr #23
   86dd4:	ea92 0f0c 	teq	r2, ip
   86dd8:	d108      	bne.n	86dec <__aeabi_fdiv+0x108>
   86dda:	0242      	lsls	r2, r0, #9
   86ddc:	f47f af7d 	bne.w	86cda <__aeabi_fmul+0x15e>
   86de0:	ea93 0f0c 	teq	r3, ip
   86de4:	f47f af70 	bne.w	86cc8 <__aeabi_fmul+0x14c>
   86de8:	4608      	mov	r0, r1
   86dea:	e776      	b.n	86cda <__aeabi_fmul+0x15e>
   86dec:	ea93 0f0c 	teq	r3, ip
   86df0:	d104      	bne.n	86dfc <__aeabi_fdiv+0x118>
   86df2:	024b      	lsls	r3, r1, #9
   86df4:	f43f af4c 	beq.w	86c90 <__aeabi_fmul+0x114>
   86df8:	4608      	mov	r0, r1
   86dfa:	e76e      	b.n	86cda <__aeabi_fmul+0x15e>
   86dfc:	f030 4c00 	bics.w	ip, r0, #2147483648	; 0x80000000
   86e00:	bf18      	it	ne
   86e02:	f031 4c00 	bicsne.w	ip, r1, #2147483648	; 0x80000000
   86e06:	d1ca      	bne.n	86d9e <__aeabi_fdiv+0xba>
   86e08:	f030 4200 	bics.w	r2, r0, #2147483648	; 0x80000000
   86e0c:	f47f af5c 	bne.w	86cc8 <__aeabi_fmul+0x14c>
   86e10:	f031 4300 	bics.w	r3, r1, #2147483648	; 0x80000000
   86e14:	f47f af3c 	bne.w	86c90 <__aeabi_fmul+0x114>
   86e18:	e75f      	b.n	86cda <__aeabi_fmul+0x15e>
   86e1a:	bf00      	nop

00086e1c <__gesf2>:
   86e1c:	f04f 3cff 	mov.w	ip, #4294967295
   86e20:	e006      	b.n	86e30 <__cmpsf2+0x4>
   86e22:	bf00      	nop

00086e24 <__lesf2>:
   86e24:	f04f 0c01 	mov.w	ip, #1
   86e28:	e002      	b.n	86e30 <__cmpsf2+0x4>
   86e2a:	bf00      	nop

00086e2c <__cmpsf2>:
   86e2c:	f04f 0c01 	mov.w	ip, #1
   86e30:	f84d cd04 	str.w	ip, [sp, #-4]!
   86e34:	ea4f 0240 	mov.w	r2, r0, lsl #1
   86e38:	ea4f 0341 	mov.w	r3, r1, lsl #1
   86e3c:	ea7f 6c22 	mvns.w	ip, r2, asr #24
   86e40:	bf18      	it	ne
   86e42:	ea7f 6c23 	mvnsne.w	ip, r3, asr #24
   86e46:	d011      	beq.n	86e6c <__cmpsf2+0x40>
   86e48:	b001      	add	sp, #4
   86e4a:	ea52 0c53 	orrs.w	ip, r2, r3, lsr #1
   86e4e:	bf18      	it	ne
   86e50:	ea90 0f01 	teqne	r0, r1
   86e54:	bf58      	it	pl
   86e56:	ebb2 0003 	subspl.w	r0, r2, r3
   86e5a:	bf88      	it	hi
   86e5c:	17c8      	asrhi	r0, r1, #31
   86e5e:	bf38      	it	cc
   86e60:	ea6f 70e1 	mvncc.w	r0, r1, asr #31
   86e64:	bf18      	it	ne
   86e66:	f040 0001 	orrne.w	r0, r0, #1
   86e6a:	4770      	bx	lr
   86e6c:	ea7f 6c22 	mvns.w	ip, r2, asr #24
   86e70:	d102      	bne.n	86e78 <__cmpsf2+0x4c>
   86e72:	ea5f 2c40 	movs.w	ip, r0, lsl #9
   86e76:	d105      	bne.n	86e84 <__cmpsf2+0x58>
   86e78:	ea7f 6c23 	mvns.w	ip, r3, asr #24
   86e7c:	d1e4      	bne.n	86e48 <__cmpsf2+0x1c>
   86e7e:	ea5f 2c41 	movs.w	ip, r1, lsl #9
   86e82:	d0e1      	beq.n	86e48 <__cmpsf2+0x1c>
   86e84:	f85d 0b04 	ldr.w	r0, [sp], #4
   86e88:	4770      	bx	lr
   86e8a:	bf00      	nop

00086e8c <__aeabi_cfrcmple>:
   86e8c:	4684      	mov	ip, r0
   86e8e:	4608      	mov	r0, r1
   86e90:	4661      	mov	r1, ip
   86e92:	e7ff      	b.n	86e94 <__aeabi_cfcmpeq>

00086e94 <__aeabi_cfcmpeq>:
   86e94:	b50f      	push	{r0, r1, r2, r3, lr}
   86e96:	f7ff ffc9 	bl	86e2c <__cmpsf2>
   86e9a:	2800      	cmp	r0, #0
   86e9c:	bf48      	it	mi
   86e9e:	f110 0f00 	cmnmi.w	r0, #0
   86ea2:	bd0f      	pop	{r0, r1, r2, r3, pc}

00086ea4 <__aeabi_fcmpeq>:
   86ea4:	f84d ed08 	str.w	lr, [sp, #-8]!
   86ea8:	f7ff fff4 	bl	86e94 <__aeabi_cfcmpeq>
   86eac:	bf0c      	ite	eq
   86eae:	2001      	moveq	r0, #1
   86eb0:	2000      	movne	r0, #0
   86eb2:	f85d fb08 	ldr.w	pc, [sp], #8
   86eb6:	bf00      	nop

00086eb8 <__aeabi_fcmplt>:
   86eb8:	f84d ed08 	str.w	lr, [sp, #-8]!
   86ebc:	f7ff ffea 	bl	86e94 <__aeabi_cfcmpeq>
   86ec0:	bf34      	ite	cc
   86ec2:	2001      	movcc	r0, #1
   86ec4:	2000      	movcs	r0, #0
   86ec6:	f85d fb08 	ldr.w	pc, [sp], #8
   86eca:	bf00      	nop

00086ecc <__aeabi_fcmple>:
   86ecc:	f84d ed08 	str.w	lr, [sp, #-8]!
   86ed0:	f7ff ffe0 	bl	86e94 <__aeabi_cfcmpeq>
   86ed4:	bf94      	ite	ls
   86ed6:	2001      	movls	r0, #1
   86ed8:	2000      	movhi	r0, #0
   86eda:	f85d fb08 	ldr.w	pc, [sp], #8
   86ede:	bf00      	nop

00086ee0 <__aeabi_fcmpge>:
   86ee0:	f84d ed08 	str.w	lr, [sp, #-8]!
   86ee4:	f7ff ffd2 	bl	86e8c <__aeabi_cfrcmple>
   86ee8:	bf94      	ite	ls
   86eea:	2001      	movls	r0, #1
   86eec:	2000      	movhi	r0, #0
   86eee:	f85d fb08 	ldr.w	pc, [sp], #8
   86ef2:	bf00      	nop

00086ef4 <__aeabi_fcmpgt>:
   86ef4:	f84d ed08 	str.w	lr, [sp, #-8]!
   86ef8:	f7ff ffc8 	bl	86e8c <__aeabi_cfrcmple>
   86efc:	bf34      	ite	cc
   86efe:	2001      	movcc	r0, #1
   86f00:	2000      	movcs	r0, #0
   86f02:	f85d fb08 	ldr.w	pc, [sp], #8
   86f06:	bf00      	nop

00086f08 <__aeabi_f2iz>:
   86f08:	ea4f 0240 	mov.w	r2, r0, lsl #1
   86f0c:	f1b2 4ffe 	cmp.w	r2, #2130706432	; 0x7f000000
   86f10:	d30f      	bcc.n	86f32 <__aeabi_f2iz+0x2a>
   86f12:	f04f 039e 	mov.w	r3, #158	; 0x9e
   86f16:	ebb3 6212 	subs.w	r2, r3, r2, lsr #24
   86f1a:	d90d      	bls.n	86f38 <__aeabi_f2iz+0x30>
   86f1c:	ea4f 2300 	mov.w	r3, r0, lsl #8
   86f20:	f043 4300 	orr.w	r3, r3, #2147483648	; 0x80000000
   86f24:	f010 4f00 	tst.w	r0, #2147483648	; 0x80000000
   86f28:	fa23 f002 	lsr.w	r0, r3, r2
   86f2c:	bf18      	it	ne
   86f2e:	4240      	negne	r0, r0
   86f30:	4770      	bx	lr
   86f32:	f04f 0000 	mov.w	r0, #0
   86f36:	4770      	bx	lr
   86f38:	f112 0f61 	cmn.w	r2, #97	; 0x61
   86f3c:	d101      	bne.n	86f42 <__aeabi_f2iz+0x3a>
   86f3e:	0242      	lsls	r2, r0, #9
   86f40:	d105      	bne.n	86f4e <__aeabi_f2iz+0x46>
   86f42:	f010 4000 	ands.w	r0, r0, #2147483648	; 0x80000000
   86f46:	bf08      	it	eq
   86f48:	f06f 4000 	mvneq.w	r0, #2147483648	; 0x80000000
   86f4c:	4770      	bx	lr
   86f4e:	f04f 0000 	mov.w	r0, #0
   86f52:	4770      	bx	lr

00086f54 <__aeabi_f2uiz>:
   86f54:	0042      	lsls	r2, r0, #1
   86f56:	d20e      	bcs.n	86f76 <__aeabi_f2uiz+0x22>
   86f58:	f1b2 4ffe 	cmp.w	r2, #2130706432	; 0x7f000000
   86f5c:	d30b      	bcc.n	86f76 <__aeabi_f2uiz+0x22>
   86f5e:	f04f 039e 	mov.w	r3, #158	; 0x9e
   86f62:	ebb3 6212 	subs.w	r2, r3, r2, lsr #24
   86f66:	d409      	bmi.n	86f7c <__aeabi_f2uiz+0x28>
   86f68:	ea4f 2300 	mov.w	r3, r0, lsl #8
   86f6c:	f043 4300 	orr.w	r3, r3, #2147483648	; 0x80000000
   86f70:	fa23 f002 	lsr.w	r0, r3, r2
   86f74:	4770      	bx	lr
   86f76:	f04f 0000 	mov.w	r0, #0
   86f7a:	4770      	bx	lr
   86f7c:	f112 0f61 	cmn.w	r2, #97	; 0x61
   86f80:	d101      	bne.n	86f86 <__aeabi_f2uiz+0x32>
   86f82:	0242      	lsls	r2, r0, #9
   86f84:	d102      	bne.n	86f8c <__aeabi_f2uiz+0x38>
   86f86:	f04f 30ff 	mov.w	r0, #4294967295
   86f8a:	4770      	bx	lr
   86f8c:	f04f 0000 	mov.w	r0, #0
   86f90:	4770      	bx	lr
   86f92:	bf00      	nop
   86f94:	000a6425 	.word	0x000a6425
   86f98:	00000001 	.word	0x00000001
   86f9c:	00000002 	.word	0x00000002
   86fa0:	00000004 	.word	0x00000004
   86fa4:	00000008 	.word	0x00000008
   86fa8:	00000010 	.word	0x00000010
   86fac:	00000020 	.word	0x00000020
   86fb0:	00000040 	.word	0x00000040
   86fb4:	00000080 	.word	0x00000080
   86fb8:	00000100 	.word	0x00000100
   86fbc:	00000200 	.word	0x00000200
   86fc0:	00000400 	.word	0x00000400
   86fc4:	09097325 	.word	0x09097325
   86fc8:	25096325 	.word	0x25096325
   86fcc:	75250975 	.word	0x75250975
   86fd0:	0d752509 	.word	0x0d752509
   86fd4:	0000000a 	.word	0x0000000a
   86fd8:	454c4449 	.word	0x454c4449
   86fdc:	00000000 	.word	0x00000000
   86fe0:	00000a0d 	.word	0x00000a0d
   86fe4:	20726d54 	.word	0x20726d54
   86fe8:	00637653 	.word	0x00637653
   86fec:	6b736154 	.word	0x6b736154
   86ff0:	76697244 	.word	0x76697244
   86ff4:	66654c65 	.word	0x66654c65
   86ff8:	67695274 	.word	0x67695274
   86ffc:	00007468 	.word	0x00007468
   87000:	6c696146 	.word	0x6c696146
   87004:	74206465 	.word	0x74206465
   87008:	7263206f 	.word	0x7263206f
   8700c:	65746165 	.word	0x65746165
   87010:	73615420 	.word	0x73615420
   87014:	6972446b 	.word	0x6972446b
   87018:	654c6576 	.word	0x654c6576
   8701c:	69527466 	.word	0x69527466
   87020:	0a746867 	.word	0x0a746867
   87024:	00000000 	.word	0x00000000
   87028:	6b736154 	.word	0x6b736154
   8702c:	76697244 	.word	0x76697244
   87030:	726f4665 	.word	0x726f4665
   87034:	64726177 	.word	0x64726177
   87038:	00000000 	.word	0x00000000
   8703c:	6c696146 	.word	0x6c696146
   87040:	74206465 	.word	0x74206465
   87044:	7263206f 	.word	0x7263206f
   87048:	65746165 	.word	0x65746165
   8704c:	73615420 	.word	0x73615420
   87050:	6972446b 	.word	0x6972446b
   87054:	6f466576 	.word	0x6f466576
   87058:	72617772 	.word	0x72617772
   8705c:	00000a64 	.word	0x00000a64
   87060:	6b736154 	.word	0x6b736154
   87064:	006c6143 	.word	0x006c6143
   87068:	6c696146 	.word	0x6c696146
   8706c:	74206465 	.word	0x74206465
   87070:	7263206f 	.word	0x7263206f
   87074:	65746165 	.word	0x65746165
   87078:	73615420 	.word	0x73615420
   8707c:	6c61436b 	.word	0x6c61436b
   87080:	616c7563 	.word	0x616c7563
   87084:	654c6574 	.word	0x654c6574
   87088:	68577466 	.word	0x68577466
   8708c:	0a6c6565 	.word	0x0a6c6565
   87090:	00000000 	.word	0x00000000
   87094:	00000043 	.word	0x00000043

00087098 <_global_impure_ptr>:
   87098:	20070150 2b302d23 6c680020 6665004c     P.. #-0+ .hlL.ef
   870a8:	47464567 464e4900 666e6900 4e414e00     gEFG.INF.inf.NAN
   870b8:	6e616e00 30003000 34333231 38373635     .nan.0.012345678
   870c8:	43424139 00464544 33323130 37363534     9ABCDEF.01234567
   870d8:	62613938 66656463 666e4900 74696e69     89abcdef.Infinit
   870e8:	614e0079 0000004e                       y.NaN...

000870f0 <__sf_fake_stdin>:
	...

00087110 <__sf_fake_stdout>:
	...

00087130 <__sf_fake_stderr>:
	...
   87150:	49534f50 002e0058                       POSIX...

00087158 <__mprec_tens>:
   87158:	00000000 3ff00000 00000000 40240000     .......?......$@
   87168:	00000000 40590000 00000000 408f4000     ......Y@.....@.@
   87178:	00000000 40c38800 00000000 40f86a00     .......@.....j.@
   87188:	00000000 412e8480 00000000 416312d0     .......A......cA
   87198:	00000000 4197d784 00000000 41cdcd65     .......A....e..A
   871a8:	20000000 4202a05f e8000000 42374876     ... _..B....vH7B
   871b8:	a2000000 426d1a94 e5400000 42a2309c     ......mB..@..0.B
   871c8:	1e900000 42d6bcc4 26340000 430c6bf5     .......B..4&.k.C
   871d8:	37e08000 4341c379 85d8a000 43763457     ...7y.AC....W4vC
   871e8:	674ec800 43abc16d 60913d00 43e158e4     ..Ngm..C.=.`.X.C
   871f8:	78b58c40 4415af1d d6e2ef50 444b1ae4     @..x...DP.....KD
   87208:	064dd592 4480f0cf c7e14af6 44b52d02     ..M....D.J...-.D
   87218:	79d99db4 44ea7843                       ...yCx.D

00087220 <__mprec_bigtens>:
   87220:	37e08000 4341c379 b5056e17 4693b8b5     ...7y.AC.n.....F
   87230:	e93ff9f5 4d384f03 f9301d32 5a827748     ..?..O8M2.0.Hw.Z
   87240:	7f73bf3c 75154fdd                       <.s..O.u

00087248 <p05.5281>:
   87248:	00000005 00000019 0000007d              ........}...

00087254 <_init>:
   87254:	b5f8      	push	{r3, r4, r5, r6, r7, lr}
   87256:	bf00      	nop
   87258:	bcf8      	pop	{r3, r4, r5, r6, r7}
   8725a:	bc08      	pop	{r3}
   8725c:	469e      	mov	lr, r3
   8725e:	4770      	bx	lr

00087260 <__init_array_start>:
   87260:	00080119 	.word	0x00080119

00087264 <_fini>:
   87264:	b5f8      	push	{r3, r4, r5, r6, r7, lr}
   87266:	bf00      	nop
   87268:	bcf8      	pop	{r3, r4, r5, r6, r7}
   8726a:	bc08      	pop	{r3}
   8726c:	469e      	mov	lr, r3
   8726e:	4770      	bx	lr

00087270 <__fini_array_start>:
   87270:	000800f5 	.word	0x000800f5

Disassembly of section .relocate:

20070000 <SystemInit>:
20070000:	f44f 6380 	mov.w	r3, #1024	; 0x400
20070004:	4a20      	ldr	r2, [pc, #128]	; (20070088 <SystemInit+0x88>)
20070006:	6013      	str	r3, [r2, #0]
20070008:	f502 7200 	add.w	r2, r2, #512	; 0x200
2007000c:	6013      	str	r3, [r2, #0]
2007000e:	4b1f      	ldr	r3, [pc, #124]	; (2007008c <SystemInit+0x8c>)
20070010:	6a1b      	ldr	r3, [r3, #32]
20070012:	f013 7f80 	tst.w	r3, #16777216	; 0x1000000
20070016:	d107      	bne.n	20070028 <SystemInit+0x28>
20070018:	4a1d      	ldr	r2, [pc, #116]	; (20070090 <SystemInit+0x90>)
2007001a:	4b1c      	ldr	r3, [pc, #112]	; (2007008c <SystemInit+0x8c>)
2007001c:	621a      	str	r2, [r3, #32]
2007001e:	461a      	mov	r2, r3
20070020:	6e93      	ldr	r3, [r2, #104]	; 0x68
20070022:	f013 0f01 	tst.w	r3, #1
20070026:	d0fb      	beq.n	20070020 <SystemInit+0x20>
20070028:	4a1a      	ldr	r2, [pc, #104]	; (20070094 <SystemInit+0x94>)
2007002a:	4b18      	ldr	r3, [pc, #96]	; (2007008c <SystemInit+0x8c>)
2007002c:	621a      	str	r2, [r3, #32]
2007002e:	461a      	mov	r2, r3
20070030:	6e93      	ldr	r3, [r2, #104]	; 0x68
20070032:	f413 3f80 	tst.w	r3, #65536	; 0x10000
20070036:	d0fb      	beq.n	20070030 <SystemInit+0x30>
20070038:	4b14      	ldr	r3, [pc, #80]	; (2007008c <SystemInit+0x8c>)
2007003a:	6b1a      	ldr	r2, [r3, #48]	; 0x30
2007003c:	f022 0203 	bic.w	r2, r2, #3
20070040:	f042 0201 	orr.w	r2, r2, #1
20070044:	631a      	str	r2, [r3, #48]	; 0x30
20070046:	461a      	mov	r2, r3
20070048:	6e93      	ldr	r3, [r2, #104]	; 0x68
2007004a:	f013 0f08 	tst.w	r3, #8
2007004e:	d0fb      	beq.n	20070048 <SystemInit+0x48>
20070050:	4a11      	ldr	r2, [pc, #68]	; (20070098 <SystemInit+0x98>)
20070052:	4b0e      	ldr	r3, [pc, #56]	; (2007008c <SystemInit+0x8c>)
20070054:	629a      	str	r2, [r3, #40]	; 0x28
20070056:	461a      	mov	r2, r3
20070058:	6e93      	ldr	r3, [r2, #104]	; 0x68
2007005a:	f013 0f02 	tst.w	r3, #2
2007005e:	d0fb      	beq.n	20070058 <SystemInit+0x58>
20070060:	2211      	movs	r2, #17
20070062:	4b0a      	ldr	r3, [pc, #40]	; (2007008c <SystemInit+0x8c>)
20070064:	631a      	str	r2, [r3, #48]	; 0x30
20070066:	461a      	mov	r2, r3
20070068:	6e93      	ldr	r3, [r2, #104]	; 0x68
2007006a:	f013 0f08 	tst.w	r3, #8
2007006e:	d0fb      	beq.n	20070068 <SystemInit+0x68>
20070070:	2212      	movs	r2, #18
20070072:	4b06      	ldr	r3, [pc, #24]	; (2007008c <SystemInit+0x8c>)
20070074:	631a      	str	r2, [r3, #48]	; 0x30
20070076:	461a      	mov	r2, r3
20070078:	6e93      	ldr	r3, [r2, #104]	; 0x68
2007007a:	f013 0f08 	tst.w	r3, #8
2007007e:	d0fb      	beq.n	20070078 <SystemInit+0x78>
20070080:	4a06      	ldr	r2, [pc, #24]	; (2007009c <SystemInit+0x9c>)
20070082:	4b07      	ldr	r3, [pc, #28]	; (200700a0 <SystemInit+0xa0>)
20070084:	601a      	str	r2, [r3, #0]
20070086:	4770      	bx	lr
20070088:	400e0a00 	.word	0x400e0a00
2007008c:	400e0600 	.word	0x400e0600
20070090:	00370809 	.word	0x00370809
20070094:	01370809 	.word	0x01370809
20070098:	200d3f01 	.word	0x200d3f01
2007009c:	0501bd00 	.word	0x0501bd00
200700a0:	20070140 	.word	0x20070140

200700a4 <system_init_flash>:
200700a4:	4b1b      	ldr	r3, [pc, #108]	; (20070114 <system_init_flash+0x70>)
200700a6:	4298      	cmp	r0, r3
200700a8:	d806      	bhi.n	200700b8 <system_init_flash+0x14>
200700aa:	2300      	movs	r3, #0
200700ac:	4a1a      	ldr	r2, [pc, #104]	; (20070118 <system_init_flash+0x74>)
200700ae:	6013      	str	r3, [r2, #0]
200700b0:	f502 7200 	add.w	r2, r2, #512	; 0x200
200700b4:	6013      	str	r3, [r2, #0]
200700b6:	4770      	bx	lr
200700b8:	4b18      	ldr	r3, [pc, #96]	; (2007011c <system_init_flash+0x78>)
200700ba:	4298      	cmp	r0, r3
200700bc:	d807      	bhi.n	200700ce <system_init_flash+0x2a>
200700be:	f44f 7380 	mov.w	r3, #256	; 0x100
200700c2:	4a15      	ldr	r2, [pc, #84]	; (20070118 <system_init_flash+0x74>)
200700c4:	6013      	str	r3, [r2, #0]
200700c6:	f502 7200 	add.w	r2, r2, #512	; 0x200
200700ca:	6013      	str	r3, [r2, #0]
200700cc:	4770      	bx	lr
200700ce:	4b14      	ldr	r3, [pc, #80]	; (20070120 <system_init_flash+0x7c>)
200700d0:	4298      	cmp	r0, r3
200700d2:	d807      	bhi.n	200700e4 <system_init_flash+0x40>
200700d4:	f44f 7300 	mov.w	r3, #512	; 0x200
200700d8:	4a0f      	ldr	r2, [pc, #60]	; (20070118 <system_init_flash+0x74>)
200700da:	6013      	str	r3, [r2, #0]
200700dc:	f502 7200 	add.w	r2, r2, #512	; 0x200
200700e0:	6013      	str	r3, [r2, #0]
200700e2:	4770      	bx	lr
200700e4:	4b0f      	ldr	r3, [pc, #60]	; (20070124 <system_init_flash+0x80>)
200700e6:	4298      	cmp	r0, r3
200700e8:	d807      	bhi.n	200700fa <system_init_flash+0x56>
200700ea:	f44f 7340 	mov.w	r3, #768	; 0x300
200700ee:	4a0a      	ldr	r2, [pc, #40]	; (20070118 <system_init_flash+0x74>)
200700f0:	6013      	str	r3, [r2, #0]
200700f2:	f502 7200 	add.w	r2, r2, #512	; 0x200
200700f6:	6013      	str	r3, [r2, #0]
200700f8:	4770      	bx	lr
200700fa:	4b0b      	ldr	r3, [pc, #44]	; (20070128 <system_init_flash+0x84>)
200700fc:	4298      	cmp	r0, r3
200700fe:	bf94      	ite	ls
20070100:	f44f 6380 	movls.w	r3, #1024	; 0x400
20070104:	f44f 63a0 	movhi.w	r3, #1280	; 0x500
20070108:	4a03      	ldr	r2, [pc, #12]	; (20070118 <system_init_flash+0x74>)
2007010a:	6013      	str	r3, [r2, #0]
2007010c:	f502 7200 	add.w	r2, r2, #512	; 0x200
20070110:	6013      	str	r3, [r2, #0]
20070112:	4770      	bx	lr
20070114:	0121eabf 	.word	0x0121eabf
20070118:	400e0a00 	.word	0x400e0a00
2007011c:	02faf07f 	.word	0x02faf07f
20070120:	03d08fff 	.word	0x03d08fff
20070124:	04c4b3ff 	.word	0x04c4b3ff
20070128:	055d4a7f 	.word	0x055d4a7f

2007012c <omkretsHjul>:
2007012c:	3ee66666                                ff.>

20070130 <hzforcpu>:
20070130:	00280de8                                ..(.

20070134 <omkretsHjulRight>:
20070134:	3ee66666                                ff.>

20070138 <hzforcpuRight>:
20070138:	00280de8                                ..(.

2007013c <g_interrupt_enabled>:
2007013c:	00000001                                ....

20070140 <SystemCoreClock>:
20070140:	003d0900                                ..=.

20070144 <uxCriticalNesting>:
20070144:	aaaaaaaa                                ....

20070148 <xFreeBytesRemaining>:
20070148:	00008000                                ....

2007014c <xNextTaskUnblockTime>:
2007014c:	ffffffff                                ....

20070150 <impure_data>:
20070150:	00000000 000870f0 00087110 00087130     .....p...q..0q..
	...
20070170:	00087094 00000000 00000000 00000000     .p..............
	...

200701b0 <_impure_ptr>:
200701b0:	20070150                                P.. 

200701b4 <lconv>:
200701b4:	00087156 000870a1 000870a1 000870a1     Vq...p...p...p..
200701c4:	000870a1 000870a1 000870a1 000870a1     .p...p...p...p..
200701d4:	000870a1 000870a1 ffffffff ffffffff     .p...p..........
200701e4:	ffffffff 0000ffff                       ........
